	.file	"main.cpp"
	.text
#APP
	.globl _ZSt21ios_base_library_initv
#NO_APP
	.p2align 4
	.globl	_Z24schubfach_xjb_f32_to_decfPjPi
	.type	_Z24schubfach_xjb_f32_to_decfPjPi, @function
_Z24schubfach_xjb_f32_to_decfPjPi:
.LFB10405:
	.cfi_startproc
	endbr64
	vmovd	%xmm0, %eax
	pushq	%r15
	.cfi_def_cfa_offset 16
	.cfi_offset 15, -16
	pushq	%r14
	.cfi_def_cfa_offset 24
	.cfi_offset 14, -24
	pushq	%r13
	.cfi_def_cfa_offset 32
	.cfi_offset 13, -32
	pushq	%r12
	.cfi_def_cfa_offset 40
	.cfi_offset 12, -40
	pushq	%rbp
	.cfi_def_cfa_offset 48
	.cfi_offset 6, -48
	pushq	%rbx
	.cfi_def_cfa_offset 56
	.cfi_offset 3, -56
	movl	%eax, %ebx
	shrl	$23, %eax
	andl	$8388607, %ebx
	andl	$255, %eax
	movq	%rsi, %r10
	movq	%rdi, %r9
	movl	%ebx, %r8d
	movl	%eax, %esi
	je	.L8
	leal	-150(%rax), %ecx
	orl	$8388608, %r8d
	imull	$1262611, %ecx, %edi
.L2:
	leal	0(,%r8,4), %r14d
	cmpl	$1, %ebx
	leal	-524031(%rdi), %edx
	movl	%r14d, %eax
	leal	2(%r14), %r12d
	adcl	$-2, %eax
	sarl	$22, %edx
	sarl	$22, %edi
	testl	%ebx, %ebx
	cmove	%edx, %edi
	imull	$-1741647, %edi, %edx
	sarl	$19, %edx
	leal	1(%rcx,%rdx), %ebp
	movl	$31, %edx
	leaq	_ZZN15schubfach_xjb32L19ComputePow10_SingleEiE1g(%rip), %rcx
	subl	%edi, %edx
	shlx	%ebp, %r14d, %r14d
	shlx	%ebp, %r12d, %r12d
	movq	(%rcx,%rdx,8), %r11
	shlx	%ebp, %eax, %ecx
	movq	%rcx, %rax
	mulq	%r11
	movq	%rdx, -16(%rsp)
	movq	%r14, %rdx
	movq	%rax, -24(%rsp)
	movq	-24(%rsp), %rax
	mulx	%r11, %r14, %r15
	movq	%r14, %rcx
	movq	%r12, %rdx
	movq	%r15, %r14
	shrq	$32, %rcx
	mulx	%r11, %r12, %r13
	cmpl	$1, %ecx
	movq	%r12, %r11
	movl	$-3, %r12d
	seta	%cl
	shrq	$32, %r11
	movzbl	%cl, %ecx
	orl	%r15d, %ecx
	cmpl	$1, %r11d
	seta	%r11b
	andl	$1, %r8d
	shrq	$32, %rax
	movzbl	%r11b, %r11d
	orl	%r13d, %r11d
	xorl	%r13d, %r13d
	cmpl	$1, %eax
	movq	-16(%rsp), %rax
	seta	%r13b
	andl	$7, %ecx
	subl	%r8d, %r12d
	shrl	$2, %r14d
	movl	%r14d, %ebp
	imulq	$1717986919, %rbp, %rbp
	orl	%eax, %r13d
	movl	$200, %eax
	sarx	%ecx, %eax, %ecx
	addl	%r8d, %r13d
	andl	$1, %ecx
	leal	(%rcx,%r14), %eax
	shrq	$34, %rbp
	leal	0(,%rbp,4), %edx
	leal	(%rdx,%rbp), %r8d
	addl	%r8d, %r8d
	testl	%ebx, %ebx
	je	.L12
.L5:
	addl	%ebp, %edx
	popq	%rbx
	.cfi_remember_state
	.cfi_def_cfa_offset 48
	popq	%rbp
	.cfi_def_cfa_offset 40
	sall	$3, %edx
	cmpl	%r13d, %edx
	cmovnb	%r8d, %eax
	addl	%r12d, %r11d
	addl	$37, %edx
	addl	$10, %r8d
	cmpl	%edx, %r11d
	popq	%r12
	.cfi_def_cfa_offset 32
	popq	%r13
	.cfi_def_cfa_offset 24
	popq	%r14
	.cfi_def_cfa_offset 16
	cmovnb	%r8d, %eax
	popq	%r15
	.cfi_def_cfa_offset 8
	movl	%eax, (%r9)
	movl	%edi, (%r10)
	ret
	.p2align 4
	.p2align 3
.L8:
	.cfi_restore_state
	movl	$-188129039, %edi
	movl	$-149, %ecx
	jmp	.L2
	.p2align 4
	.p2align 3
.L12:
	cmpl	$31, %esi
	sete	%cl
	cmpl	$214, %esi
	sete	%bl
	orl	%ebx, %ecx
	cmpl	$217, %esi
	sete	%sil
	orl	%esi, %ecx
	movzbl	%cl, %ecx
	addl	%ecx, %eax
	jmp	.L5
	.cfi_endproc
.LFE10405:
	.size	_Z24schubfach_xjb_f32_to_decfPjPi, .-_Z24schubfach_xjb_f32_to_decfPjPi
	.p2align 4
	.type	_ZL16xjb64_f64_to_decdPyPi, @function
_ZL16xjb64_f64_to_decdPyPi:
.LFB10554:
	.cfi_startproc
	endbr64
	vmovq	%xmm0, %rax
	movabsq	$4503599627370495, %r8
	pushq	%r12
	.cfi_def_cfa_offset 16
	.cfi_offset 12, -16
	movq	%rsi, %r9
	andq	%rax, %r8
	pushq	%rbp
	.cfi_def_cfa_offset 24
	.cfi_offset 6, -24
	pushq	%rbx
	.cfi_def_cfa_offset 32
	.cfi_offset 3, -32
	movq	%rdi, %rbx
	shrq	$52, %rax
	andl	$2047, %eax
	movq	%r8, %rcx
	je	.L23
	subl	$1075, %eax
	btsq	$52, %rcx
	imull	$315653, %eax, %esi
.L14:
	movl	%esi, %edx
	subl	$131237, %esi
	leaq	4688+_ZZL16xjb64_f64_to_decdPyPiE1g(%rip), %r11
	sarl	$20, %edx
	sarl	$20, %esi
	testq	%r8, %r8
	cmovne	%edx, %esi
	movl	%esi, %edx
	notl	%edx
	imull	$217707, %edx, %edi
	addl	%edx, %edx
	movslq	%edx, %rdx
	leaq	(%r11,%rdx,8), %rdx
	sarl	$16, %edi
	leal	(%rdi,%rax), %r10d
	leal	7(%rax,%rdi), %eax
	movq	(%rdx), %r11
	shlx	%rax, %rcx, %rdi
	movq	%rdi, %rax
	mulq	8(%rdx)
	movq	%rdx, %rbp
	movq	%r11, %rdx
	mulx	%rdi, %rax, %rdx
	addq	%rbp, %rax
	adcq	$0, %rdx
	negl	%r10d
	movq	%rax, %rdi
	movq	%rdx, %rbp
	shrq	$6, %rbp
	leaq	0(%rbp,%rbp,4), %rbp
	leaq	(%rbp,%rbp), %r12
	shrx	%r10, %r11, %rbp
	movq	%rax, %r10
	movq	%rdx, %r11
	shldq	$2, %r10, %r11
	salq	$2, %r10
	shrdq	$6, %rdx, %rdi
	addq	%rax, %r10
	adcq	%rdx, %r11
	movabsq	$4611686018427387904, %rdx
	shldq	$1, %r10, %r11
	movq	%r11, %rax
	addq	$32, %rax
	cmpq	%rdx, %rdi
	sete	%dl
	incq	%rcx
	movzbl	%dl, %edx
	andl	$1, %ecx
	subq	%rdx, %rax
	addq	%rbp, %rcx
	shrq	$6, %rax
	testq	%r8, %r8
	je	.L17
	cmpq	%rcx, %rdi
	cmovb	%r12, %rax
.L18:
	addq	%rdi, %rcx
	jc	.L28
.L22:
	movq	%rax, (%rbx)
	movl	%esi, (%r9)
	popq	%rbx
	.cfi_remember_state
	.cfi_def_cfa_offset 24
	popq	%rbp
	.cfi_def_cfa_offset 16
	popq	%r12
	.cfi_def_cfa_offset 8
	ret
	.p2align 4
	.p2align 3
.L23:
	.cfi_restore_state
	movl	$-339011322, %esi
	movl	$-1074, %eax
	jmp	.L14
	.p2align 4
	.p2align 3
.L17:
	movq	%rdi, %rdx
	movq	%rbp, %r10
	movabsq	$1152921504606846974, %r8
	shrq	$4, %rdx
	leaq	(%rdx,%rdx,4), %rdx
	addq	%rdx, %rdx
	shrq	$4, %r10
	andq	%rdx, %r8
	leaq	(%r10,%r10,4), %r10
	shrq	$60, %rdx
	cmpq	%r8, %r10
	leaq	1(%r12,%rdx), %rdx
	cmovb	%rdx, %rax
	shrq	%rbp
	cmpq	%rbp, %rdi
	cmovb	%r12, %rax
	jmp	.L18
.L28:
	leaq	10(%r12), %rax
	jmp	.L22
	.cfi_endproc
.LFE10554:
	.size	_ZL16xjb64_f64_to_decdPyPi, .-_ZL16xjb64_f64_to_decdPyPi
	.section	.rodata
	.align 32
.LC0:
	.quad	-3480967307441105733
	.quad	-9093133594791772939
	.quad	-6754730975062328270
	.quad	-3831727700400522433
	.quad	-177973607073265138
	.quad	-7028762532061872567
	.quad	-4174267146649952805
	.quad	-606147914885053102
	.quad	-7296371474444240045
	.quad	-4508778324627912152
	.quad	-1024286887357502286
	.quad	-7557708332239520785
	.quad	-4835449396872013077
	.quad	-1432625727662628442
	.quad	-7812920107430224632
	.quad	-5154464115860392886
	.quad	-1831394126398103204
	.quad	-8062150356639896358
	.quad	-5466001927372482544
	.quad	-2220816390788215276
	.quad	-8305539271883716404
	.quad	-5770238071427257601
	.quad	-2601111570856684097
	.quad	-8543223759426509416
	.quad	-6067343680855748867
	.quad	-2972493582642298179
	.quad	-8775337516792518218
	.quad	-6357485877563259868
	.quad	-3335171328526686932
	.quad	-9002011107970261188
	.quad	-6640827866535438581
	.quad	-3689348814741910323
	.quad	-9223372036854775808
	.quad	-6917529027641081856
	.quad	-4035225266123964416
	.quad	-432345564227567616
	.quad	-7187745005283311616
	.quad	-4372995238176751616
	.quad	-854558029293551616
	.quad	-7451627795949551616
	.quad	-4702848726509551616
	.quad	-1266874889709551616
	.quad	-7709325833709551616
	.quad	-5024971273709551616
	.quad	-1669528073709551616
	.quad	-7960984073709551616
	.quad	-5339544073709551616
	.quad	-2062744073709551616
	.quad	-8206744073709551616
	.quad	-5646744073709551616
	.quad	-2446744073709551616
	.quad	-8446744073709551616
	.quad	-5946744073709551616
	.quad	-2821744073709551616
	.quad	-8681119073709551616
	.quad	-6239712823709551616
	.quad	-3187955011209551616
	.quad	-8910000909647051616
	.quad	-6525815118631426616
	.quad	-3545582879861895366
	.quad	-9133518327554766459
	.quad	-6805211891016070170
	.quad	-3894828845342699809
	.quad	-256850038250986857
	.quad	-7078060301547948642
	.quad	-4235889358507547898
	.quad	-683175679707046969
	.quad	-7344513827457986211
	.quad	-4568956265895094860
	.quad	-1099509313941480671
	.quad	-7604722348854507275
	.quad	-4894216917640746190
	.quad	-1506085128623544834
	.quad	-7858832233030797377
	.quad	-5211854272861108818
	.quad	-1903131822648998118
	.quad	-8106986416796705680
	.text
	.p2align 4
	.type	_ZL14xjb_f32_to_decfPjPi, @function
_ZL14xjb_f32_to_decfPjPi:
.LFB10561:
	.cfi_startproc
	endbr64
	pushq	%r14
	.cfi_def_cfa_offset 16
	.cfi_offset 14, -16
	pushq	%r13
	.cfi_def_cfa_offset 24
	.cfi_offset 13, -24
	pushq	%r12
	.cfi_def_cfa_offset 32
	.cfi_offset 12, -32
	vmovd	%xmm0, %r12d
	leal	(%r12,%r12), %ecx
	pushq	%rbp
	.cfi_def_cfa_offset 40
	.cfi_offset 6, -40
	pushq	%rbx
	.cfi_def_cfa_offset 48
	.cfi_offset 3, -48
	movq	%rdi, %rbp
	shrl	$23, %ecx
	subq	$624, %rsp
	.cfi_def_cfa_offset 672
	movq	%rsi, %rbx
	movl	%r12d, %r13d
	movl	%ecx, %r14d
	movq	%rsp, %rdi
	movl	$616, %edx
	leaq	.LC0(%rip), %rsi
	andl	$8388607, %r13d
	movq	%fs:40, %rax
	movq	%rax, 616(%rsp)
	xorl	%eax, %eax
	call	memcpy@PLT
	testl	%r14d, %r14d
	je	.L30
	leal	-150(%r14), %ecx
	movl	%r13d, %edx
	imull	$315653, %ecx, %eax
	orl	$8388608, %edx
.L31:
	movl	%eax, %esi
	subl	$131237, %eax
	movabsq	$68719476735, %r9
	notl	%r12d
	sarl	$20, %eax
	sarl	$20, %esi
	testl	%r13d, %r13d
	cmove	%eax, %esi
	andl	$1, %r12d
	movl	%esi, %edi
	notl	%edi
	imull	$217707, %edi, %eax
	movslq	%edi, %rdi
	movq	256(%rsp,%rdi,8), %rdi
	sarl	$16, %eax
	leal	(%rax,%rcx), %r10d
	leal	37(%rcx,%rax), %eax
	shlx	%rax, %rdx, %rdx
	movq	%rdx, %rax
	mulq	%rdi
	movq	%rdx, %rax
	andq	%r9, %rdx
	shrq	$36, %rax
	leaq	(%rax,%rax,4), %r8
	movl	$28, %eax
	subl	%r10d, %eax
	leaq	(%rdx,%rdx,4), %r10
	addq	%r8, %r8
	shrx	%rax, %rdi, %rdi
	movq	%rdx, %rax
	shrq	$32, %rax
	leaq	(%rax,%r10,4), %rax
	movabsq	$68719476729, %r10
	addq	%r10, %rax
	shrq	$37, %rax
	testl	%r13d, %r13d
	je	.L34
	addq	%rdi, %r12
	xorl	%ecx, %ecx
	cmpq	%r12, %rdx
	cmovb	%rcx, %rax
	subq	%rdx, %r9
	movl	$10, %edx
	cmpq	%r12, %r9
	cmovnb	%eax, %edx
.L36:
	addl	%r8d, %edx
	movl	%edx, 0(%rbp)
	movl	%esi, (%rbx)
	movq	616(%rsp), %rax
	subq	%fs:40, %rax
	jne	.L43
	addq	$624, %rsp
	.cfi_remember_state
	.cfi_def_cfa_offset 48
	popq	%rbx
	.cfi_def_cfa_offset 40
	popq	%rbp
	.cfi_def_cfa_offset 32
	popq	%r12
	.cfi_def_cfa_offset 24
	popq	%r13
	.cfi_def_cfa_offset 16
	popq	%r14
	.cfi_def_cfa_offset 8
	ret
	.p2align 4
	.p2align 3
.L30:
	.cfi_restore_state
	movl	%r13d, %edx
	movl	$-47032297, %eax
	movl	$-149, %ecx
	jmp	.L31
	.p2align 4
	.p2align 3
.L34:
	movq	%rdi, %r10
	shrq	%r10
	cmpq	%r10, %rdx
	movl	$0, %r10d
	cmovb	%r10, %rax
	subq	%rdx, %r9
	movl	$10, %edx
	cmpq	%rdi, %r9
	jb	.L36
	xorl	%edx, %edx
	cmpl	$-119, %ecx
	sete	%dl
	xorl	%edi, %edi
	cmpl	$64, %ecx
	sete	%dil
	addl	%edi, %edx
	cmpl	$67, %ecx
	sete	%cl
	movzbl	%cl, %ecx
	addl	%ecx, %edx
	addl	%eax, %edx
	jmp	.L36
.L43:
	call	__stack_chk_fail@PLT
	.cfi_endproc
.LFE10561:
	.size	_ZL14xjb_f32_to_decfPjPi, .-_ZL14xjb_f32_to_decfPjPi
	.p2align 4
	.globl	_Z18yy_fast_f64_to_decdPyPi
	.type	_Z18yy_fast_f64_to_decdPyPi, @function
_Z18yy_fast_f64_to_decdPyPi:
.LFB10552:
	.cfi_startproc
	endbr64
	pushq	%r15
	.cfi_def_cfa_offset 16
	.cfi_offset 15, -16
	pushq	%r14
	.cfi_def_cfa_offset 24
	.cfi_offset 14, -24
	pushq	%r13
	.cfi_def_cfa_offset 32
	.cfi_offset 13, -32
	vmovq	%xmm0, %rax
	pushq	%r12
	.cfi_def_cfa_offset 40
	.cfi_offset 12, -40
	pushq	%rbp
	.cfi_def_cfa_offset 48
	.cfi_offset 6, -48
	pushq	%rbx
	.cfi_def_cfa_offset 56
	.cfi_offset 3, -56
	movq	%rsi, %r10
	subq	$56, %rsp
	.cfi_def_cfa_offset 112
	movq	%rdi, 8(%rsp)
	movq	%fs:40, %rdx
	movq	%rdx, 40(%rsp)
	xorl	%edx, %edx
	movabsq	$4503599627370495, %rdx
	andq	%rax, %rdx
	shrq	$52, %rax
	andl	$2047, %eax
	je	.L64
	movabsq	$4503599627370496, %rcx
	movq	%rdx, %rbx
	subq	$1075, %rax
	imull	$315653, %eax, %esi
	orq	%rcx, %rbx
	testq	%rdx, %rdx
	je	.L46
	sarl	$20, %esi
	imull	$-217707, %esi, %edx
	movl	$5, %r11d
	sarl	$16, %edx
	leal	1(%rdx,%rax), %eax
	movl	$343, %edx
	subl	%esi, %edx
	subl	%eax, %r11d
	addl	%edx, %edx
	movslq	%edx, %rdx
	salq	$3, %rdx
.L45:
	shlx	%rax, %rbx, %r14
	leaq	_ZL15pow10_sig_table(%rip), %rcx
	movq	%r14, %rax
	movabsq	$1844674407370955162, %r12
	addq	%rcx, %rdx
	movq	(%rdx), %rcx
	mulq	8(%rdx)
	movq	%rdx, %rdi
	movq	%r14, %rdx
	mulx	%rcx, %r14, %r15
	addq	%rdi, %r14
	shrx	%r11, %rcx, %rcx
	adcq	$0, %r15
	movq	%r14, %rbp
	movq	%r15, %rdx
	movq	%r15, %rax
	movq	%r15, 16(%rsp)
	mulx	%r12, %r12, %r13
	leaq	0(%r13,%r13,4), %rdi
	movq	%r15, %r12
	movq	%r14, %rdx
	addq	%rdi, %rdi
	subq	%rdi, %r12
	movq	%rdi, %r8
	shrdq	$4, %r12, %rdx
	movabsq	$-6917529027641081856, %r12
	leaq	(%rdx,%rcx), %r11
	movq	%r12, %r13
	subq	%r11, %r13
	cmpq	%rcx, %rdx
	je	.L47
	movabsq	$-9223372036854775808, %r9
	cmpq	%r9, %r14
	je	.L47
	cmpq	$1, %r13
	jbe	.L47
	cmpq	%rcx, %rdx
	leaq	10(%rdi), %r8
	movq	%r14, %rdx
	setb	%cl
	cmpq	%r11, %r12
	movzbl	%cl, %ecx
	adcl	$0, %ecx
	cmpq	%r11, %r12
	cmovnb	%rdi, %r8
	shrq	$63, %rdx
	addq	%rdx, %rax
	testl	%ecx, %ecx
	movq	%rax, 32(%rsp)
	cmovne	%r8, %rax
	movq	8(%rsp), %rbx
	movq	%rax, (%rbx)
	movl	%esi, (%r10)
.L44:
	movq	40(%rsp), %rax
	subq	%fs:40, %rax
	jne	.L72
	addq	$56, %rsp
	.cfi_remember_state
	.cfi_def_cfa_offset 56
	popq	%rbx
	.cfi_def_cfa_offset 48
	popq	%rbp
	.cfi_def_cfa_offset 40
	popq	%r12
	.cfi_def_cfa_offset 32
	popq	%r13
	.cfi_def_cfa_offset 24
	popq	%r14
	.cfi_def_cfa_offset 16
	popq	%r15
	.cfi_def_cfa_offset 8
	ret
	.p2align 4
	.p2align 3
.L47:
	.cfi_restore_state
	movq	%r14, %rdi
	movabsq	$-9223372036854775808, %r12
	andl	$1, %eax
	shrq	$63, %rdi
	cmpq	%r12, %rbp
	cmove	%eax, %edi
	movq	%rbx, %rax
	cmpq	%rcx, %rdx
	notq	%rax
	setb	%bpl
	movzbl	%dil, %edi
	andl	$1, %eax
	cmpq	%rcx, %rdx
	cmove	%eax, %ebp
.L53:
	movq	16(%rsp), %rcx
	movabsq	$-6917529027641081856, %rax
	cmpq	%r11, %rax
	setb	%al
	addq	%rdi, %rcx
	movq	%rcx, %rdi
	cmpq	$1, %r13
	jbe	.L73
.L54:
	testb	%bpl, %bpl
	movl	%esi, (%r10)
	cmovne	%r8, %rdi
	testb	%al, %al
	je	.L74
	movq	8(%rsp), %rax
	addq	$10, %r8
	movq	%r8, (%rax)
	jmp	.L44
	.p2align 4
	.p2align 3
.L74:
	movq	8(%rsp), %rax
	movq	%rdi, (%rax)
	jmp	.L44
	.p2align 4
	.p2align 3
.L46:
	subl	$131237, %esi
	sarl	$20, %esi
	imull	$-217707, %esi, %edx
	sarl	$16, %edx
	leal	1(%rdx,%rax), %edi
	movl	$343, %eax
	leaq	_ZL15pow10_sig_table(%rip), %rdx
	subl	%esi, %eax
	shlx	%rdi, %rcx, %rcx
	addl	%eax, %eax
	cltq
	leaq	(%rdx,%rax,8), %rdx
	movq	%rcx, %rax
	movq	(%rdx), %r8
	mulq	8(%rdx)
	movq	%rdx, %r11
	movq	%rcx, %rdx
	mulx	%r8, %rax, %rdx
	addq	%r11, %rax
	movl	$5, %r11d
	adcq	$0, %rdx
	subl	%edi, %r11d
	movq	%rax, %rcx
	movl	$1, %edi
	shrx	%r11, %r8, %r11
	movq	%r11, %rbx
	shrq	$4, %rcx
	shrq	%rbx
	cmpq	%rcx, %rbx
	jb	.L51
	movabsq	$-9223372036854775808, %rdi
	cmpq	%rax, %rdi
	setb	%dil
	movzbl	%dil, %edi
.L51:
	movabsq	$1844674407370955162, %rax
	movq	%rdx, %r15
	movq	%rdx, 16(%rsp)
	movabsq	$-6917529027641081856, %r13
	mulq	%rdx
	movq	%r15, %rax
	leaq	(%rdx,%rdx,4), %r8
	addq	%r8, %r8
	subq	%r8, %rax
	salq	$60, %rax
	orq	%rcx, %rax
	addq	%rax, %r11
	subq	%r11, %r13
	cmpq	%rax, %rbx
	movabsq	$4503599627370496, %rbx
	setnb	%bpl
	jmp	.L53
	.p2align 4
	.p2align 3
.L64:
	movq	%rdx, %rbx
	movl	$2, %r11d
	movl	$10672, %edx
	movl	$3, %eax
	movl	$-324, %esi
	jmp	.L45
	.p2align 4
	.p2align 3
.L73:
	movl	%esi, 28(%rsp)
	cmpq	%r13, 28(%rsp)
	jnb	.L55
	movq	8(%rsp), %rax
	testb	%bpl, %bpl
	movl	%esi, (%r10)
	cmovne	%r8, %rdi
	movq	%rdi, (%rax)
	jmp	.L44
	.p2align 4
	.p2align 3
.L55:
	movq	%rbx, %rax
	notq	%rax
	andl	$1, %eax
	jmp	.L54
.L72:
	call	__stack_chk_fail@PLT
	.cfi_endproc
.LFE10552:
	.size	_Z18yy_fast_f64_to_decdPyPi, .-_Z18yy_fast_f64_to_decdPyPi
	.p2align 4
	.globl	_Z18yy_full_f64_to_decdPyPi
	.type	_Z18yy_full_f64_to_decdPyPi, @function
_Z18yy_full_f64_to_decdPyPi:
.LFB10553:
	.cfi_startproc
	endbr64
	vmovq	%xmm0, %rax
	movabsq	$4503599627370495, %rdx
	pushq	%r14
	.cfi_def_cfa_offset 16
	.cfi_offset 14, -16
	movq	%rdi, %rcx
	andq	%rax, %rdx
	pushq	%r13
	.cfi_def_cfa_offset 24
	.cfi_offset 13, -24
	pushq	%r12
	.cfi_def_cfa_offset 32
	.cfi_offset 12, -32
	pushq	%rbp
	.cfi_def_cfa_offset 40
	.cfi_offset 6, -40
	shrq	$52, %rax
	andl	$2047, %eax
	pushq	%rbx
	.cfi_def_cfa_offset 48
	.cfi_offset 3, -48
	je	.L90
	movabsq	$4503599627370496, %r9
	movq	%rdx, %rdi
	subq	$1075, %rax
	imull	$315653, %eax, %r8d
	orq	%r9, %rdi
	testq	%rdx, %rdx
	je	.L77
	sarl	$20, %r8d
	imull	$-217707, %r8d, %edx
	movl	$5, %ebx
	sarl	$16, %edx
	leal	1(%rdx,%rax), %eax
	movl	$343, %edx
	subl	%r8d, %edx
	subl	%eax, %ebx
	addl	%edx, %edx
	movslq	%edx, %rdx
	salq	$3, %rdx
.L78:
	leaq	_ZL15pow10_sig_table(%rip), %r9
	addq	%r9, %rdx
	shlx	%rax, %rdi, %r9
	movq	%r9, %rax
	movq	(%rdx), %rbp
	mulq	8(%rdx)
	movq	%rdx, %r10
	movq	%r9, %rdx
	mulx	%rbp, %rax, %rdx
	addq	%r10, %rax
	movabsq	$1844674407370955162, %r10
	shrx	%rbx, %rbp, %rbp
	adcq	$0, %rdx
	movq	%rax, %r13
	movabsq	$4503599627370496, %rbx
	movq	%rax, %r12
	mulx	%r10, %r10, %r11
	leaq	(%r11,%r11,4), %r11
	movq	%rdx, %r10
	movq	%rdx, %r9
	addq	%r11, %r11
	movq	%rax, -32(%rsp)
	movq	%rdx, -24(%rsp)
	subq	%r11, %r10
	shrq	$4, %r13
	salq	$60, %r10
	orq	%r13, %r10
	leaq	(%r10,%rbp), %r14
	cmpq	%rbx, %rdi
	je	.L79
	movq	-32(%rsp), %rax
	movabsq	$-9223372036854775808, %rbx
	andl	$1, %edx
	shrq	$63, %rax
	cmpq	%rbx, %r12
	cmove	%edx, %eax
	movq	%rdi, %rdx
	cmpq	%rbp, %r10
	notq	%rdx
	setb	%bl
	movzbl	%al, %eax
	andl	$1, %edx
	cmpq	%rbp, %r10
	cmove	%edx, %ebx
.L81:
	movabsq	$-6917529027641081856, %rdx
	cmpq	%r14, %rdx
	setb	%r10b
	subq	%r14, %rdx
	addq	%rax, %r9
	cmpq	$1, %rdx
	jbe	.L96
.L83:
	testb	%bl, %bl
	movl	%r8d, (%rsi)
	cmovne	%r11, %r9
	testb	%r10b, %r10b
	je	.L97
	addq	$10, %r11
	movq	%r11, (%rcx)
.L94:
	popq	%rbx
	.cfi_remember_state
	.cfi_def_cfa_offset 40
	popq	%rbp
	.cfi_def_cfa_offset 32
	popq	%r12
	.cfi_def_cfa_offset 24
	popq	%r13
	.cfi_def_cfa_offset 16
	popq	%r14
	.cfi_def_cfa_offset 8
	ret
	.p2align 4
	.p2align 3
.L97:
	.cfi_restore_state
	popq	%rbx
	.cfi_remember_state
	.cfi_def_cfa_offset 40
	movq	%r9, (%rcx)
	popq	%rbp
	.cfi_def_cfa_offset 32
	popq	%r12
	.cfi_def_cfa_offset 24
	popq	%r13
	.cfi_def_cfa_offset 16
	popq	%r14
	.cfi_def_cfa_offset 8
	ret
	.p2align 4
	.p2align 3
.L96:
	.cfi_restore_state
	movl	%r8d, -4(%rsp)
	cmpq	%rdx, -4(%rsp)
	jnb	.L84
	testb	%bl, %bl
	movl	%r8d, (%rsi)
	cmovne	%r11, %r9
	movq	%r9, (%rcx)
	jmp	.L94
	.p2align 4
	.p2align 3
.L90:
	movq	%rdx, %rdi
	movl	$2, %ebx
	movl	$10672, %edx
	movl	$3, %eax
	movl	$-324, %r8d
	jmp	.L78
	.p2align 4
	.p2align 3
.L77:
	subl	$131237, %r8d
	movl	$5, %ebx
	movq	%r9, %rdi
	sarl	$20, %r8d
	imull	$-217707, %r8d, %edx
	sarl	$16, %edx
	leal	1(%rdx,%rax), %eax
	movl	$343, %edx
	subl	%r8d, %edx
	subl	%eax, %ebx
	addl	%edx, %edx
	movslq	%edx, %rdx
	salq	$3, %rdx
	jmp	.L78
	.p2align 4
	.p2align 3
.L79:
	shrq	%rbp
	movl	$1, %eax
	cmpq	%r13, %rbp
	jb	.L82
	movabsq	$-9223372036854775808, %rax
	cmpq	%r12, %rax
	setb	%al
	movzbl	%al, %eax
.L82:
	cmpq	%r10, %rbp
	setnb	%bl
	jmp	.L81
	.p2align 4
	.p2align 3
.L84:
	notq	%rdi
	movl	%edi, %r10d
	andl	$1, %r10d
	jmp	.L83
	.cfi_endproc
.LFE10553:
	.size	_Z18yy_full_f64_to_decdPyPi, .-_Z18yy_full_f64_to_decdPyPi
	.p2align 4
	.type	_Z11ToDecimal64mm, @function
_Z11ToDecimal64mm:
.LFB10303:
	.cfi_startproc
	pushq	%r13
	.cfi_def_cfa_offset 16
	.cfi_offset 13, -16
	movq	%rdi, %rax
	pushq	%r12
	.cfi_def_cfa_offset 24
	.cfi_offset 12, -24
	movq	%rdi, %rcx
	pushq	%rbp
	.cfi_def_cfa_offset 32
	.cfi_offset 6, -32
	pushq	%rbx
	.cfi_def_cfa_offset 40
	.cfi_offset 3, -40
	testq	%rsi, %rsi
	je	.L106
	subl	$1075, %esi
	btsq	$52, %rcx
	imull	$1262611, %esi, %edi
.L99:
	movq	%rcx, %rbp
	leal	-524031(%rdi), %r9d
	salq	$2, %rcx
	andl	$1, %ebp
	movq	%rcx, %rdx
	cmpq	$1, %rax
	leaq	2(%rcx), %r8
	adcq	$-2, %rdx
	sarl	$22, %r9d
	sarl	$22, %edi
	testq	%rax, %rax
	cmove	%r9d, %edi
	imull	$-1741647, %edi, %eax
	sarl	$19, %eax
	leal	1(%rsi,%rax), %ebx
	movl	$292, %eax
	leaq	_ZZL19ComputePow10_DoubleiE1g(%rip), %rsi
	subl	%edi, %eax
	shlx	%rbx, %rdx, %rdx
	shlx	%rbx, %rcx, %rcx
	shlx	%rbx, %r8, %r8
	salq	$4, %rax
	addq	%rsi, %rax
	movq	(%rax), %rsi
	movq	8(%rax), %r9
	movq	%rdx, %rax
	mulx	%rsi, %r10, %r11
	mulq	%r9
	movq	%rcx, %rax
	addq	%rdx, %r10
	movq	%rcx, %rdx
	adcq	$0, %r11
	mulx	%rsi, %r12, %r13
	mulq	%r9
	movq	%r8, %rax
	addq	%rdx, %r12
	movq	%r8, %rdx
	adcq	$0, %r13
	cmpq	$1, %r12
	mulx	%rsi, %rcx, %rbx
	seta	%r12b
	mulq	%r9
	movzbl	%r12b, %r12d
	orq	%r13, %r12
	addq	%rdx, %rcx
	adcq	$0, %rbx
	xorl	%r8d, %r8d
	cmpq	$1, %r10
	seta	%r8b
	orq	%r11, %r8
	addq	%rbp, %r8
	cmpq	$1, %rcx
	seta	%cl
	movzbl	%cl, %ecx
	orq	%rbx, %rcx
	subq	%rbp, %rcx
	cmpq	$39, %r12
	jbe	.L102
	movabsq	$-3689348814741910323, %rax
	mulq	%r12
	shrq	$5, %rdx
	leaq	(%rdx,%rdx,4), %rsi
	salq	$3, %rsi
	leaq	40(%rsi), %rax
	cmpq	%rax, %rcx
	setnb	%al
	cmpq	%r8, %rsi
	setnb	%sil
	cmpb	%al, %sil
	je	.L102
	movzbl	%al, %eax
	popq	%rbx
	.cfi_remember_state
	.cfi_def_cfa_offset 32
	popq	%rbp
	.cfi_def_cfa_offset 24
	popq	%r12
	.cfi_def_cfa_offset 16
	addq	%rdx, %rax
	popq	%r13
	.cfi_def_cfa_offset 8
	movl	%edi, %edx
	leaq	(%rax,%rax,4), %rax
	addq	%rax, %rax
	ret
	.p2align 4
	.p2align 3
.L102:
	.cfi_restore_state
	movq	%r12, %r9
	movq	%r12, %rsi
	shrq	$2, %r9
	leaq	1(%r9), %rax
	andq	$-4, %rsi
	leaq	0(,%rax,4), %rdx
	cmpq	%rdx, %rcx
	setnb	%dl
	cmpq	%r8, %rsi
	setnb	%cl
	cmpb	%dl, %cl
	je	.L104
	movzbl	%dl, %edx
	leaq	(%rdx,%r9), %rax
.L103:
	popq	%rbx
	.cfi_remember_state
	.cfi_def_cfa_offset 32
	movl	%edi, %edx
	popq	%rbp
	.cfi_def_cfa_offset 24
	popq	%r12
	.cfi_def_cfa_offset 16
	popq	%r13
	.cfi_def_cfa_offset 8
	ret
	.p2align 4
	.p2align 3
.L104:
	.cfi_restore_state
	addq	$2, %rsi
	cmpq	%r12, %rsi
	jb	.L103
	andq	$-2, %rax
	cmpq	%r12, %rsi
	popq	%rbx
	.cfi_remember_state
	.cfi_def_cfa_offset 32
	movl	%edi, %edx
	popq	%rbp
	.cfi_def_cfa_offset 24
	cmovne	%r9, %rax
	popq	%r12
	.cfi_def_cfa_offset 16
	popq	%r13
	.cfi_def_cfa_offset 8
	ret
	.p2align 4
	.p2align 3
.L106:
	.cfi_restore_state
	movl	$-1356044214, %edi
	movl	$-1074, %esi
	jmp	.L99
	.cfi_endproc
.LFE10303:
	.size	_Z11ToDecimal64mm, .-_Z11ToDecimal64mm
	.section	.text._ZNSt13random_deviceD2Ev,"axG",@progbits,_ZNSt13random_deviceD5Ev,comdat
	.align 2
	.p2align 4
	.weak	_ZNSt13random_deviceD2Ev
	.type	_ZNSt13random_deviceD2Ev, @function
_ZNSt13random_deviceD2Ev:
.LFB2611:
	.cfi_startproc
	.cfi_personality 0x9b,DW.ref.__gxx_personality_v0
	.cfi_lsda 0x1b,.LLSDA2611
	endbr64
	subq	$8, %rsp
	.cfi_def_cfa_offset 16
	call	_ZNSt13random_device7_M_finiEv@PLT
	addq	$8, %rsp
	.cfi_def_cfa_offset 8
	ret
	.cfi_endproc
.LFE2611:
	.globl	__gxx_personality_v0
	.section	.gcc_except_table._ZNSt13random_deviceD2Ev,"aG",@progbits,_ZNSt13random_deviceD5Ev,comdat
.LLSDA2611:
	.byte	0xff
	.byte	0xff
	.byte	0x1
	.uleb128 .LLSDACSE2611-.LLSDACSB2611
.LLSDACSB2611:
.LLSDACSE2611:
	.section	.text._ZNSt13random_deviceD2Ev,"axG",@progbits,_ZNSt13random_deviceD5Ev,comdat
	.size	_ZNSt13random_deviceD2Ev, .-_ZNSt13random_deviceD2Ev
	.weak	_ZNSt13random_deviceD1Ev
	.set	_ZNSt13random_deviceD1Ev,_ZNSt13random_deviceD2Ev
	.section	.rodata.str1.1,"aMS",@progbits,1
.LC1:
	.string	"uint32_t log10Pow2(int32_t)"
.LC2:
	.string	"ryu/common.h"
.LC3:
	.string	"e <= 1650"
	.text
	.p2align 4
	.type	_ZL9log10Pow2i.part.0, @function
_ZL9log10Pow2i.part.0:
.LFB11554:
	.cfi_startproc
	pushq	%rax
	.cfi_def_cfa_offset 16
	popq	%rax
	.cfi_def_cfa_offset 8
	leaq	.LC1(%rip), %rcx
	subq	$8, %rsp
	.cfi_def_cfa_offset 16
	movl	$90, %edx
	leaq	.LC2(%rip), %rsi
	leaq	.LC3(%rip), %rdi
	call	__assert_fail@PLT
	.cfi_endproc
.LFE11554:
	.size	_ZL9log10Pow2i.part.0, .-_ZL9log10Pow2i.part.0
	.section	.rodata.str1.1
.LC4:
	.string	"uint32_t log10Pow5(int32_t)"
.LC5:
	.string	"e <= 2620"
	.text
	.p2align 4
	.type	_ZL9log10Pow5i.part.0, @function
_ZL9log10Pow5i.part.0:
.LFB11555:
	.cfi_startproc
	pushq	%rax
	.cfi_def_cfa_offset 16
	popq	%rax
	.cfi_def_cfa_offset 8
	leaq	.LC4(%rip), %rcx
	subq	$8, %rsp
	.cfi_def_cfa_offset 16
	movl	$99, %edx
	leaq	.LC2(%rip), %rsi
	leaq	.LC5(%rip), %rdi
	call	__assert_fail@PLT
	.cfi_endproc
.LFE11555:
	.size	_ZL9log10Pow5i.part.0, .-_ZL9log10Pow5i.part.0
	.section	.rodata.str1.1
.LC6:
	.string	"int32_t pow5bits(int32_t)"
.LC7:
	.string	"e <= 3528"
	.text
	.p2align 4
	.type	_ZL8pow5bitsi.part.0, @function
_ZL8pow5bitsi.part.0:
.LFB11556:
	.cfi_startproc
	pushq	%rax
	.cfi_def_cfa_offset 16
	popq	%rax
	.cfi_def_cfa_offset 8
	leaq	.LC6(%rip), %rcx
	subq	$8, %rsp
	.cfi_def_cfa_offset 16
	movl	$78, %edx
	leaq	.LC2(%rip), %rsi
	leaq	.LC7(%rip), %rdi
	call	__assert_fail@PLT
	.cfi_endproc
.LFE11556:
	.size	_ZL8pow5bitsi.part.0, .-_ZL8pow5bitsi.part.0
	.section	.rodata.str1.8,"aMS",@progbits,1
	.align 8
.LC8:
	.string	"uint32_t mulShift32(uint32_t, uint64_t, int32_t)"
	.section	.rodata.str1.1
.LC9:
	.string	"ryu/f2s.c"
.LC10:
	.string	"shiftedSum <= UINT32_MAX"
	.text
	.p2align 4
	.type	_ZL10mulShift32jmi.part.0, @function
_ZL10mulShift32jmi.part.0:
.LFB11558:
	.cfi_startproc
	pushq	%rax
	.cfi_def_cfa_offset 16
	popq	%rax
	.cfi_def_cfa_offset 8
	leaq	.LC8(%rip), %rcx
	subq	$8, %rsp
	.cfi_def_cfa_offset 16
	movl	$112, %edx
	leaq	.LC9(%rip), %rsi
	leaq	.LC10(%rip), %rdi
	call	__assert_fail@PLT
	.cfi_endproc
.LFE11558:
	.size	_ZL10mulShift32jmi.part.0, .-_ZL10mulShift32jmi.part.0
	.section	.rodata.str1.8
	.align 8
.LC11:
	.string	"bool is_multiple_of_pow5(int32_t, uint64_t)"
	.section	.rodata.str1.1
.LC12:
	.string	"teju/generated/../teju.h"
	.section	.rodata.str1.8
	.align 8
.LC13:
	.string	"0 <= f && (uint32_t) f < sizeof(minverse) / sizeof(minverse[0])"
	.text
	.p2align 4
	.type	is_multiple_of_pow5.part.0, @function
is_multiple_of_pow5.part.0:
.LFB11559:
	.cfi_startproc
	pushq	%rax
	.cfi_def_cfa_offset 16
	popq	%rax
	.cfi_def_cfa_offset 8
	leaq	.LC11(%rip), %rcx
	subq	$8, %rsp
	.cfi_def_cfa_offset 16
	movl	$64, %edx
	leaq	.LC12(%rip), %rsi
	leaq	.LC13(%rip), %rdi
	call	__assert_fail@PLT
	.cfi_endproc
.LFE11559:
	.size	is_multiple_of_pow5.part.0, .-is_multiple_of_pow5.part.0
	.section	.rodata.str1.8
	.align 8
.LC14:
	.string	"uint32_t decimalLength17(uint64_t)"
	.section	.rodata.str1.1
.LC15:
	.string	"ryu/d2s.c"
.LC16:
	.string	"v < 100000000000000000L"
	.text
	.p2align 4
	.type	_ZL8to_chars19floating_decimal_64bPc.isra.0, @function
_ZL8to_chars19floating_decimal_64bPc.isra.0:
.LFB11568:
	.cfi_startproc
	pushq	%r15
	.cfi_def_cfa_offset 16
	.cfi_offset 15, -16
	pushq	%r14
	.cfi_def_cfa_offset 24
	.cfi_offset 14, -24
	pushq	%r13
	.cfi_def_cfa_offset 32
	.cfi_offset 13, -32
	pushq	%r12
	.cfi_def_cfa_offset 40
	.cfi_offset 12, -40
	pushq	%rbp
	.cfi_def_cfa_offset 48
	.cfi_offset 6, -48
	pushq	%rbx
	.cfi_def_cfa_offset 56
	.cfi_offset 3, -56
	subq	$72, %rsp
	.cfi_def_cfa_offset 128
	movl	%esi, 12(%rsp)
	testb	%dl, %dl
	je	.L142
	movl	$18, %esi
	movl	$13, %r10d
	movl	$15, %r11d
	movl	$12, %r12d
	movl	$14, %r14d
	movl	$16, %r15d
	movl	$17, %ebx
	movl	$11, %r9d
	movl	$10, %r13d
	movl	$4, %eax
	movl	$2, %r8d
	movl	$2, %edx
	movb	$45, (%rcx)
	movq	$5, 56(%rsp)
	movq	$8, 40(%rsp)
	movq	$6, 48(%rsp)
	movq	$9, (%rsp)
	movq	$7, 32(%rsp)
	movq	$0, 24(%rsp)
	movq	$1, 16(%rsp)
	movl	$1, 8(%rsp)
.L122:
	movabsq	$99999999999999999, %rbp
	cmpq	%rdi, %rbp
	jb	.L163
	movabsq	$9999999999999999, %rbp
	cmpq	%rdi, %rbp
	jb	.L143
	movabsq	$999999999999999, %rsi
	cmpq	%rdi, %rsi
	jb	.L144
	movabsq	$99999999999999, %rsi
	cmpq	%rdi, %rsi
	jb	.L145
	movabsq	$9999999999999, %rsi
	cmpq	%rdi, %rsi
	jb	.L146
	movabsq	$999999999999, %rsi
	cmpq	%rdi, %rsi
	jb	.L147
	movabsq	$99999999999, %rsi
	cmpq	%rdi, %rsi
	jb	.L148
	movabsq	$9999999999, %rsi
	cmpq	%rdi, %rsi
	jb	.L149
	cmpq	$999999999, %rdi
	ja	.L125
	cmpq	$99999999, %rdi
	ja	.L150
	cmpq	$9999999, %rdi
	ja	.L151
	cmpq	$999999, %rdi
	ja	.L152
	cmpq	$99999, %rdi
	ja	.L153
	cmpq	$9999, %rdi
	ja	.L154
	cmpq	$999, %rdi
	ja	.L155
	cmpq	$99, %rdi
	ja	.L156
	cmpq	$9, %rdi
	ja	.L164
	movq	16(%rsp), %rax
	addl	$48, %edi
	movl	$1, %r12d
	movb	%dil, (%rcx,%rax)
	jmp	.L136
	.p2align 4
	.p2align 3
.L142:
	movl	$17, %esi
	movl	$12, %r10d
	movl	$14, %r11d
	movl	$11, %r12d
	movl	$13, %r14d
	movl	$15, %r15d
	movl	$16, %ebx
	movl	$10, %r9d
	movl	$9, %r13d
	movl	$3, %eax
	movl	$1, %r8d
	movl	$1, %edx
	movq	$4, 56(%rsp)
	movq	$7, 40(%rsp)
	movq	$5, 48(%rsp)
	movq	$8, (%rsp)
	movq	$6, 32(%rsp)
	movq	$-1, 24(%rsp)
	movq	$0, 16(%rsp)
	movl	$0, 8(%rsp)
	jmp	.L122
	.p2align 4
	.p2align 3
.L143:
	movl	$17, %r12d
	movq	$17, 32(%rsp)
	movl	$17, (%rsp)
.L124:
	movabsq	$-6067343680855748867, %rax
	movl	$3518437209, %r13d
	mulq	%rdi
	movl	%edi, %eax
	shrq	$26, %rdx
	imull	$100000000, %edx, %r14d
	movl	%edx, %ebp
	subl	%r14d, %eax
	movl	%eax, %r14d
	imulq	%r13, %r14
	movq	%r14, %r15
	shrq	$45, %r15
	imull	$10000, %r15d, %r15d
	shrq	$45, %r14
	subl	%r15d, %eax
	movl	%eax, %r15d
	movl	%r14d, %eax
	imulq	%r13, %rax
	shrq	$45, %rax
	imull	$10000, %eax, %r13d
	movl	%r14d, %eax
	movl	%r15d, %r14d
	imulq	$1374389535, %r14, %r14
	subl	%r13d, %eax
	shrq	$37, %r14
	imull	$100, %r14d, %r13d
	addl	%r14d, %r14d
	subl	%r13d, %r15d
	leaq	_ZL11DIGIT_TABLE(%rip), %r13
	addl	%r15d, %r15d
	movl	%r15d, %r15d
	movzwl	0(%r13,%r15), %r15d
	movw	%r15w, (%rcx,%rbx)
	movzwl	0(%r13,%r14), %ebx
	movw	%bx, (%rcx,%r11)
	movl	%eax, %r11d
	imulq	$1374389535, %r11, %r11
	shrq	$37, %r11
	imull	$100, %r11d, %ebx
	addl	%r11d, %r11d
	subl	%ebx, %eax
	addl	%eax, %eax
	movl	%eax, %eax
	movzwl	0(%r13,%rax), %eax
	movw	%ax, (%rcx,%r10)
	movzwl	0(%r13,%r11), %eax
	movw	%ax, (%rcx,%r9)
	movabsq	$999999999999, %rax
	cmpq	%rdi, %rax
	movl	$8, %edi
	jnb	.L132
.L126:
	movl	$3518437209, %ebx
	.p2align 4
	.p2align 3
.L133:
	movl	%ebp, %eax
	movl	%ebp, %r10d
	imulq	%rbx, %rax
	movq	%rax, %rdx
	shrq	$45, %rdx
	imull	$10000, %edx, %r9d
	movl	%ebp, %edx
	shrq	$45, %rax
	subl	%r9d, %edx
	movq	%rax, %rbp
	movq	%rsi, %r9
	movl	%edi, %eax
	subq	%rax, %r9
	movl	%edx, %eax
	addl	$4, %edi
	imulq	$1374389535, %rax, %rax
	shrq	$37, %rax
	imull	$100, %eax, %r11d
	addl	%eax, %eax
	subl	%r11d, %edx
	addl	%edx, %edx
	movl	%edx, %edx
	movzwl	0(%r13,%rdx), %edx
	movw	%dx, -1(%rcx,%r9)
	movzwl	0(%r13,%rax), %eax
	movw	%ax, -3(%rcx,%r9)
	cmpl	$99999999, %r10d
	ja	.L133
	cmpl	$999999, %r10d
	ja	.L129
.L130:
	cmpl	$9, %ebp
	ja	.L165
	movq	16(%rsp), %rax
	addl	$48, %ebp
	movb	%bpl, (%rcx,%rax)
.L135:
	movl	8(%rsp), %eax
	movl	(%rsp), %ebx
	movb	$46, (%rcx,%r8)
	leal	1(%rax,%rbx), %r8d
	movq	%r8, %rdx
.L136:
	movl	12(%rsp), %ebx
	leal	1(%rdx), %eax
	movb	$69, (%rcx,%r8)
	leal	-1(%r12,%rbx), %esi
	leal	(%rbx,%r12), %edi
	testl	%esi, %esi
	jns	.L137
	cltq
	movl	$1, %esi
	movb	$45, (%rcx,%rax)
	subl	%edi, %esi
	leal	2(%rdx), %eax
.L137:
	movslq	%eax, %rdi
	leaq	(%rcx,%rdi), %r8
	cmpl	$99, %esi
	jg	.L166
	cmpl	$9, %esi
	jg	.L167
	addl	$48, %esi
	incl	%eax
	movb	%sil, (%r8)
	addq	$72, %rsp
	.cfi_remember_state
	.cfi_def_cfa_offset 56
	popq	%rbx
	.cfi_def_cfa_offset 48
	popq	%rbp
	.cfi_def_cfa_offset 40
	popq	%r12
	.cfi_def_cfa_offset 32
	popq	%r13
	.cfi_def_cfa_offset 24
	popq	%r14
	.cfi_def_cfa_offset 16
	popq	%r15
	.cfi_def_cfa_offset 8
	ret
	.p2align 4
	.p2align 3
.L165:
	.cfi_restore_state
	leaq	_ZL11DIGIT_TABLE(%rip), %r13
.L141:
	movl	(%rsp), %ebx
	addl	%ebp, %ebp
	movl	8(%rsp), %eax
	leal	1(%rbp), %edx
	movzbl	0(%r13,%rdx), %edx
	addl	%ebx, %eax
	movq	16(%rsp), %rbx
	subl	%edi, %eax
	movb	%dl, (%rcx,%rax)
	movzbl	0(%r13,%rbp), %eax
	movb	%al, (%rcx,%rbx)
	jmp	.L135
	.p2align 4
	.p2align 3
.L166:
	movl	%esi, %edx
	movl	$3435973837, %r9d
	leaq	_ZL11DIGIT_TABLE(%rip), %r10
	addl	$3, %eax
	imulq	%r9, %rdx
	shrq	$35, %rdx
	leal	(%rdx,%rdx), %r9d
	leal	(%rdx,%rdx,4), %edx
	movslq	%r9d, %r9
	addl	%edx, %edx
	movzwl	(%r10,%r9), %r9d
	subl	%edx, %esi
	addl	$48, %esi
	movw	%r9w, (%r8)
	movb	%sil, 2(%rcx,%rdi)
	addq	$72, %rsp
	.cfi_remember_state
	.cfi_def_cfa_offset 56
	popq	%rbx
	.cfi_def_cfa_offset 48
	popq	%rbp
	.cfi_def_cfa_offset 40
	popq	%r12
	.cfi_def_cfa_offset 32
	popq	%r13
	.cfi_def_cfa_offset 24
	popq	%r14
	.cfi_def_cfa_offset 16
	popq	%r15
	.cfi_def_cfa_offset 8
	ret
.L132:
	.cfi_restore_state
	cmpl	$99, %edx
	jbe	.L141
	.p2align 4
	.p2align 3
.L129:
	movq	24(%rsp), %rax
	movq	32(%rsp), %rbx
	movl	%edi, %edx
	addl	$2, %edi
	addq	%rbx, %rax
	subq	%rdx, %rax
.L128:
	movl	%ebp, %edx
	movl	%ebp, %esi
	imulq	$1374389535, %rdx, %rdx
	shrq	$37, %rdx
	imull	$100, %edx, %r9d
	movl	%edx, %ebp
	subl	%r9d, %esi
	leal	(%rsi,%rsi), %edx
	movzwl	0(%r13,%rdx), %edx
	movw	%dx, (%rcx,%rax)
	jmp	.L130
	.p2align 4
	.p2align 3
.L167:
	addl	%esi, %esi
	leaq	_ZL11DIGIT_TABLE(%rip), %rdx
	addl	$2, %eax
	movslq	%esi, %rsi
	movzwl	(%rdx,%rsi), %edx
	movw	%dx, (%r8)
	addq	$72, %rsp
	.cfi_remember_state
	.cfi_def_cfa_offset 56
	popq	%rbx
	.cfi_def_cfa_offset 48
	popq	%rbp
	.cfi_def_cfa_offset 40
	popq	%r12
	.cfi_def_cfa_offset 32
	popq	%r13
	.cfi_def_cfa_offset 24
	popq	%r14
	.cfi_def_cfa_offset 16
	popq	%r15
	.cfi_def_cfa_offset 8
	ret
	.p2align 4
	.p2align 3
.L145:
	.cfi_restore_state
	movq	%r11, %rbx
	movq	%r15, %rsi
	movq	%r10, %r11
	movl	$15, %r12d
	movq	%r9, %r10
	movq	$15, 32(%rsp)
	movq	(%rsp), %r9
	movl	$15, (%rsp)
	jmp	.L124
	.p2align 4
	.p2align 3
.L144:
	movq	%r12, %r10
	movq	%rbx, %rsi
	movq	%r13, %r9
	movq	%r14, %r11
	movq	%r15, %rbx
	movl	$16, %r12d
	movq	$16, 32(%rsp)
	movl	$16, (%rsp)
	jmp	.L124
	.p2align 4
	.p2align 3
.L146:
	movq	%r11, %rsi
	movq	40(%rsp), %r9
	movq	%r12, %r11
	movq	%r13, %r10
	movq	%r14, %rbx
	movl	$14, %r12d
	movq	$14, 32(%rsp)
	movl	$14, (%rsp)
	jmp	.L124
.L147:
	movq	%r9, %r11
	movq	%r10, %rbx
	movq	32(%rsp), %r9
	movq	(%rsp), %r10
	movq	%r14, %rsi
	movl	$13, %r12d
	movq	$13, 32(%rsp)
	movl	$13, (%rsp)
	jmp	.L124
.L148:
	movq	%r12, %rbx
	movq	%r10, %rsi
	movq	48(%rsp), %r9
	movq	40(%rsp), %r10
	movq	%r13, %r11
	movl	$12, %r12d
	movq	$12, 32(%rsp)
	movl	$12, (%rsp)
	jmp	.L124
.L149:
	movq	32(%rsp), %r10
	movq	(%rsp), %r11
	movq	%r9, %rbx
	movq	%r12, %rsi
	movq	56(%rsp), %r9
	movl	$11, %r12d
	movq	$11, 32(%rsp)
	movl	$11, (%rsp)
	jmp	.L124
.L154:
	movq	48(%rsp), %rax
	movl	$5, %r12d
	movq	$5, 32(%rsp)
	movl	$5, (%rsp)
	movq	%rax, 40(%rsp)
.L127:
	movl	%edi, %ebp
	movq	40(%rsp), %rsi
	xorl	%edi, %edi
	leaq	_ZL11DIGIT_TABLE(%rip), %r13
	jmp	.L126
.L125:
	movq	%rdi, %rbx
	shrq	$32, %rbx
	jne	.L168
	movl	%edi, %ebp
	movq	%r9, %rsi
	movl	$10, %r12d
	xorl	%edi, %edi
	leaq	_ZL11DIGIT_TABLE(%rip), %r13
	movq	$10, 32(%rsp)
	movl	$10, (%rsp)
	jmp	.L126
.L150:
	movq	%r13, %rsi
	movl	%edi, %ebp
	movl	$9, %r12d
	xorl	%edi, %edi
	leaq	_ZL11DIGIT_TABLE(%rip), %r13
	movq	$9, 32(%rsp)
	movl	$9, (%rsp)
	jmp	.L126
.L151:
	movq	(%rsp), %rsi
	movl	%edi, %ebp
	movl	$8, %r12d
	xorl	%edi, %edi
	leaq	_ZL11DIGIT_TABLE(%rip), %r13
	movq	$8, 32(%rsp)
	movl	$8, (%rsp)
	jmp	.L126
.L152:
	movl	$7, %r12d
	movq	$7, 32(%rsp)
	movl	$7, (%rsp)
	jmp	.L127
.L153:
	movq	32(%rsp), %rsi
	movl	%edi, %ebp
	movl	$6, %r12d
	xorl	%edi, %edi
	leaq	_ZL11DIGIT_TABLE(%rip), %r13
	movq	$6, 32(%rsp)
	movl	$6, (%rsp)
	jmp	.L126
.L155:
	movl	%edi, %ebp
	movl	$4, %r12d
	movl	$2, %edi
	leaq	_ZL11DIGIT_TABLE(%rip), %r13
	movl	$4, (%rsp)
	jmp	.L128
.L156:
	movl	%edi, %ebp
	movl	$3, %r12d
	xorl	%edi, %edi
	leaq	_ZL11DIGIT_TABLE(%rip), %r13
	movq	$3, 32(%rsp)
	movl	$3, (%rsp)
	jmp	.L129
.L164:
	movl	%edi, %ebp
	movl	$2, %r12d
	xorl	%edi, %edi
	movl	$2, (%rsp)
	jmp	.L130
.L168:
	movq	%r9, %rsi
	movq	48(%rsp), %r10
	movq	40(%rsp), %r11
	movq	%r13, %rbx
	movq	%rax, %r9
	movl	$10, %r12d
	movq	$10, 32(%rsp)
	movl	$10, (%rsp)
	jmp	.L124
.L163:
	leaq	.LC14(%rip), %rcx
	movl	$69, %edx
	leaq	.LC15(%rip), %rsi
	leaq	.LC16(%rip), %rdi
	call	__assert_fail@PLT
	.cfi_endproc
.LFE11568:
	.size	_ZL8to_chars19floating_decimal_64bPc.isra.0, .-_ZL8to_chars19floating_decimal_64bPc.isra.0
	.section	.text._ZNSt6vectorISt4pairINSt7__cxx1112basic_stringIcSt11char_traitsIcESaIcEEEPFvfPjPiEESaISB_EED2Ev,"axG",@progbits,_ZNSt6vectorISt4pairINSt7__cxx1112basic_stringIcSt11char_traitsIcESaIcEEEPFvfPjPiEESaISB_EED5Ev,comdat
	.align 2
	.p2align 4
	.weak	_ZNSt6vectorISt4pairINSt7__cxx1112basic_stringIcSt11char_traitsIcESaIcEEEPFvfPjPiEESaISB_EED2Ev
	.type	_ZNSt6vectorISt4pairINSt7__cxx1112basic_stringIcSt11char_traitsIcESaIcEEEPFvfPjPiEESaISB_EED2Ev, @function
_ZNSt6vectorISt4pairINSt7__cxx1112basic_stringIcSt11char_traitsIcESaIcEEEPFvfPjPiEESaISB_EED2Ev:
.LFB11543:
	.cfi_startproc
	endbr64
	pushq	%r12
	.cfi_def_cfa_offset 16
	.cfi_offset 12, -16
	pushq	%rbp
	.cfi_def_cfa_offset 24
	.cfi_offset 6, -24
	pushq	%rbx
	.cfi_def_cfa_offset 32
	.cfi_offset 3, -32
	movq	%rdi, %r12
	movq	8(%rdi), %rbp
	movq	(%rdi), %rbx
	cmpq	%rbx, %rbp
	je	.L170
	.p2align 4
	.p2align 3
.L174:
	movq	(%rbx), %rdi
	leaq	16(%rbx), %rax
	cmpq	%rax, %rdi
	je	.L171
	movq	16(%rbx), %rax
	addq	$40, %rbx
	leaq	1(%rax), %rsi
	call	_ZdlPvm@PLT
	cmpq	%rbx, %rbp
	jne	.L174
.L173:
	movq	(%r12), %rbx
.L170:
	testq	%rbx, %rbx
	je	.L176
	movq	16(%r12), %rsi
	movq	%rbx, %rdi
	subq	%rbx, %rsi
	popq	%rbx
	.cfi_remember_state
	.cfi_def_cfa_offset 24
	popq	%rbp
	.cfi_def_cfa_offset 16
	popq	%r12
	.cfi_def_cfa_offset 8
	jmp	_ZdlPvm@PLT
	.p2align 4
	.p2align 3
.L171:
	.cfi_restore_state
	addq	$40, %rbx
	cmpq	%rbx, %rbp
	jne	.L174
	jmp	.L173
	.p2align 4
	.p2align 3
.L176:
	popq	%rbx
	.cfi_def_cfa_offset 24
	popq	%rbp
	.cfi_def_cfa_offset 16
	popq	%r12
	.cfi_def_cfa_offset 8
	ret
	.cfi_endproc
.LFE11543:
	.size	_ZNSt6vectorISt4pairINSt7__cxx1112basic_stringIcSt11char_traitsIcESaIcEEEPFvfPjPiEESaISB_EED2Ev, .-_ZNSt6vectorISt4pairINSt7__cxx1112basic_stringIcSt11char_traitsIcESaIcEEEPFvfPjPiEESaISB_EED2Ev
	.weak	_ZNSt6vectorISt4pairINSt7__cxx1112basic_stringIcSt11char_traitsIcESaIcEEEPFvfPjPiEESaISB_EED1Ev
	.set	_ZNSt6vectorISt4pairINSt7__cxx1112basic_stringIcSt11char_traitsIcESaIcEEEPFvfPjPiEESaISB_EED1Ev,_ZNSt6vectorISt4pairINSt7__cxx1112basic_stringIcSt11char_traitsIcESaIcEEEPFvfPjPiEESaISB_EED2Ev
	.section	.text._ZNSt6vectorISt4pairINSt7__cxx1112basic_stringIcSt11char_traitsIcESaIcEEEPFvdPyPiEESaISB_EED2Ev,"axG",@progbits,_ZNSt6vectorISt4pairINSt7__cxx1112basic_stringIcSt11char_traitsIcESaIcEEEPFvdPyPiEESaISB_EED5Ev,comdat
	.align 2
	.p2align 4
	.weak	_ZNSt6vectorISt4pairINSt7__cxx1112basic_stringIcSt11char_traitsIcESaIcEEEPFvdPyPiEESaISB_EED2Ev
	.type	_ZNSt6vectorISt4pairINSt7__cxx1112basic_stringIcSt11char_traitsIcESaIcEEEPFvdPyPiEESaISB_EED2Ev, @function
_ZNSt6vectorISt4pairINSt7__cxx1112basic_stringIcSt11char_traitsIcESaIcEEEPFvdPyPiEESaISB_EED2Ev:
.LFB11540:
	.cfi_startproc
	endbr64
	pushq	%r12
	.cfi_def_cfa_offset 16
	.cfi_offset 12, -16
	pushq	%rbp
	.cfi_def_cfa_offset 24
	.cfi_offset 6, -24
	pushq	%rbx
	.cfi_def_cfa_offset 32
	.cfi_offset 3, -32
	movq	%rdi, %r12
	movq	8(%rdi), %rbp
	movq	(%rdi), %rbx
	cmpq	%rbx, %rbp
	je	.L179
	.p2align 4
	.p2align 3
.L183:
	movq	(%rbx), %rdi
	leaq	16(%rbx), %rax
	cmpq	%rax, %rdi
	je	.L180
	movq	16(%rbx), %rax
	addq	$40, %rbx
	leaq	1(%rax), %rsi
	call	_ZdlPvm@PLT
	cmpq	%rbx, %rbp
	jne	.L183
.L182:
	movq	(%r12), %rbx
.L179:
	testq	%rbx, %rbx
	je	.L185
	movq	16(%r12), %rsi
	movq	%rbx, %rdi
	subq	%rbx, %rsi
	popq	%rbx
	.cfi_remember_state
	.cfi_def_cfa_offset 24
	popq	%rbp
	.cfi_def_cfa_offset 16
	popq	%r12
	.cfi_def_cfa_offset 8
	jmp	_ZdlPvm@PLT
	.p2align 4
	.p2align 3
.L180:
	.cfi_restore_state
	addq	$40, %rbx
	cmpq	%rbx, %rbp
	jne	.L183
	jmp	.L182
	.p2align 4
	.p2align 3
.L185:
	popq	%rbx
	.cfi_def_cfa_offset 24
	popq	%rbp
	.cfi_def_cfa_offset 16
	popq	%r12
	.cfi_def_cfa_offset 8
	ret
	.cfi_endproc
.LFE11540:
	.size	_ZNSt6vectorISt4pairINSt7__cxx1112basic_stringIcSt11char_traitsIcESaIcEEEPFvdPyPiEESaISB_EED2Ev, .-_ZNSt6vectorISt4pairINSt7__cxx1112basic_stringIcSt11char_traitsIcESaIcEEEPFvdPyPiEESaISB_EED2Ev
	.weak	_ZNSt6vectorISt4pairINSt7__cxx1112basic_stringIcSt11char_traitsIcESaIcEEEPFvdPyPiEESaISB_EED1Ev
	.set	_ZNSt6vectorISt4pairINSt7__cxx1112basic_stringIcSt11char_traitsIcESaIcEEEPFvdPyPiEESaISB_EED1Ev,_ZNSt6vectorISt4pairINSt7__cxx1112basic_stringIcSt11char_traitsIcESaIcEEEPFvdPyPiEESaISB_EED2Ev
	.section	.rodata.str1.1
.LC17:
	.string	"e >= 0"
.LC18:
	.string	"uint32_t pow5Factor(uint64_t)"
.LC19:
	.string	"ryu/d2s_intrinsics.h"
.LC20:
	.string	"value != 0"
	.section	.rodata.str1.8
	.align 8
.LC21:
	.string	"bool multipleOfPowerOf2(uint64_t, uint32_t)"
	.text
	.p2align 4
	.type	_ZL3d2dmj, @function
_ZL3d2dmj:
.LFB10467:
	.cfi_startproc
	pushq	%r15
	.cfi_def_cfa_offset 16
	.cfi_offset 15, -16
	movq	%rdi, %rax
	pushq	%r14
	.cfi_def_cfa_offset 24
	.cfi_offset 14, -24
	pushq	%r13
	.cfi_def_cfa_offset 32
	.cfi_offset 13, -32
	pushq	%r12
	.cfi_def_cfa_offset 40
	.cfi_offset 12, -40
	pushq	%rbp
	.cfi_def_cfa_offset 48
	.cfi_offset 6, -48
	pushq	%rbx
	.cfi_def_cfa_offset 56
	.cfi_offset 3, -56
	andl	$1, %eax
	subq	$24, %rsp
	.cfi_def_cfa_offset 80
	movq	%rdi, %r9
	movq	%rax, 8(%rsp)
	testl	%esi, %esi
	jne	.L188
	leaq	0(,%rdi,4), %r12
	movl	$1, %r13d
	movl	$57, %ecx
	movl	$5200, %r8d
	movl	$1, %edi
	movl	$-325, %ebp
	movl	$751, %ebx
.L189:
	leaq	_ZL17DOUBLE_POW5_SPLIT(%rip), %rax
	leaq	2(%r12), %rdx
	addq	%rax, %r8
	movq	%rdx, %rax
	movq	(%r8), %rsi
	movq	8(%r8), %r14
	mulx	%r14, %r10, %r11
	mulq	%rsi
	movq	%rsi, %rax
	addq	%rdx, %r10
	leaq	-1(%r12), %rdx
	adcq	$0, %r11
	shrdq	%r11, %r10
	shrx	%rcx, %r11, %r11
	testb	$64, %cl
	cmovne	%r11, %r10
	subq	%r13, %rdx
	movq	%r10, %r8
	mulx	%r14, %r10, %r11
	mulq	%rdx
	movq	%rsi, %rax
	addq	%rdx, %r10
	movq	%r14, %rdx
	adcq	$0, %r11
	mulx	%r12, %r14, %r15
	shrdq	%r11, %r10
	shrx	%rcx, %r11, %r11
	testb	$64, %cl
	cmovne	%r11, %r10
	mulq	%r12
	addq	%rdx, %r14
	adcq	$0, %r15
	shrdq	%r15, %r14
	shrx	%rcx, %r15, %r15
	testb	$64, %cl
	cmovne	%r15, %r14
	movq	%r14, %rsi
	cmpl	$1, %ebx
	jbe	.L245
	cmpl	$62, %ebx
	ja	.L192
	testq	%r12, %r12
	je	.L246
	bzhi	%rbx, %r12, %r12
	testq	%r12, %r12
	movq	%r9, %r15
	sete	%bl
	xorl	%edi, %edi
	movl	%ebx, %eax
.L200:
	testb	%al, %al
	je	.L192
.L207:
	movabsq	$-3689348814741910323, %r11
	movq	%r8, %rax
	mulq	%r11
	movq	%r10, %rax
	movq	%rdx, %r8
	mulq	%r11
	shrq	$3, %r8
	movq	%rdx, %r11
	shrq	$3, %r11
	cmpq	%r8, %r11
	jb	.L208
	movq	%r11, %rcx
	xorl	%r12d, %r12d
	movq	%r10, %r11
	xorl	%r9d, %r9d
	testb	%dil, %dil
	je	.L244
	.p2align 4
	.p2align 3
.L214:
	leal	(%rcx,%rcx,4), %eax
	movabsq	$-3689348814741910323, %r10
	addl	%eax, %eax
	cmpl	%r11d, %eax
	jne	.L244
	.p2align 4
	.p2align 3
.L216:
	movq	%rsi, %rax
	movq	%rsi, %r8
	movq	%rcx, %r11
	mulq	%r10
	movq	%rdx, %rsi
	shrq	$3, %rsi
	testb	%r12b, %r12b
	sete	%al
	incl	%r9d
	andl	%eax, %ebx
	leal	(%rsi,%rsi,4), %eax
	addl	%eax, %eax
	subl	%eax, %r8d
	movq	%rcx, %rax
	mulq	%r10
	movl	%r8d, %r12d
	movq	%rdx, %rcx
	shrq	$3, %rcx
	leal	(%rcx,%rcx,4), %eax
	addl	%eax, %eax
	cmpl	%r11d, %eax
	je	.L216
	cmpb	$5, %r8b
	sete	%al
	addl	%r9d, %ebp
	andl	%eax, %ebx
	testb	%bl, %bl
	je	.L217
.L250:
	testb	$1, %sil
	jne	.L209
	cmpq	%r11, %rsi
	jne	.L221
	movl	%r15d, %eax
	xorl	$1, %edi
	andl	$1, %eax
	orl	%eax, %edi
	movzbl	%dil, %eax
	addq	%rax, %rsi
	jmp	.L221
	.p2align 4
	.p2align 3
.L188:
	movq	%rdi, %r15
	movl	%esi, %edx
	btsq	$52, %r15
	testq	%rdi, %rdi
	setne	%dil
	cmpl	$1, %esi
	leaq	0(,%r15,4), %r12
	setbe	%al
	orl	%eax, %edi
	subl	$1077, %edx
	js	.L190
	imull	$78913, %edx, %ebx
	xorl	%eax, %eax
	shrl	$18, %ebx
	cmpl	$3, %edx
	setg	%al
	subl	%eax, %ebx
	movl	%ebx, %ebp
	cmpl	$-1, %ebx
	je	.L205
	movl	%ebx, %eax
	leaq	_ZL21DOUBLE_POW5_INV_SPLIT(%rip), %rcx
	leaq	2(%r12), %r14
	movzbl	%dil, %edi
	salq	$4, %rax
	addq	%rcx, %rax
	movl	%ebx, %ecx
	movq	8(%rax), %rsi
	movq	(%rax), %r13
	imull	$1217359, %ebx, %eax
	subl	%edx, %ecx
	movq	%r14, %rdx
	shrl	$19, %eax
	leal	61(%rax,%rcx), %ecx
	movq	%r14, %rax
	mulx	%rsi, %r8, %r9
	mulq	%r13
	leaq	-1(%r12), %rax
	addq	%rdx, %r8
	adcq	$0, %r9
	shrdq	%r9, %r8
	shrx	%rcx, %r9, %r9
	testb	$64, %cl
	cmovne	%r9, %r8
	subq	%rdi, %rax
	movq	%rax, %rdx
	movq	%rax, %r9
	mulx	%rsi, %r10, %r11
	mulq	%r13
	movq	%r13, %rax
	addq	%rdx, %r10
	movq	%rsi, %rdx
	adcq	$0, %r11
	mulx	%r12, %rsi, %rdi
	shrdq	%r11, %r10
	shrx	%rcx, %r11, %r11
	testb	$64, %cl
	cmovne	%r11, %r10
	mulq	%r12
	addq	%rdx, %rsi
	adcq	$0, %rdi
	shrdq	%rdi, %rsi
	shrx	%rcx, %rdi, %rdi
	andl	$64, %ecx
	cmovne	%rdi, %rsi
	cmpl	$21, %ebx
	ja	.L192
	movq	%r12, %rax
	movabsq	$-3689348814741910323, %rcx
	mulq	%rcx
	movq	%rdx, %rdi
	shrq	$2, %rdi
	leal	(%rdi,%rdi,4), %eax
	cmpl	%r12d, %eax
	je	.L226
	cmpq	$0, 8(%rsp)
	je	.L247
	movq	%r14, %rax
	xorl	%r9d, %r9d
	mulq	%rcx
	movq	%rdx, %rdi
	shrq	$2, %rdi
	leal	(%rdi,%rdi,4), %eax
	cmpl	%r14d, %eax
	je	.L203
	jmp	.L202
	.p2align 4
	.p2align 3
.L248:
	movq	%rdx, %rdi
.L203:
	incl	%r9d
	testq	%rdi, %rdi
	je	.L199
	movq	%rdi, %rax
	mulq	%rcx
	shrq	$2, %rdx
	leal	(%rdx,%rdx,4), %eax
	cmpl	%edi, %eax
	je	.L248
.L202:
	cmpl	%ebx, %r9d
	adcq	$-1, %r8
.L192:
	movq	%r8, %rcx
	movabsq	$2951479051793528259, %r9
	movq	%r10, %rdi
	shrq	$2, %rcx
	movq	%rcx, %rax
	mulq	%r9
	shrq	$2, %rdi
	movq	%rdi, %rax
	movq	%rdx, %rcx
	mulq	%r9
	shrq	$2, %rcx
	movq	%rdx, %rdi
	shrq	$2, %rdi
	cmpq	%rcx, %rdi
	jnb	.L233
	movq	%rsi, %rdx
	movq	%rdi, %r10
	movq	%rcx, %r8
	movl	$2, %r11d
	shrq	$2, %rdx
	movq	%rdx, %rax
	mulq	%r9
	shrq	$2, %rdx
	imull	$100, %edx, %eax
	subl	%eax, %esi
	cmpl	$49, %esi
	movq	%rdx, %rsi
	seta	%r9b
.L222:
	movq	%r8, %rax
	movabsq	$-3689348814741910323, %rdi
	mulq	%rdi
	movq	%r10, %rax
	movq	%rdx, %r8
	mulq	%rdi
	shrq	$3, %r8
	movq	%rdx, %rcx
	shrq	$3, %rcx
	cmpq	%r8, %rcx
	jnb	.L223
	.p2align 4
	.p2align 3
.L224:
	movq	%rsi, %rax
	movq	%rsi, %r9
	movq	%rcx, %r10
	incl	%r11d
	mulq	%rdi
	movq	%r8, %rax
	movq	%rdx, %rsi
	mulq	%rdi
	movq	%rcx, %rax
	shrq	$3, %rsi
	movq	%rdx, %r8
	mulq	%rdi
	shrq	$3, %r8
	movq	%rdx, %rcx
	shrq	$3, %rcx
	cmpq	%r8, %rcx
	jb	.L224
	leal	(%rsi,%rsi,4), %edx
	movl	%r9d, %eax
	addl	%edx, %edx
	subl	%edx, %eax
	cmpl	$4, %eax
	seta	%r9b
.L223:
	cmpq	%r10, %rsi
	movl	$1, %eax
	cmove	%eax, %r9d
	addl	%r11d, %ebp
	movzbl	%r9b, %r9d
	addq	%r9, %rsi
.L221:
	addq	$24, %rsp
	.cfi_remember_state
	.cfi_def_cfa_offset 56
	movl	%ebp, %edx
	movq	%rsi, %rax
	popq	%rbx
	.cfi_def_cfa_offset 48
	popq	%rbp
	.cfi_def_cfa_offset 40
	popq	%r12
	.cfi_def_cfa_offset 32
	popq	%r13
	.cfi_def_cfa_offset 24
	popq	%r14
	.cfi_def_cfa_offset 16
	popq	%r15
	.cfi_def_cfa_offset 8
	ret
	.p2align 4
	.p2align 3
.L233:
	.cfi_restore_state
	xorl	%r9d, %r9d
	xorl	%r11d, %r11d
	jmp	.L222
	.p2align 4
	.p2align 3
.L245:
	cmpq	$0, 8(%rsp)
	je	.L229
	movabsq	$-3689348814741910323, %rcx
	movq	%r10, %rax
	decq	%r8
	movq	%r9, %r15
	mulq	%rcx
	movq	%r8, %rax
	xorl	%edi, %edi
	movl	$1, %ebx
	shrq	$3, %rdx
	movq	%rdx, %r11
	mulq	%rcx
	movq	%rdx, %r8
	shrq	$3, %r8
	cmpq	%r8, %r11
	jnb	.L249
	.p2align 4
	.p2align 3
.L208:
	xorl	%r12d, %r12d
	xorl	%r9d, %r9d
	movabsq	$-3689348814741910323, %r13
	jmp	.L213
	.p2align 4
	.p2align 3
.L232:
	movq	%rcx, %r11
.L213:
	movq	%rsi, %rax
	movq	%rsi, %rcx
	mulq	%r13
	leal	(%r11,%r11,4), %eax
	addl	%eax, %eax
	movq	%rdx, %rsi
	shrq	$3, %rsi
	cmpl	%r10d, %eax
	movq	%r11, %r10
	sete	%al
	andl	%eax, %edi
	testb	%r12b, %r12b
	movl	%ecx, %r12d
	sete	%al
	incl	%r9d
	andl	%eax, %ebx
	leal	(%rsi,%rsi,4), %eax
	addl	%eax, %eax
	subl	%eax, %r12d
	movq	%r8, %rax
	mulq	%r13
	movq	%r11, %rax
	movq	%rdx, %r8
	mulq	%r13
	shrq	$3, %r8
	movq	%rdx, %rcx
	shrq	$3, %rcx
	cmpq	%r8, %rcx
	jb	.L232
	testb	%dil, %dil
	jne	.L214
.L244:
	cmpb	$5, %r12b
	sete	%al
	addl	%r9d, %ebp
	andl	%eax, %ebx
	testb	%bl, %bl
	jne	.L250
.L217:
	cmpq	%r11, %rsi
	je	.L251
.L210:
	xorl	%eax, %eax
	cmpb	$4, %r12b
	seta	%al
	addq	%rax, %rsi
	jmp	.L221
	.p2align 4
	.p2align 3
.L247:
	movq	%r9, %rax
	mulq	%rcx
	movq	%rdx, %rdi
	shrq	$2, %rdi
	leal	(%rdi,%rdi,4), %eax
	cmpl	%r9d, %eax
	movl	$0, %r9d
	je	.L196
	jmp	.L195
	.p2align 4
	.p2align 3
.L252:
	movq	%rdx, %rdi
.L196:
	incl	%r9d
	testq	%rdi, %rdi
	je	.L199
	movq	%rdi, %rax
	mulq	%rcx
	shrq	$2, %rdx
	leal	(%rdx,%rdx,4), %eax
	cmpl	%edi, %eax
	je	.L252
.L195:
	cmpl	%ebx, %r9d
	setnb	%dil
	xorl	%ebx, %ebx
	movl	%edi, %eax
	jmp	.L200
	.p2align 4
	.p2align 3
.L251:
	testb	%dil, %dil
	je	.L209
	andl	$1, %r15d
	je	.L210
	.p2align 4
	.p2align 3
.L209:
	incq	%rsi
	jmp	.L221
	.p2align 4
	.p2align 3
.L229:
	movq	%r9, %r15
	movl	$1, %ebx
	jmp	.L207
	.p2align 4
	.p2align 3
.L190:
	imull	$-732923, %edx, %eax
	xorl	%ecx, %ecx
	shrl	$20, %eax
	cmpl	$-1, %edx
	setl	%cl
	subl	%ecx, %eax
	movl	%eax, %ebx
	movl	$1077, %eax
	subl	%esi, %eax
	subl	%ebx, %eax
	jns	.L253
.L205:
	leaq	.LC6(%rip), %rcx
	movl	$77, %edx
	leaq	.LC2(%rip), %rsi
	leaq	.LC17(%rip), %rdi
	call	__assert_fail@PLT
	.p2align 4
	.p2align 3
.L226:
	xorl	%r9d, %r9d
	jmp	.L193
	.p2align 4
	.p2align 3
.L254:
	movq	%rdx, %rdi
.L193:
	incl	%r9d
	testq	%rdi, %rdi
	je	.L199
	movq	%rdi, %rax
	mulq	%rcx
	shrq	$2, %rdx
	leal	(%rdx,%rdx,4), %eax
	cmpl	%edi, %eax
	je	.L254
	cmpl	%ebx, %r9d
	setnb	%bl
	xorl	%edi, %edi
	movl	%ebx, %eax
	jmp	.L200
.L249:
	xorl	%r12d, %r12d
	cmpq	%r14, %r10
	jne	.L210
	jmp	.L209
.L199:
	leaq	.LC18(%rip), %rcx
	movl	$193, %edx
	leaq	.LC19(%rip), %rsi
	leaq	.LC20(%rip), %rdi
	call	__assert_fail@PLT
.L246:
	leaq	.LC21(%rip), %rcx
	movl	$213, %edx
	leaq	.LC19(%rip), %rsi
	leaq	.LC20(%rip), %rdi
	call	__assert_fail@PLT
.L253:
	movslq	%eax, %r8
	imull	$1217359, %eax, %eax
	leal	(%rbx,%rdx), %ebp
	movl	%ebx, %edx
	salq	$4, %r8
	shrl	$19, %eax
	subl	%eax, %edx
	movzbl	%dil, %r13d
	movq	%r15, %r9
	leal	60(%rdx), %ecx
	jmp	.L189
	.cfi_endproc
.LFE10467:
	.size	_ZL3d2dmj, .-_ZL3d2dmj
	.p2align 4
	.globl	_Z14ryu_f64_to_decdPyPi
	.type	_Z14ryu_f64_to_decdPyPi, @function
_Z14ryu_f64_to_decdPyPi:
.LFB10484:
	.cfi_startproc
	endbr64
	pushq	%rbp
	.cfi_def_cfa_offset 16
	.cfi_offset 6, -16
	movq	%rdi, %rbp
	vmovq	%xmm0, %rdi
	pushq	%rbx
	.cfi_def_cfa_offset 24
	.cfi_offset 3, -24
	movq	%rsi, %rbx
	movq	%rdi, %rsi
	movabsq	$4503599627370495, %rax
	subq	$8, %rsp
	.cfi_def_cfa_offset 32
	shrq	$52, %rsi
	andq	%rax, %rdi
	andl	$2047, %esi
	call	_ZL3d2dmj
	movq	%rax, 0(%rbp)
	movl	%edx, (%rbx)
	addq	$8, %rsp
	.cfi_def_cfa_offset 24
	popq	%rbx
	.cfi_def_cfa_offset 16
	popq	%rbp
	.cfi_def_cfa_offset 8
	ret
	.cfi_endproc
.LFE10484:
	.size	_Z14ryu_f64_to_decdPyPi, .-_Z14ryu_f64_to_decdPyPi
	.p2align 4
	.globl	_Z24schubfach_xjb_f64_to_decdPyPi
	.type	_Z24schubfach_xjb_f64_to_decdPyPi, @function
_Z24schubfach_xjb_f64_to_decdPyPi:
.LFB10404:
	.cfi_startproc
	endbr64
	pushq	%rbp
	.cfi_def_cfa_offset 16
	.cfi_offset 6, -16
	vmovq	%xmm0, %rcx
	movq	%rsp, %rbp
	.cfi_def_cfa_register 6
	pushq	%r15
	pushq	%r14
	.cfi_offset 15, -24
	.cfi_offset 14, -32
	movq	%rdi, %r14
	movabsq	$4503599627370495, %rdi
	pushq	%r13
	pushq	%r12
	pushq	%rbx
	andq	%rcx, %rdi
	andq	$-32, %rsp
	shrq	$52, %rcx
	andl	$2047, %ecx
	.cfi_offset 13, -40
	.cfi_offset 12, -48
	.cfi_offset 3, -56
	movq	%rdi, %rbx
	movq	%rsi, -24(%rsp)
	je	.L264
	subl	$1075, %ecx
	btsq	$52, %rbx
	imull	$1262611, %ecx, %esi
.L258:
	leaq	0(,%rbx,4), %r15
	cmpq	$1, %rdi
	leal	-524031(%rsi), %edx
	movl	$292, %r10d
	movq	%r15, %rax
	leaq	2(%r15), %r9
	adcq	$-2, %rax
	sarl	$22, %edx
	sarl	$22, %esi
	testq	%rdi, %rdi
	cmove	%edx, %esi
	imull	$-1741647, %esi, %edx
	subl	%esi, %r10d
	movslq	%r10d, %r10
	salq	$4, %r10
	sarl	$19, %edx
	leal	1(%rcx,%rdx), %r13d
	leaq	_ZZN3xjbL19ComputePow10_DoubleEiE1g(%rip), %rdx
	addq	%rdx, %r10
	shlx	%r13, %rax, %rax
	movq	%rax, %rdx
	shlx	%r13, %r15, %r15
	movq	8(%r10), %r12
	movq	(%r10), %r8
	mulx	%r8, %r10, %r11
	mulq	%r12
	movq	%r12, %rax
	addq	%rdx, %r10
	movq	%r8, %rdx
	adcq	$0, %r11
	movq	%r10, -16(%rsp)
	movq	%r11, -8(%rsp)
	mulx	%r15, %r10, %r11
	mulq	%r15
	movq	%r10, %rax
	movq	%rdx, %r15
	movq	%r11, %rdx
	addq	%r15, %rax
	adcq	$0, %rdx
	xorl	%r11d, %r11d
	cmpq	$1, %rax
	movq	%r12, %rax
	seta	%r11b
	movq	%rdx, %r10
	movq	-16(%rsp), %r12
	orq	%rdx, %r11
	shlx	%r13, %r9, %rdx
	mulx	%r8, %r8, %r9
	movq	$-3, %r13
	mulq	%rdx
	movq	-8(%rsp), %rax
	addq	%rdx, %r8
	adcq	$0, %r9
	cmpq	$1, %r8
	seta	%r8b
	andl	$1, %ebx
	movzbl	%r8b, %r8d
	orq	%r9, %r8
	cmpq	$1, %r12
	seta	%r12b
	andl	$7, %r11d
	subq	%rbx, %r13
	shrq	$2, %r10
	movzbl	%r12b, %r12d
	orq	%rax, %r12
	movabsq	$1844674407370955162, %rax
	mulq	%r10
	movl	$200, %eax
	addq	%rbx, %r12
	sarx	%r11d, %eax, %eax
	andl	$1, %eax
	addq	%r10, %rax
	leaq	0(,%rdx,4), %r9
	leaq	(%r9,%rdx), %rbx
	addq	%rbx, %rbx
	testq	%rdi, %rdi
	je	.L267
.L261:
	addq	%rdx, %r9
	salq	$3, %r9
	cmpq	%r12, %r9
	cmovnb	%rbx, %rax
	addq	%r13, %r8
	addq	$37, %r9
	addq	$10, %rbx
	cmpq	%r9, %r8
	cmovnb	%rbx, %rax
	movq	%rax, (%r14)
	movq	-24(%rsp), %rax
	movl	%esi, (%rax)
	leaq	-40(%rbp), %rsp
	popq	%rbx
	popq	%r12
	popq	%r13
	popq	%r14
	popq	%r15
	popq	%rbp
	.cfi_remember_state
	.cfi_def_cfa 7, 8
	ret
	.p2align 4
	.p2align 3
.L267:
	.cfi_restore_state
	movl	$1, %edi
	vpbroadcastw	%ecx, %ymm1
	vpbroadcastw	%edi, %ymm0
	vpcmpeqw	.LC22(%rip), %ymm1, %ymm1
	vpand	%ymm0, %ymm1, %ymm1
	vpmovzxwd	%xmm1, %ymm0
	vextracti128	$0x1, %ymm1, %xmm1
	vpmovzxwd	%xmm1, %ymm1
	vextracti128	$0x1, %ymm0, %xmm2
	vpmovzxdq	%xmm0, %ymm0
	vpmovzxdq	%xmm2, %ymm2
	vpaddq	%ymm0, %ymm2, %ymm2
	vpmovzxdq	%xmm1, %ymm0
	vextracti128	$0x1, %ymm1, %xmm1
	vpmovzxdq	%xmm1, %ymm1
	vpaddq	%ymm2, %ymm0, %ymm0
	vpbroadcastw	%ecx, %xmm2
	vpaddq	%ymm0, %ymm1, %ymm1
	vpcmpeqw	.LC24(%rip), %xmm2, %xmm2
	vpbroadcastw	%edi, %xmm0
	vpand	%xmm0, %xmm2, %xmm2
	vpmovzxwd	%xmm2, %xmm3
	vpsrldq	$8, %xmm2, %xmm2
	vpmovzxwd	%xmm2, %xmm2
	vpsrldq	$8, %xmm3, %xmm0
	vpmovzxdq	%xmm3, %xmm3
	vpmovzxdq	%xmm0, %xmm0
	vpaddq	%xmm3, %xmm0, %xmm0
	vpmovzxdq	%xmm2, %xmm3
	vpsrldq	$8, %xmm2, %xmm2
	vpmovzxdq	%xmm2, %xmm2
	vpaddq	%xmm3, %xmm0, %xmm0
	vpaddq	%xmm2, %xmm0, %xmm0
	vpaddq	%xmm1, %xmm0, %xmm0
	vextracti64x2	$0x1, %ymm1, %xmm1
	vpaddq	%xmm1, %xmm0, %xmm0
	vpsrldq	$8, %xmm0, %xmm1
	vpaddq	%xmm1, %xmm0, %xmm0
	vmovq	%xmm0, %rdi
	addq	%rax, %rdi
	xorl	%eax, %eax
	cmpw	$811, %cx
	sete	%al
	cmpw	$924, %cx
	sete	%cl
	movzbl	%cl, %ecx
	addq	%rcx, %rax
	addq	%rdi, %rax
	vzeroupper
	jmp	.L261
	.p2align 4
	.p2align 3
.L264:
	movl	$-1356044214, %esi
	movl	$-1074, %ecx
	jmp	.L258
	.cfi_endproc
.LFE10404:
	.size	_Z24schubfach_xjb_f64_to_decdPyPi, .-_Z24schubfach_xjb_f64_to_decdPyPi
	.p2align 4
	.globl	_Z20schubfach_f32_to_decfPjPi
	.type	_Z20schubfach_f32_to_decfPjPi, @function
_Z20schubfach_f32_to_decfPjPi:
.LFB10343:
	.cfi_startproc
	endbr64
	movq	%rsi, %r11
	vmovd	%xmm0, %esi
	pushq	%r15
	.cfi_def_cfa_offset 16
	.cfi_offset 15, -16
	movq	%rdi, %r10
	movq	%rsi, %rcx
	pushq	%r14
	.cfi_def_cfa_offset 24
	.cfi_offset 14, -24
	pushq	%r13
	.cfi_def_cfa_offset 32
	.cfi_offset 13, -32
	pushq	%r12
	.cfi_def_cfa_offset 40
	.cfi_offset 12, -40
	shrq	$23, %rsi
	movl	%ecx, %edx
	testb	$-2, %sil
	pushq	%rbp
	.cfi_def_cfa_offset 48
	.cfi_offset 6, -48
	pushq	%rbx
	.cfi_def_cfa_offset 56
	.cfi_offset 3, -56
	setne	%r8b
	andl	$8388607, %edx
	sete	%al
	andl	$1, %ecx
	andl	%eax, %r8d
	andl	$255, %esi
	movzbl	%r8b, %eax
	je	.L269
	orl	$8388608, %edx
	leal	-150(%rsi), %edi
	leal	0(,%rdx,4), %r9d
	imull	$1262611, %edi, %ebp
	leal	-2(%r9,%rax), %esi
	testb	%r8b, %r8b
	je	.L270
	subl	$524031, %ebp
	leaq	_ZZN12schubfach_32L19ComputePow10_SingleEiE1g(%rip), %rdx
	xorl	%r15d, %r15d
	movl	$33554434, %r12d
	sarl	$22, %ebp
	imull	$-1741647, %ebp, %eax
	movl	$33554432, %r9d
	sarl	$19, %eax
	leal	1(%rdi,%rax), %ebx
	movl	$31, %eax
	subl	%ebp, %eax
	movq	(%rdx,%rax,8), %r14
.L271:
	movq	%r15, %rax
	shlx	%ebx, %esi, %esi
	movq	%rsi, %rdx
	movq	%r15, %r13
	imulq	%rsi, %rax
	mulx	%r14, %rsi, %rdi
	movq	%rsi, -24(%rsp)
	movq	%rdi, -16(%rsp)
	movq	-24(%rsp), %rsi
	addq	%rax, %rdi
	shlx	%ebx, %r9d, %eax
	imulq	%rax, %r13
	movq	%rax, %rdx
	mulx	%r14, %r8, %r9
	movq	%r8, %rax
	shrq	$32, %rax
	leaq	(%r9,%r13), %rdx
	xorl	%r13d, %r13d
	cmpl	$1, %eax
	movq	%r15, %r9
	seta	%r13b
	shlx	%ebx, %r12d, %eax
	imulq	%rax, %r9
	shrq	$32, %rsi
	orl	%edx, %r13d
	movq	%rax, %rdx
	mulx	%r14, %r14, %r15
	xorl	%edx, %edx
	movq	%r14, %rax
	cmpl	$1, %esi
	seta	%dl
	leaq	(%r9,%r15), %r8
	shrq	$32, %rax
	orl	%edi, %edx
	addl	%ecx, %edx
	cmpl	$1, %eax
	seta	%al
	movzbl	%al, %eax
	orl	%r8d, %eax
	subl	%ecx, %eax
	cmpl	$39, %r13d
	jbe	.L272
	movl	$3435973837, %esi
	movl	%r13d, %ecx
	imulq	%rsi, %rcx
	shrq	$37, %rcx
	leal	(%rcx,%rcx,4), %edi
	sall	$3, %edi
	leal	40(%rdi), %esi
	cmpl	%esi, %eax
	setnb	%sil
	cmpl	%edx, %edi
	setnb	%dil
	cmpb	%sil, %dil
	je	.L272
	movzbl	%sil, %esi
	addl	%ecx, %esi
	leal	(%rsi,%rsi,4), %ecx
	addl	%ecx, %ecx
	jmp	.L273
	.p2align 4
	.p2align 3
.L272:
	movl	%r13d, %edi
	movl	%r13d, %esi
	shrl	$2, %edi
	leal	1(%rdi), %ecx
	andl	$-4, %esi
	leal	0(,%rcx,4), %r8d
	cmpl	%r8d, %eax
	setnb	%al
	cmpl	%edx, %esi
	setnb	%dl
	cmpb	%al, %dl
	je	.L274
	movzbl	%al, %eax
	leal	(%rax,%rdi), %ecx
.L273:
	popq	%rbx
	.cfi_remember_state
	.cfi_def_cfa_offset 48
	movl	%ecx, (%r10)
	movl	%ebp, (%r11)
	popq	%rbp
	.cfi_def_cfa_offset 40
	popq	%r12
	.cfi_def_cfa_offset 32
	popq	%r13
	.cfi_def_cfa_offset 24
	popq	%r14
	.cfi_def_cfa_offset 16
	popq	%r15
	.cfi_def_cfa_offset 8
	ret
	.p2align 4
	.p2align 3
.L274:
	.cfi_restore_state
	addl	$2, %esi
	cmpl	%r13d, %esi
	jb	.L273
	andl	$-2, %ecx
	cmpl	%esi, %r13d
	cmovne	%edi, %ecx
	jmp	.L273
	.p2align 4
	.p2align 3
.L269:
	leal	0(,%rdx,4), %r9d
	movabsq	$-5522047002568494196, %r14
	xorl	%r15d, %r15d
	movl	$1, %ebx
	leal	-2(%r9,%rax), %esi
	leal	2(%r9), %r12d
	movl	$-45, %ebp
	jmp	.L271
.L270:
	sarl	$22, %ebp
	imull	$-1741647, %ebp, %eax
	leal	2(%r9), %r12d
	xorl	%r15d, %r15d
	sarl	$19, %eax
	leal	1(%rdi,%rax), %ebx
	movl	$31, %eax
	leaq	_ZZN12schubfach_32L19ComputePow10_SingleEiE1g(%rip), %rdi
	subl	%ebp, %eax
	movq	(%rdi,%rax,8), %r14
	jmp	.L271
	.cfi_endproc
.LFE10343:
	.size	_Z20schubfach_f32_to_decfPjPi, .-_Z20schubfach_f32_to_decfPjPi
	.section	.rodata.str1.1
.LC26:
	.string	"shift > 32"
	.section	.rodata.str1.8
	.align 8
.LC27:
	.string	"uint32_t pow5factor_32(uint32_t)"
	.text
	.p2align 4
	.type	_ZL3f2djj, @function
_ZL3f2djj:
.LFB10479:
	.cfi_startproc
	pushq	%r15
	.cfi_def_cfa_offset 16
	.cfi_offset 15, -16
	pushq	%r14
	.cfi_def_cfa_offset 24
	.cfi_offset 14, -24
	pushq	%r13
	.cfi_def_cfa_offset 32
	.cfi_offset 13, -32
	movl	%edi, %r10d
	pushq	%r12
	.cfi_def_cfa_offset 40
	.cfi_offset 12, -40
	pushq	%rbp
	.cfi_def_cfa_offset 48
	.cfi_offset 6, -48
	pushq	%rbx
	.cfi_def_cfa_offset 56
	.cfi_offset 3, -56
	subq	$40, %rsp
	.cfi_def_cfa_offset 96
	testl	%edi, %edi
	setne	%bl
	cmpl	$1, %esi
	setbe	%dl
	andl	$1, %edi
	orl	%edx, %ebx
	movl	%edi, 16(%rsp)
	movzbl	%bl, %edx
	testl	%esi, %esi
	jne	.L358
	leal	0(,%r10,4), %ebp
	movl	$-46, %r11d
	movl	$105, %r12d
	movabsq	$2019483917365790221, %rdi
	leal	2(%rbp), %eax
	movl	$46, 20(%rsp)
	movl	$105, 28(%rsp)
	movl	$55998514, 24(%rsp)
	movl	%eax, 12(%rsp)
	leal	-1(%rbp), %eax
	subl	%edx, %eax
	movl	$59, %edx
	movl	%eax, 8(%rsp)
.L322:
	movq	%rdi, %rsi
	movl	%ebp, %r13d
	movl	%edi, %edi
	subl	$32, %edx
	shrq	$32, %rsi
	movq	%r13, %rcx
	movq	%rsi, %rax
	movl	$4294967295, %r9d
	imulq	%rdi, %rcx
	imulq	%r13, %rax
	shrq	$32, %rcx
	addq	%rcx, %rax
	shrx	%rdx, %rax, %rax
	cmpq	%rax, %r9
	jb	.L285
	movl	12(%rsp), %r8d
	movq	%r8, %rcx
	imulq	%rsi, %r8
	imulq	%rdi, %rcx
	shrq	$32, %rcx
	addq	%rcx, %r8
	shrx	%rdx, %r8, %r8
	cmpq	%r8, %r9
	jb	.L285
	movl	8(%rsp), %r14d
	movl	%r8d, %ecx
	imulq	%r14, %rdi
	imulq	%r14, %rsi
	shrq	$32, %rdi
	addq	%rdi, %rsi
	shrx	%rdx, %rsi, %rdx
	cmpq	%rdx, %r9
	jb	.L285
	movl	%edx, %esi
	movl	$3435973837, %r15d
	movl	%edx, %edx
	imulq	%r15, %rdx
	shrq	$35, %rdx
	testl	%r12d, %r12d
	je	.L327
	leal	-1(%r8), %r14d
	xorl	%edi, %edi
	imulq	%r15, %r14
	shrq	$35, %r14
	cmpl	%r14d, %edx
	jnb	.L359
.L305:
	cmpl	$1, %r12d
	je	.L304
	cmpl	$30, %r12d
	ja	.L321
	decl	%r12d
	bzhi	%r12d, %ebp, %r12d
	testl	%r12d, %r12d
	sete	%bpl
	xorl	%ebx, %ebx
	movl	%ebp, %r8d
	jmp	.L295
	.p2align 4
	.p2align 3
.L358:
	orl	$8388608, %r10d
	leal	0(,%r10,4), %ebp
	leal	-1(%rbp), %ecx
	leal	2(%rbp), %edi
	subl	%edx, %ecx
	movl	%esi, %edx
	movl	%edi, 12(%rsp)
	subl	$152, %edx
	movl	%ecx, 8(%rsp)
	js	.L282
	imull	$78913, %edx, %ebx
	shrl	$18, %ebx
	imull	$1217359, %ebx, %eax
	movl	%ebx, %r15d
	movl	%ebx, %r11d
	subl	%edx, %r15d
	shrl	$19, %eax
	leal	61(%r15,%rax), %esi
	leaq	_ZL21DOUBLE_POW5_INV_SPLIT(%rip), %rax
	vmovq	%rax, %xmm3
	movl	%ebx, %eax
	salq	$4, %rax
	vmovq	%xmm3, %rdi
	movq	8(%rdi,%rax), %rdx
	incq	%rdx
	cmpl	$32, %esi
	jle	.L288
	movq	%rdx, %r9
	movl	%ebp, %r8d
	movl	%edx, %edx
	subl	$32, %esi
	shrq	$32, %r9
	movq	%r8, %rax
	movq	%r9, %rcx
	movl	$4294967295, %r13d
	imulq	%rdx, %rax
	imulq	%r8, %rcx
	shrq	$32, %rax
	addq	%rcx, %rax
	shrx	%rsi, %rax, %rax
	cmpq	%rax, %r13
	jb	.L285
	vmovd	12(%rsp), %xmm1
	vmovq	%xmm1, %rcx
	vmovq	%xmm1, %r12
	imulq	%rdx, %rcx
	imulq	%r9, %r12
	shrq	$32, %rcx
	addq	%rcx, %r12
	shrx	%rsi, %r12, %r12
	cmpq	%r12, %r13
	jb	.L285
	vmovd	8(%rsp), %xmm2
	movl	%r12d, %ecx
	vmovq	%xmm2, %rdi
	imulq	%rdi, %rdx
	imulq	%rdi, %r9
	shrq	$32, %rdx
	addq	%rdx, %r9
	shrx	%rsi, %r9, %r9
	cmpq	%r9, %r13
	jb	.L285
	movl	%r9d, %esi
	testl	%ebx, %ebx
	jne	.L360
	xorl	%edi, %edi
.L286:
	movl	$3435973837, %r15d
	imulq	%r15, %r8
	movq	%r8, %r13
	shrq	$34, %r13
	leal	0(%r13,%r13,4), %edx
	movl	%r13d, %r14d
	subl	%edx, %ebp
	movl	%ebp, %r13d
	movl	%r14d, %ebp
	je	.L291
	movl	16(%rsp), %ebp
	testl	%ebp, %ebp
	jne	.L296
	vmovq	%xmm2, %rbp
	movl	8(%rsp), %r12d
	imulq	%r15, %rbp
	shrq	$34, %rbp
	leal	0(%rbp,%rbp,4), %edx
	subl	%edx, %r12d
	je	.L298
	jmp	.L361
	.p2align 4
	.p2align 3
.L362:
	movl	%edx, %ebp
.L298:
	incl	%r12d
	testl	%ebp, %ebp
	je	.L294
	movl	%ebp, %edx
	imulq	%r15, %rdx
	shrq	$34, %rdx
	leal	(%rdx,%rdx,4), %r8d
	cmpl	%r8d, %ebp
	je	.L362
.L297:
	cmpl	%ebx, %r12d
	movl	$3435973837, %r8d
	movl	%r9d, %edx
	setnb	%bl
	imulq	%r8, %rdx
	xorl	%ebp, %ebp
	movl	%ebx, %r8d
	shrq	$35, %rdx
.L295:
	testb	%r8b, %r8b
	jne	.L308
.L321:
	movl	$3435973837, %r8d
	xorl	%r9d, %r9d
	imulq	%r8, %rcx
	shrq	$35, %rcx
	cmpl	%ecx, %edx
	jnb	.L310
	.p2align 4
	.p2align 3
.L309:
	movl	%edx, %edx
	movl	%ecx, %ecx
	movl	%eax, %eax
	incl	%r9d
	imulq	%r8, %rcx
	movq	%rdx, %rsi
	movq	%rax, %rdi
	imulq	%r8, %rdx
	imulq	%r8, %rax
	shrq	$35, %rcx
	shrq	$35, %rdx
	shrq	$35, %rax
	cmpl	%ecx, %edx
	jb	.L309
	leal	(%rax,%rax,4), %edx
	addl	%r9d, %r11d
	addl	%edx, %edx
	subl	%edx, %edi
.L310:
	cmpl	%eax, %esi
	sete	%dl
	cmpb	$4, %dil
	seta	%cl
	orl	%ecx, %edx
	movzbl	%dl, %edx
	addl	%edx, %eax
.L320:
	salq	$32, %r11
	addq	$40, %rsp
	.cfi_remember_state
	.cfi_def_cfa_offset 56
	movl	%eax, %eax
	popq	%rbx
	.cfi_def_cfa_offset 48
	orq	%r11, %rax
	popq	%rbp
	.cfi_def_cfa_offset 40
	popq	%r12
	.cfi_def_cfa_offset 32
	popq	%r13
	.cfi_def_cfa_offset 24
	popq	%r14
	.cfi_def_cfa_offset 16
	popq	%r15
	.cfi_def_cfa_offset 8
	ret
	.p2align 4
	.p2align 3
.L363:
	.cfi_restore_state
	movl	%edx, %ebp
.L291:
	incl	%r13d
	testl	%ebp, %ebp
	je	.L294
	movl	%ebp, %edx
	imulq	%r15, %rdx
	shrq	$34, %rdx
	leal	(%rdx,%rdx,4), %r8d
	cmpl	%r8d, %ebp
	je	.L363
	cmpl	%ebx, %r13d
	movl	%r9d, %edx
	setnb	%bpl
	imulq	%r15, %rdx
	xorl	%ebx, %ebx
	movl	%ebp, %r8d
	shrq	$35, %rdx
	jmp	.L295
	.p2align 4
	.p2align 3
.L360:
	movl	$3435973837, %edi
	movl	%r9d, %edx
	leal	-1(%r12), %r14d
	imulq	%rdi, %rdx
	imulq	%rdi, %r14
	xorl	%edi, %edi
	shrq	$35, %rdx
	shrq	$35, %r14
	cmpl	%r14d, %edx
	jnb	.L364
.L287:
	cmpl	$9, %ebx
	ja	.L321
	jmp	.L286
	.p2align 4
	.p2align 3
.L327:
	xorl	%edi, %edi
.L304:
	movl	16(%rsp), %r9d
	testl	%r9d, %r9d
	jne	.L365
.L307:
	movl	$1, %ebp
.L308:
	movl	$3435973837, %r12d
	imulq	%r12, %rcx
	shrq	$35, %rcx
	cmpl	%ecx, %edx
	jnb	.L330
	xorl	%r9d, %r9d
	jmp	.L312
	.p2align 4
	.p2align 3
.L331:
	movl	%r8d, %edx
.L312:
	imull	$-858993459, %esi, %esi
	movl	%ecx, %ecx
	rorx	$1, %esi, %esi
	cmpl	$429496729, %esi
	setbe	%sil
	andl	%esi, %ebx
	testb	%dil, %dil
	movl	%eax, %edi
	sete	%sil
	imulq	%r12, %rcx
	incl	%r9d
	andl	%esi, %ebp
	movl	%eax, %esi
	imulq	%r12, %rsi
	shrq	$35, %rcx
	shrq	$35, %rsi
	leal	(%rsi,%rsi,4), %r8d
	movl	%esi, %eax
	movl	%edx, %esi
	addl	%r8d, %r8d
	subl	%r8d, %edi
	movl	%edx, %r8d
	imulq	%r12, %r8
	shrq	$35, %r8
	cmpl	%ecx, %r8d
	jb	.L331
.L311:
	testb	%bl, %bl
	je	.L313
	imull	$-858993459, %edx, %ecx
	rorx	$1, %ecx, %ecx
	cmpl	$429496729, %ecx
	ja	.L313
	movl	$3435973837, %r8d
	.p2align 4
	.p2align 3
.L314:
	testb	%dil, %dil
	movl	%edx, %edx
	movl	%eax, %edi
	sete	%cl
	imulq	%r8, %rdx
	incl	%r9d
	andl	%ecx, %ebp
	movl	%eax, %ecx
	imulq	%r8, %rcx
	shrq	$35, %rdx
	shrq	$35, %rcx
	leal	(%rcx,%rcx,4), %esi
	movl	%ecx, %eax
	imull	$-858993459, %edx, %ecx
	addl	%esi, %esi
	subl	%esi, %edi
	rorx	$1, %ecx, %ecx
	cmpl	$429496729, %ecx
	jbe	.L314
.L313:
	cmpb	$5, %dil
	jne	.L315
	testb	%bpl, %bpl
	je	.L315
	testb	$1, %al
	jne	.L332
	cmpl	%edx, %eax
	jne	.L317
	xorl	$1, %ebx
	andl	$1, %r10d
	orl	%r10d, %ebx
	movzbl	%bl, %edx
	addl	%edx, %eax
	jmp	.L317
	.p2align 4
	.p2align 3
.L315:
	cmpl	%edx, %eax
	je	.L366
.L318:
	xorl	%edx, %edx
	cmpb	$4, %dil
	seta	%dl
	addl	%edx, %eax
.L317:
	addl	%r9d, %r11d
	jmp	.L320
	.p2align 4
	.p2align 3
.L296:
	vmovq	%xmm1, %r10
	movl	12(%rsp), %r8d
	imulq	%r15, %r10
	shrq	$34, %r10
	leal	(%r10,%r10,4), %edx
	subl	%edx, %r8d
	je	.L301
	jmp	.L367
	.p2align 4
	.p2align 3
.L368:
	movl	%edx, %r10d
.L301:
	incl	%r8d
	testl	%r10d, %r10d
	je	.L294
	movl	%r10d, %edx
	imulq	%r15, %rdx
	shrq	$34, %rdx
	leal	(%rdx,%rdx,4), %ecx
	cmpl	%ecx, %r10d
	je	.L368
.L300:
	cmpl	%ebx, %r8d
	movl	$3435973837, %edx
	movl	%r12d, %ecx
	movl	%r9d, %r9d
	adcl	$-1, %ecx
	imulq	%rdx, %r9
	shrq	$35, %r9
	movq	%r9, %rdx
	jmp	.L321
	.p2align 4
	.p2align 3
.L365:
	leal	-1(%r8), %ecx
	xorl	%ebx, %ebx
	jmp	.L307
	.p2align 4
	.p2align 3
.L366:
	testb	%bl, %bl
	je	.L332
	andl	$1, %r10d
	je	.L318
	.p2align 4
	.p2align 3
.L332:
	incl	%eax
	jmp	.L317
	.p2align 4
	.p2align 3
.L364:
	leal	-1(%rbx), %edi
	imull	$1217359, %edi, %r14d
	salq	$4, %rdi
	shrl	$19, %r14d
	leal	60(%r15,%r14), %r15d
	vmovq	%xmm3, %r14
	movq	8(%r14,%rdi), %rdi
	incq	%rdi
	cmpl	$32, %r15d
	jle	.L288
	movl	%edi, %r14d
	imulq	%r8, %r14
	shrq	$32, %rdi
	imulq	%r8, %rdi
	shrq	$32, %r14
	addq	%rdi, %r14
	leal	-32(%r15), %edi
	shrx	%rdi, %r14, %rdi
	cmpq	%rdi, %r13
	jb	.L285
	movl	%edi, %r14d
	movl	$3435973837, %r13d
	imulq	%r13, %r14
	shrq	$35, %r14
	leal	(%r14,%r14,4), %r14d
	leal	(%r14,%r14), %r13d
	subl	%r13d, %edi
	jmp	.L287
	.p2align 4
	.p2align 3
.L359:
	movl	24(%rsp), %edi
	addl	$1217359, %edi
	shrl	$19, %edi
	movl	%edi, %r14d
	movl	28(%rsp), %edi
	subl	%r14d, %edi
	movl	20(%rsp), %r14d
	addl	$59, %edi
	movl	%edi, 8(%rsp)
	leal	1(%r14), %edi
	leaq	_ZL17DOUBLE_POW5_SPLIT(%rip), %r14
	salq	$4, %rdi
	cmpl	$32, 8(%rsp)
	movq	8(%r14,%rdi), %r14
	jle	.L288
	movl	%r14d, %edi
	shrq	$32, %r14
	imulq	%r13, %rdi
	imulq	%r13, %r14
	movl	8(%rsp), %r13d
	shrq	$32, %rdi
	addq	%rdi, %r14
	subl	$32, %r13d
	shrx	%r13, %r14, %r13
	cmpq	%r13, %r9
	jb	.L285
	movl	%r13d, %edi
	imulq	%r15, %rdi
	shrq	$35, %rdi
	leal	(%rdi,%rdi,4), %r9d
	movl	%r13d, %edi
	addl	%r9d, %r9d
	subl	%r9d, %edi
	jmp	.L305
	.p2align 4
	.p2align 3
.L330:
	movl	%esi, %edx
	xorl	%r9d, %r9d
	jmp	.L311
.L361:
	xorl	%r12d, %r12d
	jmp	.L297
.L367:
	xorl	%r8d, %r8d
	jmp	.L300
.L294:
	leaq	.LC27(%rip), %rcx
	movl	$61, %edx
	leaq	.LC9(%rip), %rsi
	leaq	.LC20(%rip), %rdi
	call	__assert_fail@PLT
.L285:
	call	_ZL10mulShift32jmi.part.0
.L288:
	leaq	.LC8(%rip), %rcx
	movl	$90, %edx
	leaq	.LC9(%rip), %rsi
	leaq	.LC26(%rip), %rdi
	call	__assert_fail@PLT
.L282:
	imull	$-732923, %edx, %r12d
	shrl	$20, %r12d
	leal	(%rdx,%r12), %r11d
	movl	$152, %edx
	movl	%r12d, 28(%rsp)
	subl	%esi, %edx
	subl	%r12d, %edx
	movl	%edx, 20(%rsp)
	js	.L369
	imull	$1217359, 20(%rsp), %eax
	movl	%r12d, %edx
	movl	%eax, 24(%rsp)
	shrl	$19, %eax
	subl	$60, %eax
	subl	%eax, %edx
	cmpl	$32, %edx
	jle	.L288
	movl	20(%rsp), %eax
	leaq	_ZL17DOUBLE_POW5_SPLIT(%rip), %rcx
	salq	$4, %rax
	movq	8(%rcx,%rax), %rdi
	jmp	.L322
.L369:
	leaq	.LC6(%rip), %rcx
	movl	$77, %edx
	leaq	.LC2(%rip), %rsi
	leaq	.LC17(%rip), %rdi
	call	__assert_fail@PLT
	.cfi_endproc
.LFE10479:
	.size	_ZL3f2djj, .-_ZL3f2djj
	.p2align 4
	.globl	_Z14ryu_f32_to_decfPjPi
	.type	_Z14ryu_f32_to_decfPjPi, @function
_Z14ryu_f32_to_decfPjPi:
.LFB10485:
	.cfi_startproc
	endbr64
	pushq	%rbp
	.cfi_def_cfa_offset 16
	.cfi_offset 6, -16
	movq	%rdi, %rbp
	vmovd	%xmm0, %edi
	pushq	%rbx
	.cfi_def_cfa_offset 24
	.cfi_offset 3, -24
	movq	%rsi, %rbx
	movl	%edi, %esi
	subq	$8, %rsp
	.cfi_def_cfa_offset 32
	andl	$8388607, %edi
	shrl	$23, %esi
	andl	$255, %esi
	call	_ZL3f2djj
	movl	%eax, 0(%rbp)
	sarq	$32, %rax
	movl	%eax, (%rbx)
	addq	$8, %rsp
	.cfi_def_cfa_offset 24
	popq	%rbx
	.cfi_def_cfa_offset 16
	popq	%rbp
	.cfi_def_cfa_offset 8
	ret
	.cfi_endproc
.LFE10485:
	.size	_Z14ryu_f32_to_decfPjPi, .-_Z14ryu_f32_to_decfPjPi
	.p2align 4
	.globl	_Z20dragonbox_f64_to_decdPyPi
	.type	_Z20dragonbox_f64_to_decdPyPi, @function
_Z20dragonbox_f64_to_decdPyPi:
.LFB10443:
	.cfi_startproc
	endbr64
	vmovq	%xmm0, %rax
	movq	%rsi, %r8
	movabsq	$4503599627370495, %rsi
	pushq	%r15
	.cfi_def_cfa_offset 16
	.cfi_offset 15, -16
	movq	%rax, %rdx
	andq	%rax, %rsi
	pushq	%r14
	.cfi_def_cfa_offset 24
	.cfi_offset 14, -24
	movq	%rdi, %r9
	shrq	$52, %rdx
	andl	$2047, %edx
	pushq	%r13
	.cfi_def_cfa_offset 32
	.cfi_offset 13, -32
	pushq	%r12
	.cfi_def_cfa_offset 40
	.cfi_offset 12, -40
	pushq	%rbp
	.cfi_def_cfa_offset 48
	.cfi_offset 6, -48
	pushq	%rbx
	.cfi_def_cfa_offset 56
	.cfi_offset 3, -56
	je	.L391
	leal	-1075(%rdx), %ebp
	movabsq	$9214364837600034816, %rdi
	imull	$1262611, %ebp, %ecx
	testq	%rdi, %rax
	je	.L393
	testq	%rsi, %rsi
	jne	.L393
	subl	$524031, %ecx
	movl	$292, %eax
	leaq	_ZZN14dragonbox_warpL19ComputePow10_DoubleEiE5Pow10(%rip), %rsi
	movl	$11, %r11d
	sarl	$22, %ecx
	subl	%ecx, %eax
	imull	$-1741647, %ecx, %r10d
	salq	$4, %rax
	movq	(%rsi,%rax), %rdi
	sarl	$19, %r10d
	addl	%ebp, %r10d
	movq	%rdi, %rax
	movq	%rdi, %rsi
	subl	%r10d, %r11d
	shrq	$54, %rax
	subq	%rax, %rsi
	leal	-1077(%rdx), %eax
	movq	%rdi, %rdx
	cmpl	$1, %eax
	shrx	%r11, %rsi, %rsi
	seta	%al
	shrq	$53, %rdx
	movzbl	%al, %eax
	addq	%rdi, %rdx
	addq	%rax, %rsi
	movabsq	$-3689348814741910323, %rax
	shrx	%r11, %rdx, %rdx
	mulq	%rdx
	shrq	$3, %rdx
	leaq	(%rdx,%rdx,4), %rax
	movq	%rdx, -56(%rsp)
	addq	%rax, %rax
	cmpq	%rsi, %rax
	jnb	.L386
	movl	$10, %eax
	subl	%r10d, %eax
	shrx	%rax, %rdi, %rax
	incq	%rax
	shrq	%rax
	cmpl	$-77, %ebp
	je	.L404
	cmpq	%rsi, %rax
	adcq	$0, %rax
	movq	%rax, -56(%rsp)
	jmp	.L380
	.p2align 4
	.p2align 3
.L393:
	sarl	$22, %ecx
	leal	-2(%rcx), %eax
	movl	$2, %edi
	leaq	_ZZN14dragonbox_warpL19ComputePow10_DoubleEiE5Pow10(%rip), %rdx
	movl	$63, %ebx
	movl	%eax, -12(%rsp)
	movl	$294, %eax
	subl	%ecx, %edi
	btsq	$52, %rsi
	subl	%ecx, %eax
	imull	$1741647, %edi, %edi
	xorl	%r11d, %r11d
	salq	$4, %rax
	addq	%rdx, %rax
	xorl	%edx, %edx
	movq	(%rax), %r12
	movq	8(%rax), %rax
	movq	%rdx, -32(%rsp)
	sarl	$19, %edi
	addl	%ebp, %edi
	subl	%edi, %ebx
	movq	%r12, %r10
	movq	%rax, -40(%rsp)
	shrx	%rbx, %r12, %rbx
.L373:
	leaq	(%rsi,%rsi), %r13
	movq	%r11, %rdx
	leaq	1(%r13), %r15
	shlx	%rdi, %r15, %rax
	imulq	%rax, %rdx
	movq	%rdx, %r14
	movq	%rax, %rdx
	mulx	%r10, %r10, %r11
	movq	%r11, -48(%rsp)
	leaq	(%r11,%r14), %r11
	movq	-32(%rsp), %r14
	movq	%r10, -56(%rsp)
	imulq	%rax, %r14
	mulq	-40(%rsp)
	movabsq	$2361183241434822607, %rax
	addq	%rdx, %r14
	addq	-56(%rsp), %r14
	adcq	$0, %r11
	movq	%r11, %rdx
	shrq	$3, %rdx
	mulq	%rdx
	shrq	$4, %rdx
	imull	$1000, %edx, %eax
	movq	%rdx, -56(%rsp)
	subl	%eax, %r11d
	cmpl	%ebx, %r11d
	jnb	.L381
	notq	%rsi
	andl	$1, %esi
	cmpl	$-2, %ebp
	setl	%al
	orb	%sil, %al
	jne	.L386
	testl	%r11d, %r11d
	jne	.L386
	cmpl	$9, %ebp
	jle	.L383
	cmpl	$86, %ebp
	jle	.L405
	.p2align 4
	.p2align 3
.L386:
	incl	%ecx
.L380:
	movq	-56(%rsp), %rax
	popq	%rbx
	.cfi_remember_state
	.cfi_def_cfa_offset 48
	popq	%rbp
	.cfi_def_cfa_offset 40
	popq	%r12
	.cfi_def_cfa_offset 32
	popq	%r13
	.cfi_def_cfa_offset 24
	popq	%r14
	.cfi_def_cfa_offset 16
	popq	%r15
	.cfi_def_cfa_offset 8
	movq	%rax, (%r9)
	movl	%ecx, (%r8)
	ret
	.p2align 4
	.p2align 3
.L381:
	.cfi_restore_state
	je	.L406
.L384:
	movq	-56(%rsp), %rax
	shrl	%ebx
	subl	%ebx, %r11d
	leaq	(%rax,%rax,4), %r10
	leal	50(%r11), %eax
	movq	%rax, %rsi
	imulq	$1374389535, %rax, %rax
	shrq	$37, %rax
	movl	%eax, %edx
	imull	$100, %eax, %eax
	leaq	(%rdx,%r10,2), %rbx
	movq	%rbx, -56(%rsp)
	cmpl	%eax, %esi
	jne	.L380
	movq	-32(%rsp), %rax
	movq	-40(%rsp), %rbx
	imulq	%r13, %r12
	imulq	%r13, %rax
	movq	%rbx, %rdx
	mulx	%r13, %r10, %r11
	addq	%r11, %rax
	addq	%rax, %r12
	movl	$64, %eax
	subl	%edi, %eax
	btq	%rax, %r12
	jc	.L390
	testb	$1, -56(%rsp)
	je	.L380
	cmpl	$-4, %ebp
	jge	.L389
	movl	-12(%rsp), %eax
	subl	%ebp, %eax
	incl	%eax
	cmpl	$63, %eax
	jg	.L380
	bzhi	%rax, %r13, %rax
	testq	%rax, %rax
	jne	.L380
	.p2align 4
	.p2align 3
.L390:
	decq	-56(%rsp)
	jmp	.L380
	.p2align 4
	.p2align 3
.L406:
	leaq	-1(%r13), %rax
	cmpl	$-2, %ebp
	jl	.L385
	andl	$1, %esi
	je	.L407
.L385:
	movq	-40(%rsp), %r14
	movq	-32(%rsp), %rsi
	movq	%r14, %rdx
	imulq	%rax, %rsi
	mulx	%rax, %r10, %r11
	imulq	%r12, %rax
	addq	%r11, %rsi
	addq	%rsi, %rax
	movl	$64, %esi
	subl	%edi, %esi
	btq	%rsi, %rax
	jc	.L386
	movl	%ebx, %r11d
	jmp	.L384
	.p2align 4
	.p2align 3
.L404:
	andq	$-2, %rax
	movq	%rax, -56(%rsp)
	jmp	.L380
	.p2align 4
	.p2align 3
.L391:
	movabsq	$-5130745324059681113, %rax
	xorl	%edx, %edx
	movabsq	$-646153205651940552, %r10
	xorl	%r11d, %r11d
	movl	$494, %ebx
	movabsq	$-646153205651940552, %r12
	movl	$8, %edi
	movl	$-324, %ecx
	movl	$-1074, %ebp
	movq	%rax, -40(%rsp)
	movq	%rdx, -32(%rsp)
	movl	$-326, -12(%rsp)
	jmp	.L373
	.p2align 4
	.p2align 3
.L405:
	movl	-12(%rsp), %eax
	leaq	_ZZN14dragonbox_warpL14MultipleOfPow5EmiE4Mod5(%rip), %rsi
	salq	$4, %rax
	imulq	(%rsi,%rax), %r15
	cmpq	8(%rsi,%rax), %r15
	ja	.L386
.L383:
	movl	$1000, %r11d
	decq	-56(%rsp)
	jmp	.L384
	.p2align 4
	.p2align 3
.L407:
	cmpl	$9, %ebp
	jle	.L386
	cmpl	$86, %ebp
	jg	.L385
	movl	-12(%rsp), %esi
	leaq	_ZZN14dragonbox_warpL14MultipleOfPow5EmiE4Mod5(%rip), %r10
	salq	$4, %rsi
	movq	(%r10,%rsi), %r11
	imulq	%rax, %r11
	cmpq	8(%r10,%rsi), %r11
	jbe	.L386
	jmp	.L385
	.p2align 4
	.p2align 3
.L389:
	cmpl	$9, %ebp
	jle	.L390
	cmpl	$86, %ebp
	jg	.L380
	movl	-12(%rsp), %eax
	leaq	_ZZN14dragonbox_warpL14MultipleOfPow5EmiE4Mod5(%rip), %rsi
	salq	$4, %rax
	imulq	(%rsi,%rax), %r13
	cmpq	8(%rsi,%rax), %r13
	jbe	.L390
	jmp	.L380
	.cfi_endproc
.LFE10443:
	.size	_Z20dragonbox_f64_to_decdPyPi, .-_Z20dragonbox_f64_to_decdPyPi
	.p2align 4
	.globl	_Z20schubfach_f64_to_decdPyPi
	.type	_Z20schubfach_f64_to_decdPyPi, @function
_Z20schubfach_f64_to_decdPyPi:
.LFB10342:
	.cfi_startproc
	endbr64
	vmovq	%xmm0, %rax
	movabsq	$4503599627370495, %rcx
	pushq	%r15
	.cfi_def_cfa_offset 16
	.cfi_offset 15, -16
	pushq	%r14
	.cfi_def_cfa_offset 24
	.cfi_offset 14, -24
	andq	%rax, %rcx
	pushq	%r13
	.cfi_def_cfa_offset 32
	.cfi_offset 13, -32
	movq	%rsi, %r14
	pushq	%r12
	.cfi_def_cfa_offset 40
	.cfi_offset 12, -40
	shrq	$52, %rax
	andl	$2047, %eax
	pushq	%rbp
	.cfi_def_cfa_offset 48
	.cfi_offset 6, -48
	movq	%rcx, %r12
	pushq	%rbx
	.cfi_def_cfa_offset 56
	.cfi_offset 3, -56
	movq	%rdi, %rbx
	je	.L416
	subl	$1075, %eax
	btsq	$52, %r12
	imull	$1262611, %eax, %esi
.L409:
	movq	%r12, %rbp
	leal	-524031(%rsi), %edi
	salq	$2, %r12
	andl	$1, %ebp
	movq	%r12, %rdx
	cmpq	$1, %rcx
	leaq	2(%r12), %r10
	adcq	$-2, %rdx
	sarl	$22, %edi
	sarl	$22, %esi
	testq	%rcx, %rcx
	cmove	%edi, %esi
	imull	$-1741647, %esi, %ecx
	sarl	$19, %ecx
	leal	1(%rax,%rcx), %r11d
	movl	$292, %ecx
	leaq	_ZZL19ComputePow10_DoubleiE1g(%rip), %rax
	subl	%esi, %ecx
	shlx	%r11, %rdx, %rdx
	shlx	%r11, %r10, %r10
	salq	$4, %rcx
	addq	%rcx, %rax
	movq	(%rax), %rcx
	movq	8(%rax), %rdi
	movq	%rdx, %rax
	mulx	%rcx, %r8, %r9
	mulq	%rdi
	movq	%rdi, %rax
	addq	%rdx, %r8
	shlx	%r11, %r12, %rdx
	mulx	%rcx, %r12, %r13
	adcq	$0, %r9
	mulq	%rdx
	movq	%rdi, %rax
	addq	%rdx, %r12
	movq	%rcx, %rdx
	adcq	$0, %r13
	xorl	%r15d, %r15d
	cmpq	$1, %r12
	seta	%r15b
	orq	%r13, %r15
	mulx	%r10, %r12, %r13
	mulq	%r10
	addq	%rdx, %r12
	adcq	$0, %r13
	xorl	%ecx, %ecx
	cmpq	$1, %r8
	seta	%cl
	xorl	%edi, %edi
	orq	%r9, %rcx
	addq	%rbp, %rcx
	cmpq	$1, %r12
	seta	%dil
	orq	%r13, %rdi
	subq	%rbp, %rdi
	cmpq	$39, %r15
	jbe	.L412
	movabsq	$-3689348814741910323, %rax
	mulq	%r15
	shrq	$5, %rdx
	leaq	(%rdx,%rdx,4), %r8
	salq	$3, %r8
	leaq	40(%r8), %rax
	cmpq	%rax, %rdi
	setnb	%al
	cmpq	%rcx, %r8
	setnb	%r8b
	cmpb	%al, %r8b
	je	.L412
	movzbl	%al, %eax
	addq	%rdx, %rax
	leaq	(%rax,%rax,4), %rax
	addq	%rax, %rax
	jmp	.L413
	.p2align 4
	.p2align 3
.L412:
	movq	%r15, %r9
	movq	%r15, %r8
	shrq	$2, %r9
	leaq	1(%r9), %rax
	andq	$-4, %r8
	leaq	0(,%rax,4), %rdx
	cmpq	%rdx, %rdi
	setnb	%dl
	cmpq	%rcx, %r8
	setnb	%cl
	cmpb	%dl, %cl
	je	.L414
	movzbl	%dl, %edx
	leaq	(%rdx,%r9), %rax
.L413:
	movq	%rax, (%rbx)
	movl	%esi, (%r14)
	popq	%rbx
	.cfi_remember_state
	.cfi_def_cfa_offset 48
	popq	%rbp
	.cfi_def_cfa_offset 40
	popq	%r12
	.cfi_def_cfa_offset 32
	popq	%r13
	.cfi_def_cfa_offset 24
	popq	%r14
	.cfi_def_cfa_offset 16
	popq	%r15
	.cfi_def_cfa_offset 8
	ret
	.p2align 4
	.p2align 3
.L414:
	.cfi_restore_state
	addq	$2, %r8
	cmpq	%r15, %r8
	jb	.L413
	andq	$-2, %rax
	cmpq	%r8, %r15
	cmovne	%r9, %rax
	jmp	.L413
	.p2align 4
	.p2align 3
.L416:
	movl	$-1356044214, %esi
	movl	$-1074, %eax
	jmp	.L409
	.cfi_endproc
.LFE10342:
	.size	_Z20schubfach_f64_to_decdPyPi, .-_Z20schubfach_f64_to_decdPyPi
	.section	.rodata.str1.8
	.align 8
.LC28:
	.string	"char* FormatDigits(char*, uint64_t, int32_t, bool)"
	.section	.rodata.str1.1
.LC29:
	.string	"schubfach/schubfach_64.cc"
.LC30:
	.string	"digits >= 1"
	.section	.rodata.str1.8
	.align 8
.LC31:
	.string	"digits <= 99999999999999999ull"
	.section	.rodata.str1.1
.LC32:
	.string	"decimal_exponent >= -999"
.LC33:
	.string	"decimal_exponent <= 999"
	.section	.rodata.str1.8
	.align 8
.LC34:
	.string	"int32_t PrintDecimalDigitsBackwards(char*, uint64_t)"
	.section	.rodata.str1.1
.LC35:
	.string	"tz >= 0"
.LC36:
	.string	"tz <= 7"
	.section	.rodata.str1.8
	.align 8
.LC37:
	.string	"void Utoa_2Digits(char*, uint32_t)"
	.section	.rodata.str1.1
.LC38:
	.string	"digits <= 99"
	.text
	.p2align 4
	.globl	_ZN9schubfach4DtoaEPcd
	.type	_ZN9schubfach4DtoaEPcd, @function
_ZN9schubfach4DtoaEPcd:
.LFB10311:
	.cfi_startproc
	endbr64
	vmovq	%xmm0, %rax
	pushq	%r15
	.cfi_def_cfa_offset 16
	.cfi_offset 15, -16
	pushq	%r14
	.cfi_def_cfa_offset 24
	.cfi_offset 14, -24
	pushq	%r13
	.cfi_def_cfa_offset 32
	.cfi_offset 13, -32
	movq	%rax, %rdx
	pushq	%r12
	.cfi_def_cfa_offset 40
	.cfi_offset 12, -40
	pushq	%rbp
	.cfi_def_cfa_offset 48
	.cfi_offset 6, -48
	pushq	%rbx
	.cfi_def_cfa_offset 56
	.cfi_offset 3, -56
	shrq	$52, %rdx
	movq	%rdi, %rbx
	movq	%rdx, %rsi
	movabsq	$4503599627370495, %rdi
	notq	%rdx
	subq	$8, %rsp
	.cfi_def_cfa_offset 64
	andq	%rax, %rdi
	andl	$2047, %esi
	testl	$2047, %edx
	je	.L420
	shrq	$63, %rax
	movb	$45, (%rbx)
	addq	%rax, %rbx
	movq	%rdi, %rax
	orq	%rsi, %rax
	je	.L421
	call	_Z11ToDecimal64mm
	movq	%rax, %rcx
	movq	%rdx, %rdi
	movq	%rax, %rdx
	testq	%rcx, %rcx
	je	.L497
	movabsq	$99999999999999999, %rax
	cmpq	%rcx, %rax
	jb	.L498
	cmpl	$-999, %edi
	jl	.L499
	cmpl	$999, %edi
	jg	.L500
	movq	%rcx, %rax
	shrq	$32, %rax
	je	.L426
	movabsq	$9999999999999999, %rax
	cmpq	%rcx, %rax
	jb	.L475
	movabsq	$999999999999999, %rax
	cmpq	%rcx, %rax
	jb	.L476
	movabsq	$99999999999999, %rax
	cmpq	%rcx, %rax
	jb	.L477
	movabsq	$9999999999999, %rax
	cmpq	%rcx, %rax
	jb	.L478
	movabsq	$999999999999, %rax
	cmpq	%rcx, %rax
	jb	.L479
	movabsq	$99999999999, %rax
	cmpq	%rcx, %rax
	jb	.L480
	movabsq	$9999999999, %rax
	cmpq	%rcx, %rax
	sbbq	%rsi, %rsi
	notq	%rsi
	addq	$11, %rsi
	cmpq	%rcx, %rax
	sbbq	%rdx, %rdx
	notq	%rdx
	addq	$12, %rdx
	cmpq	%rcx, %rax
	sbbl	%r9d, %r9d
	notl	%r9d
	addl	$11, %r9d
	.p2align 4
	.p2align 3
.L427:
	movl	$48, %eax
	leal	(%r9,%rdi), %r8d
	leal	6(%r9,%rdi), %edi
	vpbroadcastb	%eax, %xmm0
	vmovdqu8	%xmm0, (%rbx)
	vmovdqu8	%xmm0, 16(%rbx)
	cmpl	$23, %edi
	ja	.L501
	testl	%r8d, %r8d
	jg	.L502
	movl	$2, %eax
	subl	%r8d, %eax
	cltq
	addq	%rsi, %rax
	leaq	(%rbx,%rax), %rsi
.L430:
	movabsq	$-6067343680855748867, %rax
	leaq	-8(%rsi), %r10
	mulq	%rcx
	shrq	$26, %rdx
	imulq	$100000000, %rdx, %rax
	subq	%rax, %rcx
	jne	.L432
	movl	%edx, %eax
	movl	$12, %r12d
	movl	$8, %r11d
	movl	$8, %ecx
.L433:
	cmpq	$9999, %rdx
	jbe	.L442
	movl	%eax, %edx
	movl	$3518437209, %ebp
	leaq	-4(%r10), %r13
	imulq	%rbp, %rdx
	shrq	$45, %rdx
	imull	$10000, %edx, %ebp
	subl	%ebp, %eax
	jne	.L503
	cmpl	%r11d, %ecx
	jne	.L448
	addl	$4, %ecx
.L447:
	movl	%edx, %eax
	movl	%r12d, %r11d
	movq	%r13, %r10
.L442:
	cmpl	$99, %eax
	ja	.L504
.L449:
	cmpl	$9, %eax
	ja	.L505
.L452:
	addl	$48, %eax
	movb	%al, -1(%r10)
.L453:
	movslq	%ecx, %rax
	subl	%ecx, %r9d
	subq	%rax, %rsi
	cmpl	$23, %edi
	ja	.L454
	testl	%r8d, %r8d
	jle	.L506
	movslq	%r8d, %rax
	leaq	(%rbx,%rax), %rdx
	cmpl	%r8d, %r9d
	jg	.L507
	movw	$12334, (%rdx)
	addq	$2, %rdx
.L456:
	movb	$0, (%rdx)
	addq	$8, %rsp
	.cfi_remember_state
	.cfi_def_cfa_offset 56
	leaq	1(%rdx), %rax
	popq	%rbx
	.cfi_def_cfa_offset 48
	popq	%rbp
	.cfi_def_cfa_offset 40
	popq	%r12
	.cfi_def_cfa_offset 32
	popq	%r13
	.cfi_def_cfa_offset 24
	popq	%r14
	.cfi_def_cfa_offset 16
	popq	%r15
	.cfi_def_cfa_offset 8
	ret
	.p2align 4
	.p2align 3
.L421:
	.cfi_restore_state
	movl	$540028464, (%rbx)
	addq	$8, %rsp
	.cfi_remember_state
	.cfi_def_cfa_offset 56
	leaq	3(%rbx), %rax
	popq	%rbx
	.cfi_def_cfa_offset 48
	popq	%rbp
	.cfi_def_cfa_offset 40
	popq	%r12
	.cfi_def_cfa_offset 32
	popq	%r13
	.cfi_def_cfa_offset 24
	popq	%r14
	.cfi_def_cfa_offset 16
	popq	%r15
	.cfi_def_cfa_offset 8
	ret
	.p2align 4
	.p2align 3
.L420:
	.cfi_restore_state
	testq	%rdi, %rdi
	jne	.L466
	shrq	$63, %rax
	movb	$45, (%rbx)
	addq	%rax, %rbx
	movl	$543583849, (%rbx)
	addq	$8, %rsp
	.cfi_remember_state
	.cfi_def_cfa_offset 56
	leaq	3(%rbx), %rax
	popq	%rbx
	.cfi_def_cfa_offset 48
	popq	%rbp
	.cfi_def_cfa_offset 40
	popq	%r12
	.cfi_def_cfa_offset 32
	popq	%r13
	.cfi_def_cfa_offset 24
	popq	%r14
	.cfi_def_cfa_offset 16
	popq	%r15
	.cfi_def_cfa_offset 8
	ret
	.p2align 4
	.p2align 3
.L426:
	.cfi_restore_state
	movl	%ecx, %eax
	cmpl	$999999999, %ecx
	ja	.L482
	cmpl	$99999999, %ecx
	ja	.L483
	cmpl	$9999999, %ecx
	ja	.L484
	cmpl	$999999, %ecx
	ja	.L485
	cmpl	$99999, %ecx
	ja	.L486
	cmpl	$9999, %ecx
	ja	.L487
	cmpl	$999, %ecx
	ja	.L488
	cmpl	$99, %ecx
	ja	.L489
	cmpl	$10, %ecx
	sbbq	%rsi, %rsi
	addq	$2, %rsi
	cmpl	$10, %ecx
	sbbq	%r11, %r11
	addq	$3, %r11
	cmpl	$10, %ecx
	sbbl	%r9d, %r9d
	addl	$2, %r9d
.L429:
	movl	$48, %r10d
	leal	(%r9,%rdi), %r8d
	leal	6(%r9,%rdi), %edi
	vpbroadcastb	%r10d, %xmm0
	vmovdqu8	%xmm0, (%rbx)
	vmovdqu8	%xmm0, 16(%rbx)
	cmpl	$23, %edi
	ja	.L508
	leaq	(%rbx,%rsi), %r10
	testl	%r8d, %r8d
	jle	.L509
.L431:
	movl	%ecx, %eax
	movq	%r10, %rsi
	movl	$4, %r12d
	xorl	%r11d, %r11d
	xorl	%ecx, %ecx
	jmp	.L433
	.p2align 4
	.p2align 3
.L466:
	movl	$544104814, (%rbx)
	addq	$8, %rsp
	.cfi_remember_state
	.cfi_def_cfa_offset 56
	leaq	3(%rbx), %rax
	popq	%rbx
	.cfi_def_cfa_offset 48
	popq	%rbp
	.cfi_def_cfa_offset 40
	popq	%r12
	.cfi_def_cfa_offset 32
	popq	%r13
	.cfi_def_cfa_offset 24
	popq	%r14
	.cfi_def_cfa_offset 16
	popq	%r15
	.cfi_def_cfa_offset 8
	ret
	.p2align 4
	.p2align 3
.L475:
	.cfi_restore_state
	movl	$17, %esi
	movl	$18, %edx
	movl	$17, %r9d
	jmp	.L427
	.p2align 4
	.p2align 3
.L482:
	movl	$10, %esi
	movl	$11, %edx
	movl	$10, %r9d
	jmp	.L427
	.p2align 4
	.p2align 3
.L480:
	movl	$12, %esi
	movl	$13, %edx
	movl	$12, %r9d
	jmp	.L427
	.p2align 4
	.p2align 3
.L487:
	movl	$5, %esi
	movl	$6, %r11d
	movl	$5, %r9d
	jmp	.L429
	.p2align 4
	.p2align 3
.L454:
	movzbl	1(%rbx), %eax
	movb	%al, (%rbx)
	cmpl	$1, %r9d
	je	.L510
	movb	$46, 1(%rbx)
.L459:
	movl	%r8d, %eax
	decl	%eax
	js	.L460
	movw	$11109, (%rsi)
.L461:
	cmpl	$99, %eax
	jg	.L463
	ja	.L511
	addl	%eax, %eax
	leaq	_ZZL12Utoa_2DigitsPcjE9Digits100(%rip), %rdx
	movl	%eax, %eax
	movzwl	(%rdx,%rax), %eax
	leaq	4(%rsi), %rdx
	movw	%ax, 2(%rsi)
	jmp	.L456
	.p2align 4
	.p2align 3
.L501:
	leaq	(%rbx,%rdx), %rsi
	jmp	.L430
	.p2align 4
	.p2align 3
.L505:
	leal	(%rax,%rax), %edx
	leaq	_ZZL12Utoa_2DigitsPcjE9Digits100(%rip), %rbp
	movzwl	0(%rbp,%rdx), %edx
	movw	%dx, -2(%r10)
	cmpl	%r11d, %ecx
	jne	.L453
	leaq	_ZZL21TrailingZeros_2DigitsjE16TrailingZeros100(%rip), %rdx
	movsbl	(%rdx,%rax), %eax
	addl	%eax, %ecx
	jmp	.L453
	.p2align 4
	.p2align 3
.L504:
	movl	%eax, %r12d
	movl	%eax, %ebp
	imulq	$1374389535, %r12, %rdx
	shrq	$37, %rdx
	imull	$100, %edx, %r13d
	subl	%r13d, %ebp
	leaq	_ZZL12Utoa_2DigitsPcjE9Digits100(%rip), %r13
	leal	(%rbp,%rbp), %r14d
	movzwl	0(%r13,%r14), %r15d
	movw	%r15w, -2(%r10)
	cmpl	%r11d, %ecx
	jne	.L450
	leaq	_ZZL21TrailingZeros_2DigitsjE16TrailingZeros100(%rip), %r14
	movsbl	(%r14,%rbp), %ebp
	addl	%ebp, %ecx
.L450:
	addl	$2, %r11d
	cmpl	$9999, %eax
	ja	.L451
	subq	$2, %r10
	movl	%edx, %eax
	jmp	.L449
	.p2align 4
	.p2align 3
.L506:
	movq	%rsi, %rdx
	movb	$46, 1(%rbx)
	jmp	.L456
	.p2align 4
	.p2align 3
.L460:
	movl	$1, %eax
	movw	$11621, (%rsi)
	subl	%r8d, %eax
	cmpl	$9, %eax
	jg	.L461
	addl	$48, %eax
	leaq	3(%rsi), %rdx
	movb	%al, 2(%rsi)
	jmp	.L456
	.p2align 4
	.p2align 3
.L510:
	leaq	1(%rbx), %rsi
	jmp	.L459
	.p2align 4
	.p2align 3
.L432:
	movl	%ecx, %eax
	movl	$3518437209, %r11d
	leaq	_ZZL12Utoa_2DigitsPcjE9Digits100(%rip), %r12
	imulq	%r11, %rax
	shrq	$45, %rax
	movl	%eax, %r11d
	imull	$10000, %eax, %r13d
	imulq	$1374389535, %r11, %r11
	shrq	$37, %r11
	movq	%r11, %rbp
	imull	$100, %r11d, %r11d
	subl	%r11d, %eax
	leal	(%rbp,%rbp), %r11d
	subl	%r13d, %ecx
	movzwl	(%r12,%r11), %r11d
	movw	%r11w, -8(%rsi)
	leal	(%rax,%rax), %r11d
	movzwl	(%r12,%r11), %r11d
	movw	%r11w, -6(%rsi)
	jne	.L434
	testl	%eax, %eax
	je	.L435
	leaq	_ZZL21TrailingZeros_2DigitsjE16TrailingZeros100(%rip), %rcx
	movsbl	(%rcx,%rax), %eax
	movl	$4, %ecx
.L436:
	addl	%eax, %ecx
.L437:
	testl	%ecx, %ecx
	js	.L512
	cmpl	$7, %ecx
	jg	.L441
	movl	%edx, %eax
	movl	$12, %r12d
	movl	$8, %r11d
	jmp	.L433
	.p2align 4
	.p2align 3
.L503:
	movl	%eax, %ebp
	leaq	_ZZL12Utoa_2DigitsPcjE9Digits100(%rip), %r15
	imulq	$1374389535, %rbp, %rbp
	shrq	$37, %rbp
	movq	%rbp, %r14
	imull	$100, %ebp, %ebp
	subl	%ebp, %eax
	leal	(%r14,%r14), %ebp
	movzwl	(%r15,%rbp), %ebp
	movw	%bp, -4(%r10)
	leal	(%rax,%rax), %ebp
	movzwl	(%r15,%rbp), %ebp
	movw	%bp, -2(%r10)
	cmpl	%r11d, %ecx
	jne	.L447
	testl	%eax, %eax
	je	.L445
	leaq	_ZZL21TrailingZeros_2DigitsjE16TrailingZeros100(%rip), %r10
	movsbl	(%r10,%rax), %eax
	addl	%eax, %ecx
	jmp	.L447
	.p2align 4
	.p2align 3
.L448:
	movl	$808464432, 0(%r13)
	jmp	.L447
	.p2align 4
	.p2align 3
.L502:
	addq	%rbx, %rsi
	jmp	.L430
	.p2align 4
	.p2align 3
.L508:
	leaq	(%rbx,%r11), %r10
	movl	$4, %r12d
	xorl	%r11d, %r11d
	xorl	%ecx, %ecx
	movq	%r10, %rsi
	jmp	.L433
	.p2align 4
	.p2align 3
.L463:
	movl	%eax, %edx
	imulq	$1374389535, %rdx, %rdx
	shrq	$37, %rdx
	leal	48(%rdx), %ecx
	imull	$100, %edx, %edx
	movb	%cl, 2(%rsi)
	subl	%edx, %eax
	leaq	_ZZL12Utoa_2DigitsPcjE9Digits100(%rip), %rdx
	addl	%eax, %eax
	movl	%eax, %eax
	movzwl	(%rdx,%rax), %eax
	leaq	5(%rsi), %rdx
	movw	%ax, 3(%rsi)
	jmp	.L456
	.p2align 4
	.p2align 3
.L451:
	movl	$3518437209, %eax
	movl	%edx, %ebp
	subq	$4, %r10
	imulq	%rax, %r12
	imulq	$1374389535, %rbp, %rbp
	shrq	$45, %r12
	shrq	$37, %rbp
	movq	%r12, %rax
	imull	$100, %ebp, %r12d
	subl	%r12d, %edx
	movl	%edx, %ebp
	leal	(%rbp,%rbp), %edx
	movzwl	0(%r13,%rdx), %edx
	movw	%dx, (%r10)
	cmpl	%ecx, %r11d
	jne	.L452
	leaq	_ZZL21TrailingZeros_2DigitsjE16TrailingZeros100(%rip), %rdx
	movsbl	(%rdx,%rbp), %edx
	addl	%edx, %ecx
	jmp	.L452
	.p2align 4
	.p2align 3
.L507:
	vmovdqu	(%rdx), %xmm1
	vmovdqu	%xmm1, 1(%rbx,%rax)
	movb	$46, (%rdx)
	leaq	1(%rsi), %rdx
	jmp	.L456
	.p2align 4
	.p2align 3
.L476:
	movl	$16, %esi
	movl	$17, %edx
	movl	$16, %r9d
	jmp	.L427
	.p2align 4
	.p2align 3
.L483:
	movl	$9, %esi
	movl	$10, %edx
	movl	$9, %r9d
	jmp	.L427
	.p2align 4
	.p2align 3
.L484:
	movl	$8, %esi
	movl	$9, %r11d
	movl	$8, %r9d
	jmp	.L429
	.p2align 4
	.p2align 3
.L477:
	movl	$15, %esi
	movl	$16, %edx
	movl	$15, %r9d
	jmp	.L427
	.p2align 4
	.p2align 3
.L435:
	leaq	_ZZL21TrailingZeros_2DigitsjE16TrailingZeros100(%rip), %rcx
	movl	%ebp, %ebp
	movsbl	(%rcx,%rbp), %eax
	movl	$6, %ecx
	jmp	.L436
	.p2align 4
	.p2align 3
.L434:
	movl	%ecx, %eax
	imulq	$1374389535, %rax, %rax
	shrq	$37, %rax
	imull	$100, %eax, %r11d
	subl	%r11d, %ecx
	leal	(%rax,%rax), %r11d
	movzwl	(%r12,%r11), %r11d
	movw	%r11w, -4(%rsi)
	leal	(%rcx,%rcx), %r11d
	movzwl	(%r12,%r11), %r11d
	movw	%r11w, -2(%rsi)
	jne	.L438
	movl	%eax, %eax
	leaq	_ZZL21TrailingZeros_2DigitsjE16TrailingZeros100(%rip), %rcx
	movsbl	(%rcx,%rax), %ecx
	addl	$2, %ecx
	jmp	.L437
	.p2align 4
	.p2align 3
.L485:
	movl	$7, %esi
	movl	$8, %r11d
	movl	$7, %r9d
	jmp	.L429
	.p2align 4
	.p2align 3
.L478:
	movl	$14, %esi
	movl	$15, %edx
	movl	$14, %r9d
	jmp	.L427
	.p2align 4
	.p2align 3
.L486:
	movl	$6, %esi
	movl	$7, %r11d
	movl	$6, %r9d
	jmp	.L429
	.p2align 4
	.p2align 3
.L479:
	movl	$13, %esi
	movl	$14, %edx
	movl	$13, %r9d
	jmp	.L427
	.p2align 4
	.p2align 3
.L445:
	movl	%r14d, %r14d
	leaq	_ZZL21TrailingZeros_2DigitsjE16TrailingZeros100(%rip), %rax
	movsbl	(%rax,%r14), %eax
	addl	$2, %eax
	addl	%eax, %ecx
	jmp	.L447
	.p2align 4
	.p2align 3
.L438:
	leaq	_ZZL21TrailingZeros_2DigitsjE16TrailingZeros100(%rip), %rax
	movsbl	(%rax,%rcx), %ecx
	jmp	.L437
	.p2align 4
	.p2align 3
.L488:
	movl	$4, %esi
	movl	$5, %r11d
	movl	$4, %r9d
	jmp	.L429
.L489:
	movl	$3, %esi
	movl	$4, %r11d
	movl	$3, %r9d
	jmp	.L429
.L509:
	movl	$2, %eax
	subl	%r8d, %eax
	cltq
	addq	%rsi, %rax
	leaq	(%rbx,%rax), %r10
	jmp	.L431
.L497:
	leaq	.LC28(%rip), %rcx
	movl	$1179, %edx
	leaq	.LC29(%rip), %rsi
	leaq	.LC30(%rip), %rdi
	call	__assert_fail@PLT
.L498:
	leaq	.LC28(%rip), %rcx
	movl	$1180, %edx
	leaq	.LC29(%rip), %rsi
	leaq	.LC31(%rip), %rdi
	call	__assert_fail@PLT
.L499:
	leaq	.LC28(%rip), %rcx
	movl	$1181, %edx
	leaq	.LC29(%rip), %rsi
	leaq	.LC32(%rip), %rdi
	call	__assert_fail@PLT
.L500:
	leaq	.LC28(%rip), %rcx
	movl	$1182, %edx
	leaq	.LC29(%rip), %rsi
	leaq	.LC33(%rip), %rdi
	call	__assert_fail@PLT
.L511:
	leaq	.LC37(%rip), %rcx
	movl	$977, %edx
	leaq	.LC29(%rip), %rsi
	leaq	.LC38(%rip), %rdi
	call	__assert_fail@PLT
.L441:
	leaq	.LC34(%rip), %rcx
	movl	$1045, %edx
	leaq	.LC29(%rip), %rsi
	leaq	.LC36(%rip), %rdi
	call	__assert_fail@PLT
.L512:
	leaq	.LC34(%rip), %rcx
	movl	$1044, %edx
	leaq	.LC29(%rip), %rsi
	leaq	.LC35(%rip), %rdi
	call	__assert_fail@PLT
	.cfi_endproc
.LFE10311:
	.size	_ZN9schubfach4DtoaEPcd, .-_ZN9schubfach4DtoaEPcd
	.section	.rodata.str1.8
	.align 8
.LC40:
	.string	"char* schubfach_32::FormatDigits(char*, uint32_t, int32_t, bool)"
	.section	.rodata.str1.1
.LC41:
	.string	"schubfach/schubfach_32.cpp"
.LC42:
	.string	"digits <= 999999999u"
	.text
	.p2align 4
	.globl	_ZN12schubfach_324FtoaEPcf
	.type	_ZN12schubfach_324FtoaEPcf, @function
_ZN12schubfach_324FtoaEPcf:
.LFB10341:
	.cfi_startproc
	endbr64
	vmovd	%xmm0, %eax
	movl	%eax, %edx
	movl	%eax, %esi
	shrl	$23, %edx
	movzbl	%dl, %edx
	andl	$8388607, %esi
	cmpl	$255, %edx
	je	.L514
	movslq	%eax, %rcx
	pushq	%r15
	.cfi_def_cfa_offset 16
	.cfi_offset 15, -16
	pushq	%r14
	.cfi_def_cfa_offset 24
	.cfi_offset 14, -24
	pushq	%r13
	.cfi_def_cfa_offset 32
	.cfi_offset 13, -32
	shrq	$63, %rcx
	pushq	%r12
	.cfi_def_cfa_offset 40
	.cfi_offset 12, -40
	pushq	%rbp
	.cfi_def_cfa_offset 48
	.cfi_offset 6, -48
	pushq	%rbx
	.cfi_def_cfa_offset 56
	.cfi_offset 3, -56
	movl	%esi, %ebx
	subq	$40, %rsp
	.cfi_def_cfa_offset 96
	addq	%rdi, %rcx
	orl	%edx, %ebx
	movb	$45, (%rdi)
	je	.L515
	testl	$2130706432, %eax
	setne	%dil
	testl	%esi, %esi
	sete	%r8b
	andl	$1, %eax
	andl	%r8d, %edi
	movzbl	%dil, %r8d
	testl	%edx, %edx
	je	.L516
	orl	$8388608, %esi
	subl	$150, %edx
	sall	$2, %esi
	imull	$1262611, %edx, %ebx
	leal	-2(%rsi,%r8), %r8d
	testb	%dil, %dil
	je	.L517
	subl	$524031, %ebx
	leaq	_ZZN12schubfach_32L19ComputePow10_SingleEiE1g(%rip), %rdi
	xorl	%r15d, %r15d
	movl	$33554434, %r12d
	sarl	$22, %ebx
	imull	$-1741647, %ebx, %esi
	sarl	$19, %esi
	leal	1(%rdx,%rsi), %r11d
	movl	$31, %esi
	subl	%ebx, %esi
	movq	(%rdi,%rsi,8), %r14
	movl	$33554432, %esi
.L518:
	shlx	%r11d, %r8d, %r8d
	movq	%r8, %rdx
	shlx	%r11d, %esi, %esi
	movq	%r15, %rbp
	mulx	%r14, %r9, %r10
	movq	%rsi, %rdx
	movq	%r9, (%rsp)
	imulq	%r8, %rbp
	movq	%r15, %r9
	movq	(%rsp), %r8
	movq	%r10, 8(%rsp)
	imulq	%rsi, %r9
	mulx	%r14, %rsi, %rdi
	movq	%rsi, 16(%rsp)
	movq	16(%rsp), %rsi
	addq	%r10, %rbp
	movq	%rdi, 24(%rsp)
	addq	%r9, %rdi
	xorl	%r9d, %r9d
	shrq	$32, %rsi
	cmpl	$1, %esi
	shlx	%r11d, %r12d, %esi
	movq	%r15, %r11
	movq	%rsi, %rdx
	seta	%r9b
	mulx	%r14, %r14, %r15
	imulq	%rsi, %r11
	xorl	%edx, %edx
	shrq	$32, %r8
	orl	%edi, %r9d
	movq	%r14, %rsi
	cmpl	$1, %r8d
	leaq	(%r15,%r11), %rdi
	seta	%dl
	shrq	$32, %rsi
	orl	%ebp, %edx
	leal	(%rdx,%rax), %r8d
	xorl	%edx, %edx
	cmpl	$1, %esi
	seta	%dl
	orl	%edi, %edx
	subl	%eax, %edx
	cmpl	$39, %r9d
	jbe	.L519
	movl	$3435973837, %esi
	movl	%r9d, %eax
	imulq	%rsi, %rax
	shrq	$37, %rax
	leal	(%rax,%rax,4), %edi
	sall	$3, %edi
	leal	40(%rdi), %esi
	cmpl	%esi, %edx
	setnb	%sil
	cmpl	%r8d, %edi
	setnb	%dil
	cmpb	%sil, %dil
	je	.L519
	movzbl	%sil, %esi
	addl	%eax, %esi
	leal	(%rsi,%rsi,4), %eax
	addl	%eax, %eax
	jmp	.L520
	.p2align 4
	.p2align 3
.L515:
	leaq	1(%rcx), %rax
	movl	$540028464, (%rcx)
.L513:
	addq	$40, %rsp
	.cfi_remember_state
	.cfi_def_cfa_offset 56
	popq	%rbx
	.cfi_def_cfa_offset 48
	popq	%rbp
	.cfi_def_cfa_offset 40
	popq	%r12
	.cfi_def_cfa_offset 32
	popq	%r13
	.cfi_def_cfa_offset 24
	popq	%r14
	.cfi_def_cfa_offset 16
	popq	%r15
	.cfi_def_cfa_offset 8
	ret
	.p2align 4
	.p2align 3
.L519:
	.cfi_restore_state
	movl	%r9d, %edi
	movl	%r9d, %esi
	shrl	$2, %edi
	leal	1(%rdi), %eax
	andl	$-4, %esi
	leal	0(,%rax,4), %r10d
	cmpl	%r10d, %edx
	setnb	%dl
	cmpl	%r8d, %esi
	setnb	%r8b
	cmpb	%dl, %r8b
	je	.L521
	movzbl	%dl, %edx
	leal	(%rdx,%rdi), %eax
.L522:
	testl	%eax, %eax
	je	.L576
.L520:
	cmpl	$999999999, %eax
	ja	.L577
	cmpl	$99999999, %eax
	ja	.L555
	cmpl	$9999999, %eax
	ja	.L556
	cmpl	$999999, %eax
	ja	.L557
	cmpl	$99999, %eax
	ja	.L558
	cmpl	$9999, %eax
	ja	.L526
	cmpl	$999, %eax
	ja	.L559
	cmpl	$99, %eax
	ja	.L560
	cmpl	$10, %eax
	sbbq	%rdx, %rdx
	addq	$3, %rdx
	cmpl	$10, %eax
	sbbq	%r8, %r8
	addq	$2, %r8
	cmpl	$10, %eax
	sbbl	%edi, %edi
	addl	$2, %edi
	.p2align 4
	.p2align 3
.L525:
	movl	$48, %esi
	leal	(%rdi,%rbx), %r9d
	leal	4(%rdi,%rbx), %ebx
	vpbroadcastb	%esi, %xmm0
	vmovdqu8	%xmm0, (%rcx)
	vmovdqu8	%xmm0, 16(%rcx)
	cmpl	$13, %ebx
	ja	.L527
	movq	%r8, %rdx
	testl	%r9d, %r9d
	jg	.L527
	movl	$2, %esi
	subl	%r9d, %esi
	movslq	%esi, %rsi
	addq	%rsi, %rdx
.L527:
	addq	%rcx, %rdx
	cmpl	$9999, %eax
	ja	.L549
	movq	%rdx, %rsi
	movl	$2, %r13d
	xorl	%r11d, %r11d
.L528:
	cmpl	$99, %eax
	ja	.L578
	cmpl	$9, %eax
	ja	.L579
.L533:
	addl	$48, %eax
	movb	%al, -1(%rdx)
.L534:
	movslq	%r11d, %rax
	subl	%r11d, %edi
	subq	%rax, %rsi
	movq	%rsi, %rdx
	cmpl	$13, %ebx
	ja	.L535
	testl	%r9d, %r9d
	jle	.L580
	movslq	%r9d, %rsi
	leaq	(%rcx,%rsi), %rax
	cmpl	%r9d, %edi
	jle	.L513
	movq	(%rax), %rdi
	movq	%rdi, 1(%rcx,%rsi)
	movb	$46, (%rax)
	leaq	1(%rdx), %rax
	jmp	.L513
	.p2align 4
	.p2align 3
.L514:
	.cfi_def_cfa_offset 8
	.cfi_restore 3
	.cfi_restore 6
	.cfi_restore 12
	.cfi_restore 13
	.cfi_restore 14
	.cfi_restore 15
	testl	%esi, %esi
	jne	.L545
	cltq
	movb	$45, (%rdi)
	shrq	$63, %rax
	addq	%rax, %rdi
	leaq	3(%rdi), %rax
	movl	$543583849, (%rdi)
	ret
	.p2align 4
	.p2align 3
.L516:
	.cfi_def_cfa_offset 96
	.cfi_offset 3, -56
	.cfi_offset 6, -48
	.cfi_offset 12, -40
	.cfi_offset 13, -32
	.cfi_offset 14, -24
	.cfi_offset 15, -16
	sall	$2, %esi
	movabsq	$-5522047002568494196, %r14
	leal	-2(%rsi,%r8), %r8d
	leal	2(%rsi), %r12d
	xorl	%r15d, %r15d
	movl	$1, %r11d
	movl	$-45, %ebx
	jmp	.L518
	.p2align 4
	.p2align 3
.L545:
	.cfi_def_cfa_offset 8
	.cfi_restore 3
	.cfi_restore 6
	.cfi_restore 12
	.cfi_restore 13
	.cfi_restore 14
	.cfi_restore 15
	leaq	3(%rdi), %rax
	movl	$544104814, (%rdi)
	ret
	.p2align 4
	.p2align 3
.L521:
	.cfi_def_cfa_offset 96
	.cfi_offset 3, -56
	.cfi_offset 6, -48
	.cfi_offset 12, -40
	.cfi_offset 13, -32
	.cfi_offset 14, -24
	.cfi_offset 15, -16
	addl	$2, %esi
	cmpl	%r9d, %esi
	jb	.L520
	andl	$-2, %eax
	cmpl	%esi, %r9d
	cmovne	%rdi, %rax
	jmp	.L522
	.p2align 4
	.p2align 3
.L571:
	leaq	6(%rcx), %rdx
	movl	$5, %edi
	.p2align 4
	.p2align 3
.L549:
	movl	$3518437209, %esi
	movl	%eax, %r8d
	movl	%eax, %r10d
	leaq	-4(%rdx), %r12
	imulq	%rsi, %r8
	shrq	$45, %r8
	imull	$10000, %r8d, %esi
	subl	%esi, %r10d
	jne	.L581
	movq	%rdx, %rsi
	movl	%r8d, %eax
	movq	%r12, %rdx
	movl	$6, %r13d
	movl	$4, %r11d
	jmp	.L528
	.p2align 4
	.p2align 3
.L535:
	movzbl	1(%rcx), %eax
	movb	%al, (%rcx)
	cmpl	$1, %edi
	je	.L582
	movb	$46, 1(%rcx)
.L539:
	movl	%r9d, %eax
	decl	%eax
	js	.L583
	movl	$57, %ecx
	movw	$11109, (%rdx)
	cmpl	$9, %eax
	jne	.L543
.L542:
	movb	%cl, 2(%rdx)
	addq	$40, %rsp
	.cfi_remember_state
	.cfi_def_cfa_offset 56
	leaq	3(%rdx), %rax
	popq	%rbx
	.cfi_def_cfa_offset 48
	popq	%rbp
	.cfi_def_cfa_offset 40
	popq	%r12
	.cfi_def_cfa_offset 32
	popq	%r13
	.cfi_def_cfa_offset 24
	popq	%r14
	.cfi_def_cfa_offset 16
	popq	%r15
	.cfi_def_cfa_offset 8
	ret
	.p2align 4
	.p2align 3
.L555:
	.cfi_restore_state
	movl	$10, %edx
	movl	$9, %r8d
	movl	$9, %edi
	jmp	.L525
	.p2align 4
	.p2align 3
.L580:
	movq	%rsi, %rax
	movb	$46, 1(%rcx)
	jmp	.L513
	.p2align 4
	.p2align 3
.L583:
	movl	$1, %eax
	movw	$11621, (%rdx)
	subl	%r9d, %eax
	leal	48(%rax), %ecx
	cmpl	$9, %eax
	jle	.L542
.L543:
	addl	%eax, %eax
	leaq	_ZZN12schubfach_32L12Utoa_2DigitsEPcjE9Digits100(%rip), %rcx
	movl	%eax, %eax
	movzwl	(%rcx,%rax), %eax
	movw	%ax, 2(%rdx)
	leaq	4(%rdx), %rax
	jmp	.L513
	.p2align 4
	.p2align 3
.L556:
	movl	$9, %edx
	movl	$8, %r8d
	movl	$8, %edi
	jmp	.L525
	.p2align 4
	.p2align 3
.L582:
	leaq	1(%rcx), %rdx
	jmp	.L539
	.p2align 4
	.p2align 3
.L581:
	movl	%r10d, %esi
	leaq	_ZZN12schubfach_32L12Utoa_2DigitsEPcjE9Digits100(%rip), %rbp
	leaq	_ZZN12schubfach_32L21TrailingZeros_2DigitsEjE16TrailingZeros100(%rip), %r15
	imulq	$1374389535, %rsi, %rsi
	shrq	$37, %rsi
	imull	$100, %esi, %r11d
	subl	%r11d, %r10d
	leal	(%rsi,%rsi), %r11d
	movzwl	0(%rbp,%r11), %r11d
	movw	%r11w, -4(%rdx)
	leal	(%r10,%r10), %r11d
	movzwl	0(%rbp,%r11), %r11d
	movw	%r11w, -2(%rdx)
	je	.L584
	movsbl	(%r15,%r10), %r11d
.L530:
	cmpl	$999999, %eax
	jbe	.L565
	movl	%r8d, %r10d
	movl	%r8d, %r14d
	imulq	$1374389535, %r10, %r10
	shrq	$37, %r10
	imull	$100, %r10d, %eax
	subl	%eax, %r14d
	leaq	-6(%rdx), %rax
	movq	%rax, (%rsp)
	leal	(%r14,%r14), %eax
	movzwl	0(%rbp,%rax), %eax
	movw	%ax, -6(%rdx)
	cmpl	$4, %r11d
	je	.L585
	movq	%rdx, %rsi
	movl	$6, %r13d
.L532:
	cmpl	$9999, %r8d
	ja	.L586
.L531:
	cmpl	$9, %r10d
	jbe	.L567
	leal	(%r10,%r10), %eax
	movq	(%rsp), %rdx
	movzwl	0(%rbp,%rax), %eax
	movw	%ax, -2(%rdx)
	cmpl	%r13d, %r11d
	jne	.L534
	movl	%r10d, %eax
	.p2align 4
	.p2align 3
.L552:
	movsbl	(%r15,%rax), %eax
	addl	%eax, %r11d
	jmp	.L534
	.p2align 4
	.p2align 3
.L557:
	movl	$8, %edx
	movl	$7, %r8d
	movl	$7, %edi
	jmp	.L525
	.p2align 4
	.p2align 3
.L584:
	movl	%esi, %esi
	movsbl	(%r15,%rsi), %r11d
	addl	$2, %r11d
	jmp	.L530
	.p2align 4
	.p2align 3
.L578:
	movl	%eax, %r10d
	movl	%eax, %r14d
	leaq	_ZZN12schubfach_32L12Utoa_2DigitsEPcjE9Digits100(%rip), %rbp
	leaq	-2(%rdx), %r15
	imulq	$1374389535, %r10, %r10
	movq	%r15, (%rsp)
	leaq	_ZZN12schubfach_32L21TrailingZeros_2DigitsEjE16TrailingZeros100(%rip), %r15
	shrq	$37, %r10
	imull	$100, %r10d, %r8d
	subl	%r8d, %r14d
	leal	(%r14,%r14), %r8d
	movzwl	0(%rbp,%r8), %r8d
	movw	%r8w, -2(%rdx)
.L546:
	movsbl	(%r15,%r14), %r8d
	movq	%rdx, %r12
	addl	%r8d, %r11d
	movl	%eax, %r8d
	jmp	.L532
	.p2align 4
	.p2align 3
.L579:
	leal	(%rax,%rax), %r8d
	leaq	_ZZN12schubfach_32L12Utoa_2DigitsEPcjE9Digits100(%rip), %r10
	leaq	_ZZN12schubfach_32L21TrailingZeros_2DigitsEjE16TrailingZeros100(%rip), %r15
	movzwl	(%r10,%r8), %r8d
	movw	%r8w, -2(%rdx)
	jmp	.L552
	.p2align 4
	.p2align 3
.L586:
	movl	$3518437209, %eax
	movl	%r8d, %r8d
	imulq	%rax, %r8
	shrq	$45, %r8
	movq	%r8, %rax
	movl	%r10d, %r8d
	imulq	$1374389535, %r8, %r8
	shrq	$37, %r8
	imull	$100, %r8d, %edx
	subl	%edx, %r10d
	leaq	-4(%r12), %rdx
	movl	%r10d, %r8d
	leal	(%r8,%r8), %r10d
	movzwl	0(%rbp,%r10), %r10d
	movw	%r10w, -4(%r12)
	cmpl	%r13d, %r11d
	jne	.L533
	movsbl	(%r15,%r8), %r8d
	addl	%r8d, %r11d
	jmp	.L533
	.p2align 4
	.p2align 3
.L558:
	movl	$7, %edx
	movl	$6, %r8d
	movl	$6, %edi
	jmp	.L525
	.p2align 4
	.p2align 3
.L526:
	movl	$48, %edx
	leal	5(%rbx), %r9d
	addl	$9, %ebx
	vpbroadcastb	%edx, %xmm0
	vmovdqu8	%xmm0, (%rcx)
	vmovdqu8	%xmm0, 16(%rcx)
	cmpl	$13, %ebx
	ja	.L571
	leaq	5(%rcx), %rdx
	movl	$5, %edi
	testl	%r9d, %r9d
	jg	.L549
	movl	$7, %edx
	subl	%r9d, %edx
	movslq	%edx, %rdx
	addq	%rcx, %rdx
	jmp	.L549
	.p2align 4
	.p2align 3
.L559:
	movl	$5, %edx
	movl	$4, %r8d
	movl	$4, %edi
	jmp	.L525
	.p2align 4
	.p2align 3
.L560:
	movl	$4, %edx
	movl	$3, %r8d
	movl	$3, %edi
	jmp	.L525
.L577:
	leaq	.LC40(%rip), %rcx
	movl	$2898, %edx
	leaq	.LC41(%rip), %rsi
	leaq	.LC42(%rip), %rdi
	call	__assert_fail@PLT
.L576:
	leaq	.LC40(%rip), %rcx
	movl	$2897, %edx
	leaq	.LC41(%rip), %rsi
	leaq	.LC30(%rip), %rdi
	call	__assert_fail@PLT
.L567:
	movq	(%rsp), %rdx
	movl	%r10d, %eax
	jmp	.L533
.L517:
	sarl	$22, %ebx
	imull	$-1741647, %ebx, %edi
	leaq	_ZZN12schubfach_32L19ComputePow10_SingleEiE1g(%rip), %r9
	leal	2(%rsi), %r12d
	xorl	%r15d, %r15d
	sarl	$19, %edi
	leal	1(%rdx,%rdi), %r11d
	movl	$31, %edi
	subl	%ebx, %edi
	movq	(%r9,%rdi,8), %r14
	jmp	.L518
.L585:
	movq	%rdx, %rsi
	movl	%r8d, %eax
	movq	%r12, %rdx
	movl	$6, %r13d
	jmp	.L546
.L565:
	movq	%rdx, %rsi
	movl	%r8d, %r10d
	movl	$4, %r13d
	movq	%r12, (%rsp)
	jmp	.L531
	.cfi_endproc
.LFE10341:
	.size	_ZN12schubfach_324FtoaEPcf, .-_ZN12schubfach_324FtoaEPcf
	.section	.rodata.str1.8
	.align 8
.LC43:
	.string	"schubfach_xjb32::{anonymous}::FloatingDecimal32 schubfach_xjb32::ToDecimal32(uint32_t, uint32_t)"
	.align 8
.LC44:
	.string	"schubfach_xjb/schubfach_32.cpp"
	.section	.rodata.str1.1
.LC45:
	.string	"h >= 1"
.LC46:
	.string	"h <= 4"
	.section	.rodata.str1.8
	.align 8
.LC47:
	.string	"char* schubfach_xjb32::FormatDigits(char*, uint32_t, int32_t, bool)"
	.text
	.p2align 4
	.globl	_ZN15schubfach_xjb324FtoaEPcf
	.type	_ZN15schubfach_xjb324FtoaEPcf, @function
_ZN15schubfach_xjb324FtoaEPcf:
.LFB10403:
	.cfi_startproc
	endbr64
	vmovd	%xmm0, %eax
	movl	%eax, %edx
	movl	%eax, %esi
	shrl	$23, %edx
	movzbl	%dl, %edx
	andl	$8388607, %esi
	cmpl	$255, %edx
	je	.L588
	movslq	%eax, %rcx
	pushq	%r15
	.cfi_def_cfa_offset 16
	.cfi_offset 15, -16
	pushq	%r14
	.cfi_def_cfa_offset 24
	.cfi_offset 14, -24
	pushq	%r13
	.cfi_def_cfa_offset 32
	.cfi_offset 13, -32
	shrq	$63, %rcx
	pushq	%r12
	.cfi_def_cfa_offset 40
	.cfi_offset 12, -40
	pushq	%rbp
	.cfi_def_cfa_offset 48
	.cfi_offset 6, -48
	pushq	%rbx
	.cfi_def_cfa_offset 56
	.cfi_offset 3, -56
	movl	%esi, %ebx
	subq	$24, %rsp
	.cfi_def_cfa_offset 80
	addq	%rdi, %rcx
	orl	%edx, %ebx
	movb	$45, (%rdi)
	je	.L589
	testl	$2130706432, %eax
	setne	%dil
	testl	%esi, %esi
	sete	%r8b
	andl	$1, %eax
	andl	%r8d, %edi
	movzbl	%dil, %r8d
	testl	%edx, %edx
	je	.L590
	orl	$8388608, %esi
	subl	$150, %edx
	sall	$2, %esi
	imull	$1262611, %edx, %r10d
	leal	-2(%rsi,%r8), %r8d
	leal	2(%rsi), %ebx
	testb	%dil, %dil
	je	.L591
	subl	$524031, %r10d
	sarl	$22, %r10d
	imull	$-1741647, %r10d, %edi
	sarl	$19, %edi
	leal	1(%rdx,%rdi), %r11d
.L592:
	testl	%r11d, %r11d
	jle	.L651
	cmpl	$4, %r11d
	jg	.L652
.L594:
	movl	$31, %edx
	leaq	_ZZN15schubfach_xjb32L19ComputePow10_SingleEiE1g(%rip), %rdi
	shlx	%r11d, %r8d, %r8d
	shlx	%r11d, %esi, %esi
	subl	%r10d, %edx
	movq	(%rdi,%rdx,8), %rbp
	movq	%r8, %rdx
	mulx	%rbp, %r12, %r13
	movq	%rsi, %rdx
	movq	%r12, %r8
	mulx	%rbp, %rsi, %rdi
	movq	%rsi, %rdx
	shlx	%r11d, %ebx, %esi
	shrq	$32, %rdx
	cmpl	$1, %edx
	seta	%dl
	movzbl	%dl, %edx
	shrq	$32, %r8
	orl	%edi, %edx
	cmpl	$1, %r8d
	movl	%edx, %r15d
	movq	%rsi, %rdx
	seta	%r8b
	mulx	%rbp, %rdi, %rbp
	movq	%rdi, %rsi
	movzbl	%r8b, %r8d
	shrq	$32, %rsi
	orl	%r13d, %r8d
	addl	%eax, %r8d
	cmpl	$1, %esi
	seta	%sil
	movzbl	%sil, %esi
	orl	%ebp, %esi
	subl	%eax, %esi
	cmpl	$39, %r15d
	jbe	.L595
	movl	$3435973837, %edi
	movl	%r15d, %eax
	imulq	%rdi, %rax
	shrq	$37, %rax
	leal	(%rax,%rax,4), %r9d
	sall	$3, %r9d
	leal	40(%r9), %edi
	cmpl	%edi, %esi
	setnb	%dil
	cmpl	%r8d, %r9d
	setnb	%r9b
	cmpb	%dil, %r9b
	je	.L595
	movzbl	%dil, %edi
	addl	%eax, %edi
	leal	(%rdi,%rdi,4), %eax
	addl	%eax, %eax
	jmp	.L596
	.p2align 4
	.p2align 3
.L589:
	leaq	1(%rcx), %rax
	movl	$540028464, (%rcx)
.L587:
	addq	$24, %rsp
	.cfi_remember_state
	.cfi_def_cfa_offset 56
	popq	%rbx
	.cfi_def_cfa_offset 48
	popq	%rbp
	.cfi_def_cfa_offset 40
	popq	%r12
	.cfi_def_cfa_offset 32
	popq	%r13
	.cfi_def_cfa_offset 24
	popq	%r14
	.cfi_def_cfa_offset 16
	popq	%r15
	.cfi_def_cfa_offset 8
	ret
	.p2align 4
	.p2align 3
.L595:
	.cfi_restore_state
	movl	%r15d, %edx
	movl	%r15d, %edi
	shrl	$2, %edx
	movl	%edx, %r9d
	andl	$-4, %edi
	leal	1(%r9), %eax
	leal	0(,%rax,4), %r11d
	cmpl	%r11d, %esi
	setnb	%sil
	cmpl	%r8d, %edi
	setnb	%r8b
	cmpb	%sil, %r8b
	je	.L597
	movzbl	%sil, %esi
	leal	(%rsi,%r9), %eax
.L598:
	testl	%eax, %eax
	je	.L653
.L596:
	cmpl	$99999999, %eax
	ja	.L630
	cmpl	$9999999, %eax
	ja	.L631
	cmpl	$999999, %eax
	ja	.L632
	cmpl	$99999, %eax
	ja	.L633
	cmpl	$9999, %eax
	ja	.L601
	cmpl	$999, %eax
	ja	.L634
	cmpl	$99, %eax
	ja	.L635
	cmpl	$10, %eax
	sbbq	%rdx, %rdx
	addq	$3, %rdx
	cmpl	$10, %eax
	sbbq	%r8, %r8
	addq	$2, %r8
	cmpl	$10, %eax
	sbbl	%edi, %edi
	addl	$2, %edi
	.p2align 4
	.p2align 3
.L600:
	movl	$48, %esi
	leal	(%rdi,%r10), %r9d
	leal	4(%rdi,%r10), %r10d
	vpbroadcastb	%esi, %xmm0
	vmovdqu8	%xmm0, (%rcx)
	vmovdqu8	%xmm0, 16(%rcx)
	cmpl	$13, %r10d
	ja	.L602
	movq	%r8, %rdx
	testl	%r9d, %r9d
	jg	.L602
	movl	$2, %esi
	subl	%r9d, %esi
	movslq	%esi, %rsi
	addq	%rsi, %rdx
.L602:
	addq	%rcx, %rdx
	cmpl	$9999, %eax
	ja	.L624
	movq	%rdx, %rsi
	movl	$2, %r13d
	xorl	%ebx, %ebx
.L603:
	cmpl	$99, %eax
	ja	.L654
	cmpl	$9, %eax
	ja	.L655
.L608:
	addl	$48, %eax
	movb	%al, -1(%rdx)
.L609:
	movslq	%ebx, %rax
	subl	%ebx, %edi
	subq	%rax, %rsi
	movq	%rsi, %rdx
	cmpl	$13, %r10d
	ja	.L610
	testl	%r9d, %r9d
	jle	.L656
	movslq	%r9d, %rsi
	leaq	(%rcx,%rsi), %rax
	cmpl	%r9d, %edi
	jle	.L587
	movq	(%rax), %rdi
	movq	%rdi, 1(%rcx,%rsi)
	movb	$46, (%rax)
	leaq	1(%rdx), %rax
	jmp	.L587
	.p2align 4
	.p2align 3
.L588:
	.cfi_def_cfa_offset 8
	.cfi_restore 3
	.cfi_restore 6
	.cfi_restore 12
	.cfi_restore 13
	.cfi_restore 14
	.cfi_restore 15
	testl	%esi, %esi
	jne	.L620
	cltq
	movb	$45, (%rdi)
	shrq	$63, %rax
	addq	%rax, %rdi
	leaq	3(%rdi), %rax
	movl	$543583849, (%rdi)
	ret
	.p2align 4
	.p2align 3
.L590:
	.cfi_def_cfa_offset 80
	.cfi_offset 3, -56
	.cfi_offset 6, -48
	.cfi_offset 12, -40
	.cfi_offset 13, -32
	.cfi_offset 14, -24
	.cfi_offset 15, -16
	sall	$2, %esi
	movl	$1, %r11d
	leal	-2(%rsi,%r8), %r8d
	leal	2(%rsi), %ebx
	movl	$-45, %r10d
	jmp	.L594
	.p2align 4
	.p2align 3
.L620:
	.cfi_def_cfa_offset 8
	.cfi_restore 3
	.cfi_restore 6
	.cfi_restore 12
	.cfi_restore 13
	.cfi_restore 14
	.cfi_restore 15
	leaq	3(%rdi), %rax
	movl	$544104814, (%rdi)
	ret
	.p2align 4
	.p2align 3
.L597:
	.cfi_def_cfa_offset 80
	.cfi_offset 3, -56
	.cfi_offset 6, -48
	.cfi_offset 12, -40
	.cfi_offset 13, -32
	.cfi_offset 14, -24
	.cfi_offset 15, -16
	addl	$2, %edi
	cmpl	%r15d, %edi
	jb	.L596
	andl	$-2, %eax
	cmpl	%edi, %r15d
	cmovne	%r9, %rax
	jmp	.L598
	.p2align 4
	.p2align 3
.L663:
	leaq	6(%rcx), %rdx
	movl	$5, %edi
	.p2align 4
	.p2align 3
.L624:
	movl	$3518437209, %esi
	movl	%eax, %r8d
	movl	%eax, %r11d
	leaq	-4(%rdx), %r12
	imulq	%rsi, %r8
	shrq	$45, %r8
	imull	$10000, %r8d, %esi
	subl	%esi, %r11d
	jne	.L657
	movq	%rdx, %rsi
	movl	%r8d, %eax
	movq	%r12, %rdx
	movl	$6, %r13d
	movl	$4, %ebx
	jmp	.L603
	.p2align 4
	.p2align 3
.L610:
	movzbl	1(%rcx), %eax
	movb	%al, (%rcx)
	cmpl	$1, %edi
	je	.L658
	movb	$46, 1(%rcx)
.L614:
	movl	%r9d, %eax
	decl	%eax
	js	.L659
	movl	$57, %ecx
	movw	$11109, (%rdx)
	cmpl	$9, %eax
	jne	.L618
.L617:
	movb	%cl, 2(%rdx)
	addq	$24, %rsp
	.cfi_remember_state
	.cfi_def_cfa_offset 56
	leaq	3(%rdx), %rax
	popq	%rbx
	.cfi_def_cfa_offset 48
	popq	%rbp
	.cfi_def_cfa_offset 40
	popq	%r12
	.cfi_def_cfa_offset 32
	popq	%r13
	.cfi_def_cfa_offset 24
	popq	%r14
	.cfi_def_cfa_offset 16
	popq	%r15
	.cfi_def_cfa_offset 8
	ret
	.p2align 4
	.p2align 3
.L630:
	.cfi_restore_state
	movl	$10, %edx
	movl	$9, %r8d
	movl	$9, %edi
	jmp	.L600
	.p2align 4
	.p2align 3
.L656:
	movq	%rsi, %rax
	movb	$46, 1(%rcx)
	jmp	.L587
	.p2align 4
	.p2align 3
.L659:
	movl	$1, %eax
	movw	$11621, (%rdx)
	subl	%r9d, %eax
	leal	48(%rax), %ecx
	cmpl	$9, %eax
	jle	.L617
.L618:
	addl	%eax, %eax
	leaq	_ZZN15schubfach_xjb32L12Utoa_2DigitsEPcjE9Digits100(%rip), %rcx
	movl	%eax, %eax
	movzwl	(%rcx,%rax), %eax
	movw	%ax, 2(%rdx)
	leaq	4(%rdx), %rax
	jmp	.L587
	.p2align 4
	.p2align 3
.L631:
	movl	$9, %edx
	movl	$8, %r8d
	movl	$8, %edi
	jmp	.L600
	.p2align 4
	.p2align 3
.L658:
	leaq	1(%rcx), %rdx
	jmp	.L614
	.p2align 4
	.p2align 3
.L657:
	movl	%r11d, %esi
	leaq	_ZZN15schubfach_xjb32L12Utoa_2DigitsEPcjE9Digits100(%rip), %rbp
	leaq	_ZZN15schubfach_xjb32L21TrailingZeros_2DigitsEjE16TrailingZeros100(%rip), %r15
	imulq	$1374389535, %rsi, %rsi
	shrq	$37, %rsi
	imull	$100, %esi, %ebx
	subl	%ebx, %r11d
	leal	(%rsi,%rsi), %ebx
	movzwl	0(%rbp,%rbx), %ebx
	movw	%bx, -4(%rdx)
	leal	(%r11,%r11), %ebx
	movzwl	0(%rbp,%rbx), %ebx
	movw	%bx, -2(%rdx)
	je	.L660
	movsbl	(%r15,%r11), %ebx
.L605:
	cmpl	$999999, %eax
	jbe	.L640
	movl	%r8d, %r11d
	movl	%r8d, %r14d
	imulq	$1374389535, %r11, %r11
	shrq	$37, %r11
	imull	$100, %r11d, %eax
	subl	%eax, %r14d
	leaq	-6(%rdx), %rax
	movq	%rax, 8(%rsp)
	leal	(%r14,%r14), %eax
	movzwl	0(%rbp,%rax), %eax
	movw	%ax, -6(%rdx)
	cmpl	$4, %ebx
	je	.L661
	movq	%rdx, %rsi
	movl	$6, %r13d
.L607:
	cmpl	$9999, %r8d
	ja	.L662
.L606:
	cmpl	$9, %r11d
	jbe	.L642
	leal	(%r11,%r11), %eax
	movq	8(%rsp), %rdx
	movzwl	0(%rbp,%rax), %eax
	movw	%ax, -2(%rdx)
	cmpl	%r13d, %ebx
	jne	.L609
	movl	%r11d, %eax
	.p2align 4
	.p2align 3
.L627:
	movsbl	(%r15,%rax), %eax
	addl	%eax, %ebx
	jmp	.L609
	.p2align 4
	.p2align 3
.L632:
	movl	$8, %edx
	movl	$7, %r8d
	movl	$7, %edi
	jmp	.L600
	.p2align 4
	.p2align 3
.L660:
	movl	%esi, %esi
	movsbl	(%r15,%rsi), %ebx
	addl	$2, %ebx
	jmp	.L605
	.p2align 4
	.p2align 3
.L655:
	leal	(%rax,%rax), %r8d
	leaq	_ZZN15schubfach_xjb32L12Utoa_2DigitsEPcjE9Digits100(%rip), %r11
	leaq	_ZZN15schubfach_xjb32L21TrailingZeros_2DigitsEjE16TrailingZeros100(%rip), %r15
	movzwl	(%r11,%r8), %r8d
	movw	%r8w, -2(%rdx)
	jmp	.L627
	.p2align 4
	.p2align 3
.L654:
	movl	%eax, %r11d
	movl	%eax, %r14d
	leaq	_ZZN15schubfach_xjb32L12Utoa_2DigitsEPcjE9Digits100(%rip), %rbp
	leaq	-2(%rdx), %r15
	imulq	$1374389535, %r11, %r11
	movq	%r15, 8(%rsp)
	leaq	_ZZN15schubfach_xjb32L21TrailingZeros_2DigitsEjE16TrailingZeros100(%rip), %r15
	shrq	$37, %r11
	imull	$100, %r11d, %r8d
	subl	%r8d, %r14d
	leal	(%r14,%r14), %r8d
	movzwl	0(%rbp,%r8), %r8d
	movw	%r8w, -2(%rdx)
.L621:
	movsbl	(%r15,%r14), %r8d
	movq	%rdx, %r12
	addl	%r8d, %ebx
	movl	%eax, %r8d
	jmp	.L607
	.p2align 4
	.p2align 3
.L662:
	movl	$3518437209, %eax
	movl	%r8d, %r8d
	imulq	%rax, %r8
	shrq	$45, %r8
	movq	%r8, %rax
	movl	%r11d, %r8d
	imulq	$1374389535, %r8, %r8
	shrq	$37, %r8
	imull	$100, %r8d, %edx
	subl	%edx, %r11d
	leaq	-4(%r12), %rdx
	movl	%r11d, %r8d
	leal	(%r8,%r8), %r11d
	movzwl	0(%rbp,%r11), %r11d
	movw	%r11w, -4(%r12)
	cmpl	%r13d, %ebx
	jne	.L608
	movsbl	(%r15,%r8), %r8d
	addl	%r8d, %ebx
	jmp	.L608
	.p2align 4
	.p2align 3
.L633:
	movl	$7, %edx
	movl	$6, %r8d
	movl	$6, %edi
	jmp	.L600
	.p2align 4
	.p2align 3
.L601:
	movl	$48, %edx
	leal	5(%r10), %r9d
	addl	$9, %r10d
	vpbroadcastb	%edx, %xmm0
	vmovdqu8	%xmm0, (%rcx)
	vmovdqu8	%xmm0, 16(%rcx)
	cmpl	$13, %r10d
	ja	.L663
	leaq	5(%rcx), %rdx
	movl	$5, %edi
	testl	%r9d, %r9d
	jg	.L624
	movl	$7, %edx
	subl	%r9d, %edx
	movslq	%edx, %rdx
	addq	%rcx, %rdx
	jmp	.L624
	.p2align 4
	.p2align 3
.L634:
	movl	$5, %edx
	movl	$4, %r8d
	movl	$4, %edi
	jmp	.L600
	.p2align 4
	.p2align 3
.L635:
	movl	$4, %edx
	movl	$3, %r8d
	movl	$3, %edi
	jmp	.L600
.L653:
	leaq	.LC47(%rip), %rcx
	movl	$2897, %edx
	leaq	.LC44(%rip), %rsi
	leaq	.LC30(%rip), %rdi
	call	__assert_fail@PLT
.L651:
	leaq	.LC43(%rip), %rcx
	movl	$455, %edx
	leaq	.LC44(%rip), %rsi
	leaq	.LC45(%rip), %rdi
	call	__assert_fail@PLT
.L652:
	leaq	.LC43(%rip), %rcx
	movl	$456, %edx
	leaq	.LC44(%rip), %rsi
	leaq	.LC46(%rip), %rdi
	call	__assert_fail@PLT
.L642:
	movq	8(%rsp), %rdx
	movl	%r11d, %eax
	jmp	.L608
.L591:
	sarl	$22, %r10d
	imull	$-1741647, %r10d, %edi
	sarl	$19, %edi
	leal	1(%rdx,%rdi), %r11d
	jmp	.L592
.L661:
	movq	%rdx, %rsi
	movl	%r8d, %eax
	movq	%r12, %rdx
	movl	$6, %r13d
	jmp	.L621
.L640:
	movq	%rdx, %rsi
	movl	%r8d, %r11d
	movl	$4, %r13d
	movq	%r12, 8(%rsp)
	jmp	.L606
	.cfi_endproc
.LFE10403:
	.size	_ZN15schubfach_xjb324FtoaEPcf, .-_ZN15schubfach_xjb324FtoaEPcf
	.p2align 4
	.globl	_ZN9dragonbox4DtoaEPcd
	.type	_ZN9dragonbox4DtoaEPcd, @function
_ZN9dragonbox4DtoaEPcd:
.LFB10442:
	.cfi_startproc
	endbr64
	vmovq	%xmm0, %rax
	movabsq	$4503599627370495, %rcx
	movq	%rax, %rdx
	andq	%rax, %rcx
	shrq	$52, %rdx
	movq	%rdx, %r8
	notq	%rdx
	andl	$2047, %r8d
	testl	$2047, %edx
	je	.L665
	movq	%rax, %rdx
	movq	%rcx, %rsi
	movb	$45, (%rdi)
	shrq	$63, %rdx
	addq	%rdx, %rdi
	orq	%r8, %rsi
	je	.L666
	pushq	%r15
	.cfi_def_cfa_offset 16
	.cfi_offset 15, -16
	pushq	%r14
	.cfi_def_cfa_offset 24
	.cfi_offset 14, -24
	pushq	%r13
	.cfi_def_cfa_offset 32
	.cfi_offset 13, -32
	pushq	%r12
	.cfi_def_cfa_offset 40
	.cfi_offset 12, -40
	pushq	%rbp
	.cfi_def_cfa_offset 48
	.cfi_offset 6, -48
	pushq	%rbx
	.cfi_def_cfa_offset 56
	.cfi_offset 3, -56
	testq	%r8, %r8
	je	.L726
	leal	-1075(%r8), %ebx
	movabsq	$9214364837600034816, %rdx
	imull	$1262611, %ebx, %esi
	testq	%rdx, %rax
	je	.L746
	testq	%rcx, %rcx
	jne	.L746
	subl	$524031, %esi
	movl	$292, %eax
	leaq	_ZZN14dragonbox_warpL19ComputePow10_DoubleEiE5Pow10(%rip), %rdx
	sarl	$22, %esi
	subl	%esi, %eax
	imull	$-1741647, %esi, %r11d
	salq	$4, %rax
	movq	(%rdx,%rax), %r9
	movl	$11, %eax
	sarl	$19, %r11d
	addl	%ebx, %r11d
	movq	%r9, %rdx
	movq	%r9, %rcx
	subl	%r11d, %eax
	shrq	$54, %rdx
	subq	%rdx, %rcx
	shrx	%rax, %rcx, %rdx
	leal	-1077(%r8), %ecx
	cmpl	$1, %ecx
	seta	%cl
	movzbl	%cl, %ecx
	addq	%rdx, %rcx
	movq	%r9, %rdx
	shrq	$53, %rdx
	addq	%r9, %rdx
	shrx	%rax, %rdx, %rdx
	movabsq	$-3689348814741910323, %rax
	mulq	%rdx
	shrq	$3, %rdx
	leaq	(%rdx,%rdx,4), %rax
	movq	%rdx, %r10
	addq	%rax, %rax
	cmpq	%rcx, %rax
	jnb	.L680
	movl	$10, %eax
	subl	%r11d, %eax
	shrx	%rax, %r9, %rax
	incq	%rax
	shrq	%rax
	cmpl	$-77, %ebx
	je	.L763
	cmpq	%rcx, %rax
	adcq	$0, %rax
	movq	%rax, %r10
.L674:
	movq	%r10, %rax
	shrq	$32, %rax
	je	.L685
.L771:
	movabsq	$9999999999999999, %rax
	cmpq	%r10, %rax
	jb	.L728
	movabsq	$999999999999999, %rax
	cmpq	%r10, %rax
	jb	.L729
	movabsq	$99999999999999, %rax
	cmpq	%r10, %rax
	jb	.L730
	movabsq	$9999999999999, %rax
	cmpq	%r10, %rax
	jb	.L731
	movabsq	$999999999999, %rax
	cmpq	%r10, %rax
	jb	.L732
	movabsq	$99999999999, %rax
	cmpq	%r10, %rax
	jb	.L733
	movabsq	$9999999999, %rax
	cmpq	%r10, %rax
	sbbq	%r9, %r9
	notq	%r9
	addq	$12, %r9
	cmpq	%r10, %rax
	sbbq	%rdx, %rdx
	notq	%rdx
	addq	$11, %rdx
	cmpq	%r10, %rax
	sbbl	%r8d, %r8d
	notl	%r8d
	addl	$11, %r8d
	.p2align 4
	.p2align 3
.L686:
	movl	$48, %eax
	leal	(%rsi,%r8), %ecx
	leal	6(%rsi,%r8), %esi
	vpbroadcastb	%eax, %xmm0
	vmovdqu8	%xmm0, (%rdi)
	vmovdqu8	%xmm0, 16(%rdi)
	cmpl	$23, %esi
	jbe	.L723
	addq	%rdi, %r9
.L722:
	movabsq	$-6067343680855748867, %rax
	leaq	-8(%r9), %r11
	mulq	%r10
	shrq	$26, %rdx
	imulq	$100000000, %rdx, %rax
	subq	%rax, %r10
	jne	.L764
	movq	%rdx, %r10
	movl	$12, %r12d
	movl	$8, %edx
	movl	$8, %ebx
.L690:
	movl	%r10d, %eax
	cmpl	$9999, %r10d
	jbe	.L696
	movl	%r10d, %eax
	movl	$3518437209, %ebp
	leaq	-4(%r11), %r13
	imulq	%rbp, %rax
	shrq	$45, %rax
	imull	$10000, %eax, %ebp
	subl	%ebp, %r10d
	jne	.L765
	cmpl	%edx, %ebx
	jne	.L702
	addl	$4, %ebx
.L701:
	movl	%r12d, %edx
	movq	%r13, %r11
.L696:
	cmpl	$99, %eax
	ja	.L766
.L703:
	cmpl	$9, %eax
	ja	.L767
	addl	$48, %eax
	movb	%al, -1(%r11)
.L709:
	movslq	%ebx, %rax
	subl	%ebx, %r8d
	subq	%rax, %r9
	cmpl	$23, %esi
	ja	.L710
	testl	%ecx, %ecx
	jle	.L768
	movslq	%ecx, %rdx
	leaq	(%rdi,%rdx), %rax
	cmpl	%ecx, %r8d
	jg	.L769
	movw	$12334, (%rax)
	addq	$2, %rax
.L664:
	popq	%rbx
	.cfi_def_cfa_offset 48
	popq	%rbp
	.cfi_def_cfa_offset 40
	popq	%r12
	.cfi_def_cfa_offset 32
	popq	%r13
	.cfi_def_cfa_offset 24
	popq	%r14
	.cfi_def_cfa_offset 16
	popq	%r15
	.cfi_def_cfa_offset 8
	ret
	.p2align 4
	.p2align 3
.L666:
	.cfi_restore 3
	.cfi_restore 6
	.cfi_restore 12
	.cfi_restore 13
	.cfi_restore 14
	.cfi_restore 15
	leaq	3(%rdi), %rax
	movl	$540028464, (%rdi)
	ret
	.p2align 4
	.p2align 3
.L665:
	testq	%rcx, %rcx
	jne	.L721
	shrq	$63, %rax
	movb	$45, (%rdi)
	addq	%rax, %rdi
	leaq	3(%rdi), %rax
	movl	$543583849, (%rdi)
	ret
	.p2align 4
	.p2align 3
.L721:
	leaq	3(%rdi), %rax
	movl	$544104814, (%rdi)
	ret
	.p2align 4
	.p2align 3
.L746:
	.cfi_def_cfa_offset 56
	.cfi_offset 3, -56
	.cfi_offset 6, -48
	.cfi_offset 12, -40
	.cfi_offset 13, -32
	.cfi_offset 14, -24
	.cfi_offset 15, -16
	sarl	$22, %esi
	movl	$294, %eax
	movl	$2, %r8d
	leaq	_ZZN14dragonbox_warpL19ComputePow10_DoubleEiE5Pow10(%rip), %rdx
	movl	$63, %r9d
	subl	%esi, %eax
	subl	%esi, %r8d
	btsq	$52, %rcx
	leal	-2(%rsi), %r15d
	salq	$4, %rax
	imull	$1741647, %r8d, %r8d
	addq	%rdx, %rax
	xorl	%r11d, %r11d
	xorl	%edx, %edx
	movq	(%rax), %rbp
	movq	8(%rax), %rax
	movq	%rdx, -32(%rsp)
	sarl	$19, %r8d
	addl	%ebx, %r8d
	subl	%r8d, %r9d
	movq	%rbp, %r10
	movq	%rax, -40(%rsp)
	shrx	%r9, %rbp, %r9
.L667:
	leaq	(%rcx,%rcx), %r12
	movq	%r11, %rdx
	leaq	1(%r12), %r13
	shlx	%r8, %r13, %rax
	imulq	%rax, %rdx
	movq	%rdx, %r14
	movq	%rax, %rdx
	mulx	%r10, %r10, %r11
	movq	%r11, -16(%rsp)
	leaq	(%r11,%r14), %r11
	movq	-32(%rsp), %r14
	movq	%r10, -24(%rsp)
	imulq	%rax, %r14
	mulq	-40(%rsp)
	movabsq	$2361183241434822607, %rax
	addq	%rdx, %r14
	addq	-24(%rsp), %r14
	adcq	$0, %r11
	movq	%r11, %r10
	shrq	$3, %r10
	mulq	%r10
	movq	%rdx, %r10
	shrq	$4, %r10
	imull	$1000, %r10d, %eax
	subl	%eax, %r11d
	cmpl	%r9d, %r11d
	jnb	.L675
	notq	%rcx
	andl	$1, %ecx
	cmpl	$-2, %ebx
	setl	%al
	orb	%al, %cl
	jne	.L680
	testl	%r11d, %r11d
	je	.L770
	.p2align 4
	.p2align 3
.L680:
	movq	%r10, %rax
	incl	%esi
	shrq	$32, %rax
	jne	.L771
.L685:
	cmpl	$999999999, %r10d
	ja	.L735
	cmpl	$99999999, %r10d
	ja	.L736
	cmpl	$9999999, %r10d
	ja	.L737
	cmpl	$999999, %r10d
	ja	.L738
	cmpl	$99999, %r10d
	ja	.L739
	cmpl	$9999, %r10d
	ja	.L740
	cmpl	$999, %r10d
	ja	.L741
	cmpl	$99, %r10d
	ja	.L742
	cmpl	$10, %r10d
	sbbq	%rax, %rax
	addq	$3, %rax
	cmpl	$10, %r10d
	sbbq	%rdx, %rdx
	addq	$2, %rdx
	cmpl	$10, %r10d
	sbbl	%r8d, %r8d
	addl	$2, %r8d
.L688:
	movl	$48, %r9d
	leal	(%rsi,%r8), %ecx
	leal	6(%rsi,%r8), %esi
	vpbroadcastb	%r9d, %xmm0
	vmovdqu8	%xmm0, (%rdi)
	vmovdqu8	%xmm0, 16(%rdi)
	cmpl	$23, %esi
	jbe	.L723
	leaq	(%rdi,%rax), %r11
	movq	%r11, %r9
	jmp	.L762
	.p2align 4
	.p2align 3
.L723:
	testl	%ecx, %ecx
	jg	.L689
	movl	$2, %eax
	subl	%ecx, %eax
	cltq
	addq	%rax, %rdx
.L689:
	leaq	(%rdi,%rdx), %r11
	movq	%r11, %r9
	cmpq	$99999999, %r10
	ja	.L722
.L762:
	movl	$4, %r12d
	xorl	%edx, %edx
	xorl	%ebx, %ebx
	jmp	.L690
	.p2align 4
	.p2align 3
.L710:
	movzbl	1(%rdi), %eax
	movb	%al, (%rdi)
	cmpl	$1, %r8d
	je	.L772
	movb	$46, 1(%rdi)
.L715:
	movl	%ecx, %edx
	decl	%edx
	js	.L716
	movw	$11109, (%r9)
.L717:
	cmpl	$99, %edx
	jg	.L719
	leal	(%rdx,%rdx), %eax
	leaq	_ZZN14dragonbox_warpL12Utoa_2DigitsEPcjE9Digits100(%rip), %rdx
	movzwl	(%rdx,%rax), %eax
	movw	%ax, 2(%r9)
	leaq	4(%r9), %rax
	jmp	.L664
	.p2align 4
	.p2align 3
.L767:
	leal	(%rax,%rax), %r10d
	leaq	_ZZN14dragonbox_warpL12Utoa_2DigitsEPcjE9Digits100(%rip), %rbp
	movzwl	0(%rbp,%r10), %r10d
	movw	%r10w, -2(%r11)
	cmpl	%edx, %ebx
	jne	.L709
	movl	%eax, %eax
	leaq	_ZZN14dragonbox_warpL21TrailingZeros_2DigitsEjE16TrailingZeros100(%rip), %rdx
	movsbl	(%rdx,%rax), %eax
	addl	%eax, %ebx
	jmp	.L709
	.p2align 4
	.p2align 3
.L766:
	movl	%eax, %r12d
	movl	%eax, %ebp
	imulq	$1374389535, %r12, %r10
	shrq	$37, %r10
	imull	$100, %r10d, %r13d
	subl	%r13d, %ebp
	leaq	_ZZN14dragonbox_warpL12Utoa_2DigitsEPcjE9Digits100(%rip), %r13
	leal	(%rbp,%rbp), %r14d
	movzwl	0(%r13,%r14), %r14d
	movw	%r14w, -2(%r11)
	cmpl	%edx, %ebx
	jne	.L704
	leaq	_ZZN14dragonbox_warpL21TrailingZeros_2DigitsEjE16TrailingZeros100(%rip), %r14
	movsbl	(%r14,%rbp), %ebp
	addl	%ebp, %ebx
.L704:
	leal	2(%rdx), %r14d
	cmpl	$9999, %eax
	ja	.L705
	subq	$2, %r11
	movl	%r10d, %eax
	movl	%r14d, %edx
	jmp	.L703
	.p2align 4
	.p2align 3
.L675:
	je	.L773
.L678:
	shrl	%r9d
	subl	%r9d, %r11d
	leaq	(%r10,%r10,4), %r10
	leal	50(%r11), %eax
	movq	%rax, %rdx
	imulq	$1374389535, %rax, %rax
	shrq	$37, %rax
	movl	%eax, %ecx
	imull	$100, %eax, %eax
	leaq	(%rcx,%r10,2), %r10
	cmpl	%eax, %edx
	jne	.L674
	movq	-32(%rsp), %rcx
	movq	-40(%rsp), %rax
	imulq	%r12, %rbp
	imulq	%r12, %rcx
	movq	%rax, %rdx
	mulx	%r12, %rax, %rdx
	leaq	(%rcx,%rdx), %rax
	addq	%rax, %rbp
	movl	$64, %eax
	subl	%r8d, %eax
	btq	%rax, %rbp
	jc	.L684
	testb	$1, %r10b
	je	.L674
	cmpl	$-4, %ebx
	jge	.L683
	movl	%r15d, %eax
	subl	%ebx, %eax
	incl	%eax
	cmpl	$63, %eax
	jg	.L674
	bzhi	%rax, %r12, %rax
	testq	%rax, %rax
	jne	.L674
	.p2align 4
	.p2align 3
.L684:
	decq	%r10
	jmp	.L674
	.p2align 4
	.p2align 3
.L768:
	movq	%r9, %rax
	movb	$46, 1(%rdi)
	jmp	.L664
	.p2align 4
	.p2align 3
.L716:
	movl	$1, %edx
	movw	$11621, (%r9)
	subl	%ecx, %edx
	cmpl	$9, %edx
	jg	.L717
	addl	$48, %edx
	leaq	3(%r9), %rax
	movb	%dl, 2(%r9)
	popq	%rbx
	.cfi_remember_state
	.cfi_def_cfa_offset 48
	popq	%rbp
	.cfi_def_cfa_offset 40
	popq	%r12
	.cfi_def_cfa_offset 32
	popq	%r13
	.cfi_def_cfa_offset 24
	popq	%r14
	.cfi_def_cfa_offset 16
	popq	%r15
	.cfi_def_cfa_offset 8
	ret
	.p2align 4
	.p2align 3
.L772:
	.cfi_restore_state
	leaq	1(%rdi), %r9
	jmp	.L715
	.p2align 4
	.p2align 3
.L764:
	movl	%r10d, %eax
	movl	$3518437209, %ebx
	leaq	_ZZN14dragonbox_warpL12Utoa_2DigitsEPcjE9Digits100(%rip), %r12
	imulq	%rbx, %rax
	shrq	$45, %rax
	movl	%eax, %ebx
	imull	$10000, %eax, %r13d
	imulq	$1374389535, %rbx, %rbx
	shrq	$37, %rbx
	movq	%rbx, %rbp
	imull	$100, %ebx, %ebx
	subl	%ebx, %eax
	leal	(%rbp,%rbp), %ebx
	subl	%r13d, %r10d
	movzwl	(%r12,%rbx), %ebx
	movw	%bx, -8(%r9)
	leal	(%rax,%rax), %ebx
	movzwl	(%r12,%rbx), %ebx
	movw	%bx, -6(%r9)
	jne	.L691
	testl	%eax, %eax
	je	.L692
	leaq	_ZZN14dragonbox_warpL21TrailingZeros_2DigitsEjE16TrailingZeros100(%rip), %r10
	movl	$4, %ebx
	movsbl	(%r10,%rax), %eax
.L693:
	movq	%rdx, %r10
	addl	%eax, %ebx
	movl	$12, %r12d
	movl	$8, %edx
	jmp	.L690
	.p2align 4
	.p2align 3
.L765:
	movl	%r10d, %ebp
	leaq	_ZZN14dragonbox_warpL12Utoa_2DigitsEPcjE9Digits100(%rip), %r15
	imulq	$1374389535, %rbp, %rbp
	shrq	$37, %rbp
	movq	%rbp, %r14
	imull	$100, %ebp, %ebp
	subl	%ebp, %r10d
	leal	(%r14,%r14), %ebp
	movzwl	(%r15,%rbp), %ebp
	movw	%bp, -4(%r11)
	leal	(%r10,%r10), %ebp
	movzwl	(%r15,%rbp), %ebp
	movw	%bp, -2(%r11)
	cmpl	%edx, %ebx
	jne	.L701
	testl	%r10d, %r10d
	je	.L699
	leaq	_ZZN14dragonbox_warpL21TrailingZeros_2DigitsEjE16TrailingZeros100(%rip), %rdx
	movsbl	(%rdx,%r10), %edx
	addl	%edx, %ebx
	jmp	.L701
	.p2align 4
	.p2align 3
.L702:
	movl	$808464432, 0(%r13)
	jmp	.L701
	.p2align 4
	.p2align 3
.L719:
	movl	%edx, %eax
	imulq	$1374389535, %rax, %rax
	shrq	$37, %rax
	leal	48(%rax), %ecx
	imull	$100, %eax, %eax
	movb	%cl, 2(%r9)
	subl	%eax, %edx
	leal	(%rdx,%rdx), %eax
	leaq	_ZZN14dragonbox_warpL12Utoa_2DigitsEPcjE9Digits100(%rip), %rdx
	movzwl	(%rdx,%rax), %eax
	movw	%ax, 3(%r9)
	leaq	5(%r9), %rax
	jmp	.L664
	.p2align 4
	.p2align 3
.L770:
	cmpl	$9, %ebx
	jle	.L677
	cmpl	$86, %ebx
	jg	.L680
	movl	%r15d, %eax
	leaq	_ZZN14dragonbox_warpL14MultipleOfPow5EmiE4Mod5(%rip), %rdx
	salq	$4, %rax
	imulq	(%rdx,%rax), %r13
	cmpq	8(%rdx,%rax), %r13
	ja	.L680
.L677:
	decq	%r10
	movl	$1000, %r11d
	jmp	.L678
	.p2align 4
	.p2align 3
.L691:
	movl	%r10d, %eax
	imulq	$1374389535, %rax, %rax
	shrq	$37, %rax
	imull	$100, %eax, %ebx
	subl	%ebx, %r10d
	leal	(%rax,%rax), %ebx
	movzwl	(%r12,%rbx), %ebx
	movw	%bx, -4(%r9)
	leal	(%r10,%r10), %ebx
	movzwl	(%r12,%rbx), %ebx
	movw	%bx, -2(%r9)
	je	.L694
	leaq	_ZZN14dragonbox_warpL21TrailingZeros_2DigitsEjE16TrailingZeros100(%rip), %rax
	movsbl	(%rax,%r10), %ebx
.L695:
	movq	%rdx, %r10
	movl	$12, %r12d
	movl	$8, %edx
	jmp	.L690
	.p2align 4
	.p2align 3
.L741:
	movl	$5, %eax
	movl	$4, %edx
	movl	$4, %r8d
	jmp	.L688
	.p2align 4
	.p2align 3
.L705:
	movl	$3518437209, %eax
	movl	%r10d, %ebp
	imulq	%rax, %r12
	imulq	$1374389535, %rbp, %rbp
	shrq	$45, %r12
	shrq	$37, %rbp
	movq	%r12, %rax
	imull	$100, %ebp, %r12d
	subl	%r12d, %r10d
	movl	%r10d, %ebp
	leaq	-4(%r11), %r10
	leal	(%rbp,%rbp), %r12d
	movzwl	0(%r13,%r12), %r12d
	movw	%r12w, -4(%r11)
	cmpl	%ebx, %r14d
	jne	.L706
	leaq	_ZZN14dragonbox_warpL21TrailingZeros_2DigitsEjE16TrailingZeros100(%rip), %r11
	movsbl	(%r11,%rbp), %r11d
	addl	%r11d, %ebx
.L706:
	addl	$4, %edx
	movq	%r10, %r11
	jmp	.L703
	.p2align 4
	.p2align 3
.L735:
	movl	$11, %r9d
	movl	$10, %edx
	movl	$10, %r8d
	jmp	.L686
	.p2align 4
	.p2align 3
.L728:
	movl	$18, %r9d
	movl	$17, %edx
	movl	$17, %r8d
	jmp	.L686
	.p2align 4
	.p2align 3
.L726:
	movabsq	$-5130745324059681113, %rax
	xorl	%edx, %edx
	movabsq	$-646153205651940552, %r10
	xorl	%r11d, %r11d
	movl	$494, %r9d
	movabsq	$-646153205651940552, %rbp
	movl	$8, %r8d
	movl	$-326, %r15d
	movl	$-324, %esi
	movl	$-1074, %ebx
	movq	%rax, -40(%rsp)
	movq	%rdx, -32(%rsp)
	jmp	.L667
	.p2align 4
	.p2align 3
.L769:
	vmovdqu	(%rax), %xmm1
	vmovdqu	%xmm1, 1(%rdi,%rdx)
	movb	$46, (%rax)
	leaq	1(%r9), %rax
	jmp	.L664
	.p2align 4
	.p2align 3
.L773:
	leaq	-1(%r12), %rax
	cmpl	$-2, %ebx
	jl	.L679
	andl	$1, %ecx
	jne	.L679
	cmpl	$9, %ebx
	jle	.L680
	cmpl	$86, %ebx
	jg	.L679
	movl	%r15d, %edx
	leaq	_ZZN14dragonbox_warpL14MultipleOfPow5EmiE4Mod5(%rip), %rcx
	salq	$4, %rdx
	movq	(%rcx,%rdx), %r11
	imulq	%rax, %r11
	cmpq	8(%rcx,%rdx), %r11
	jbe	.L680
	.p2align 4
	.p2align 3
.L679:
	movq	-32(%rsp), %r11
	movq	-40(%rsp), %rdx
	imulq	%rax, %r11
	mulx	%rax, %rdx, %rcx
	imulq	%rbp, %rax
	leaq	(%r11,%rcx), %rdx
	addq	%rdx, %rax
	movl	$64, %edx
	subl	%r8d, %edx
	btq	%rdx, %rax
	jc	.L680
	movl	%r9d, %r11d
	jmp	.L678
	.p2align 4
	.p2align 3
.L736:
	movl	$10, %r9d
	movl	$9, %edx
	movl	$9, %r8d
	jmp	.L686
	.p2align 4
	.p2align 3
.L729:
	movl	$17, %r9d
	movl	$16, %edx
	movl	$16, %r8d
	jmp	.L686
	.p2align 4
	.p2align 3
.L763:
	andq	$-2, %rax
	movq	%rax, %r10
	jmp	.L674
	.p2align 4
	.p2align 3
.L737:
	movl	$9, %eax
	movl	$8, %edx
	movl	$8, %r8d
	jmp	.L688
	.p2align 4
	.p2align 3
.L730:
	movl	$16, %r9d
	movl	$15, %edx
	movl	$15, %r8d
	jmp	.L686
	.p2align 4
	.p2align 3
.L692:
	movl	%ebp, %ebp
	leaq	_ZZN14dragonbox_warpL21TrailingZeros_2DigitsEjE16TrailingZeros100(%rip), %r10
	movl	$6, %ebx
	movsbl	(%r10,%rbp), %eax
	jmp	.L693
	.p2align 4
	.p2align 3
.L731:
	movl	$15, %r9d
	movl	$14, %edx
	movl	$14, %r8d
	jmp	.L686
	.p2align 4
	.p2align 3
.L738:
	movl	$8, %eax
	movl	$7, %edx
	movl	$7, %r8d
	jmp	.L688
	.p2align 4
	.p2align 3
.L732:
	movl	$14, %r9d
	movl	$13, %edx
	movl	$13, %r8d
	jmp	.L686
	.p2align 4
	.p2align 3
.L739:
	movl	$7, %eax
	movl	$6, %edx
	movl	$6, %r8d
	jmp	.L688
	.p2align 4
	.p2align 3
.L740:
	movl	$6, %eax
	movl	$5, %edx
	movl	$5, %r8d
	jmp	.L688
	.p2align 4
	.p2align 3
.L733:
	movl	$13, %r9d
	movl	$12, %edx
	movl	$12, %r8d
	jmp	.L686
	.p2align 4
	.p2align 3
.L699:
	movl	%r14d, %r14d
	leaq	_ZZN14dragonbox_warpL21TrailingZeros_2DigitsEjE16TrailingZeros100(%rip), %rdx
	movsbl	(%rdx,%r14), %edx
	addl	$2, %edx
	addl	%edx, %ebx
	jmp	.L701
	.p2align 4
	.p2align 3
.L694:
	movl	%eax, %eax
	leaq	_ZZN14dragonbox_warpL21TrailingZeros_2DigitsEjE16TrailingZeros100(%rip), %r10
	movsbl	(%r10,%rax), %ebx
	addl	$2, %ebx
	jmp	.L695
.L742:
	movl	$4, %eax
	movl	$3, %edx
	movl	$3, %r8d
	jmp	.L688
.L683:
	cmpl	$9, %ebx
	jle	.L684
	cmpl	$86, %ebx
	jg	.L674
	movl	%r15d, %eax
	leaq	_ZZN14dragonbox_warpL14MultipleOfPow5EmiE4Mod5(%rip), %rdx
	salq	$4, %rax
	imulq	(%rdx,%rax), %r12
	cmpq	8(%rdx,%rax), %r12
	jbe	.L684
	jmp	.L674
	.cfi_endproc
.LFE10442:
	.size	_ZN9dragonbox4DtoaEPcd, .-_ZN9dragonbox4DtoaEPcd
	.p2align 4
	.globl	d2s_buffered_n
	.type	d2s_buffered_n, @function
d2s_buffered_n:
.LFB10470:
	.cfi_startproc
	endbr64
	vmovq	%xmm0, %rax
	pushq	%rbp
	.cfi_def_cfa_offset 16
	.cfi_offset 6, -16
	pushq	%rbx
	.cfi_def_cfa_offset 24
	.cfi_offset 3, -24
	movq	%rdi, %rbx
	movq	%rax, %rdx
	movq	%rax, %rbp
	movabsq	$4503599627370495, %rdi
	subq	$8, %rsp
	.cfi_def_cfa_offset 32
	shrq	$52, %rdx
	movl	%edx, %esi
	notl	%edx
	andq	%rax, %rdi
	shrq	$63, %rbp
	andl	$2047, %esi
	andl	$2047, %edx
	je	.L775
	testl	%esi, %esi
	jne	.L776
	testq	%rdi, %rdi
	jne	.L776
	testq	%rax, %rax
	js	.L777
.L778:
	addq	%rbp, %rbx
	leal	3(%rbp), %eax
	movw	$17712, (%rbx)
	movb	$48, 2(%rbx)
.L781:
	addq	$8, %rsp
	.cfi_remember_state
	.cfi_def_cfa_offset 24
	popq	%rbx
	.cfi_def_cfa_offset 16
	popq	%rbp
	.cfi_def_cfa_offset 8
	ret
	.p2align 4
	.p2align 3
.L776:
	.cfi_restore_state
	leal	-1023(%rsi), %eax
	cmpl	$52, %eax
	jbe	.L794
.L782:
	call	_ZL3d2dmj
	movq	%rax, %rdi
	movl	%edx, %esi
.L783:
	addq	$8, %rsp
	.cfi_remember_state
	.cfi_def_cfa_offset 24
	movzbl	%bpl, %edx
	movq	%rbx, %rcx
	popq	%rbx
	.cfi_def_cfa_offset 16
	popq	%rbp
	.cfi_def_cfa_offset 8
	jmp	_ZL8to_chars19floating_decimal_64bPc.isra.0
	.p2align 4
	.p2align 3
.L775:
	.cfi_restore_state
	testq	%rdi, %rdi
	jne	.L779
	testq	%rax, %rax
	jns	.L780
	movb	$45, (%rbx)
.L780:
	movabsq	$8751735898823355977, %rax
	movq	%rax, (%rbx,%rbp)
	addq	$8, %rsp
	.cfi_remember_state
	.cfi_def_cfa_offset 24
	leal	8(%rbp), %eax
	popq	%rbx
	.cfi_def_cfa_offset 16
	popq	%rbp
	.cfi_def_cfa_offset 8
	ret
	.p2align 4
	.p2align 3
.L777:
	.cfi_restore_state
	movb	$45, (%rbx)
	jmp	.L778
	.p2align 4
	.p2align 3
.L779:
	movl	$3, %eax
	movw	$24910, (%rbx)
	movb	$78, 2(%rbx)
	jmp	.L781
	.p2align 4
	.p2align 3
.L794:
	movq	%rdi, %rdx
	movl	$1075, %eax
	btsq	$52, %rdx
	subl	%esi, %eax
	bzhi	%rax, %rdx, %rcx
	testq	%rcx, %rcx
	jne	.L782
	shrx	%rax, %rdx, %rdi
	movabsq	$-3689348814741910323, %r8
	movq	%rdi, %rax
	mulq	%r8
	shrq	$3, %rdx
	leal	(%rdx,%rdx,4), %eax
	addl	%eax, %eax
	cmpl	%edi, %eax
	jne	.L785
	movl	$1, %ecx
	.p2align 4
	.p2align 3
.L784:
	movq	%rdx, %rax
	movq	%rdx, %rdi
	movl	%ecx, %esi
	incl	%ecx
	mulq	%r8
	shrq	$3, %rdx
	leal	(%rdx,%rdx,4), %eax
	addl	%eax, %eax
	cmpl	%edi, %eax
	je	.L784
	jmp	.L783
	.p2align 4
	.p2align 3
.L785:
	xorl	%esi, %esi
	jmp	.L783
	.cfi_endproc
.LFE10470:
	.size	d2s_buffered_n, .-d2s_buffered_n
	.p2align 4
	.globl	d2s_buffered
	.type	d2s_buffered, @function
d2s_buffered:
.LFB10471:
	.cfi_startproc
	endbr64
	vmovq	%xmm0, %rax
	pushq	%rbp
	.cfi_def_cfa_offset 16
	.cfi_offset 6, -16
	pushq	%rbx
	.cfi_def_cfa_offset 24
	.cfi_offset 3, -24
	movq	%rdi, %rbx
	movq	%rax, %rdx
	movq	%rax, %rbp
	movabsq	$4503599627370495, %rdi
	subq	$8, %rsp
	.cfi_def_cfa_offset 32
	shrq	$52, %rdx
	movl	%edx, %esi
	notl	%edx
	andq	%rax, %rdi
	shrq	$63, %rbp
	andl	$2047, %esi
	andl	$2047, %edx
	je	.L796
	testl	%esi, %esi
	jne	.L797
	testq	%rdi, %rdi
	jne	.L797
	testq	%rax, %rax
	jns	.L799
	movb	$45, (%rbx)
.L799:
	leaq	(%rbx,%rbp), %rax
	movw	$17712, (%rax)
	movb	$48, 2(%rax)
	leaq	3(%rbp), %rax
	movb	$0, (%rbx,%rax)
	addq	$8, %rsp
	.cfi_remember_state
	.cfi_def_cfa_offset 24
	popq	%rbx
	.cfi_def_cfa_offset 16
	popq	%rbp
	.cfi_def_cfa_offset 8
	ret
	.p2align 4
	.p2align 3
.L797:
	.cfi_restore_state
	leal	-1023(%rsi), %eax
	cmpl	$52, %eax
	jbe	.L815
.L803:
	call	_ZL3d2dmj
	movq	%rax, %rdi
	movl	%edx, %esi
.L804:
	movzbl	%bpl, %edx
	movq	%rbx, %rcx
	call	_ZL8to_chars19floating_decimal_64bPc.isra.0
	cltq
.L802:
	movb	$0, (%rbx,%rax)
	addq	$8, %rsp
	.cfi_remember_state
	.cfi_def_cfa_offset 24
	popq	%rbx
	.cfi_def_cfa_offset 16
	popq	%rbp
	.cfi_def_cfa_offset 8
	ret
	.p2align 4
	.p2align 3
.L796:
	.cfi_restore_state
	testq	%rdi, %rdi
	jne	.L800
	testq	%rax, %rax
	jns	.L801
	movb	$45, (%rbx)
.L801:
	movabsq	$8751735898823355977, %rax
	movq	%rax, (%rbx,%rbp)
	leaq	8(%rbp), %rax
	movb	$0, (%rbx,%rax)
	addq	$8, %rsp
	.cfi_remember_state
	.cfi_def_cfa_offset 24
	popq	%rbx
	.cfi_def_cfa_offset 16
	popq	%rbp
	.cfi_def_cfa_offset 8
	ret
	.p2align 4
	.p2align 3
.L800:
	.cfi_restore_state
	movl	$3, %eax
	movw	$24910, (%rbx)
	movb	$78, 2(%rbx)
	jmp	.L802
	.p2align 4
	.p2align 3
.L815:
	movq	%rdi, %rdx
	movl	$1075, %eax
	btsq	$52, %rdx
	subl	%esi, %eax
	bzhi	%rax, %rdx, %rcx
	testq	%rcx, %rcx
	jne	.L803
	shrx	%rax, %rdx, %rdi
	movabsq	$-3689348814741910323, %r8
	movq	%rdi, %rax
	mulq	%r8
	shrq	$3, %rdx
	leal	(%rdx,%rdx,4), %eax
	addl	%eax, %eax
	cmpl	%edi, %eax
	jne	.L806
	movl	$1, %ecx
	.p2align 4
	.p2align 3
.L805:
	movq	%rdx, %rax
	movq	%rdx, %rdi
	movl	%ecx, %esi
	incl	%ecx
	mulq	%r8
	shrq	$3, %rdx
	leal	(%rdx,%rdx,4), %eax
	addl	%eax, %eax
	cmpl	%edi, %eax
	je	.L805
	jmp	.L804
	.p2align 4
	.p2align 3
.L806:
	xorl	%esi, %esi
	jmp	.L804
	.cfi_endproc
.LFE10471:
	.size	d2s_buffered, .-d2s_buffered
	.p2align 4
	.globl	d2s
	.type	d2s, @function
d2s:
.LFB10472:
	.cfi_startproc
	endbr64
	pushq	%rbp
	.cfi_def_cfa_offset 16
	.cfi_offset 6, -16
	pushq	%rbx
	.cfi_def_cfa_offset 24
	.cfi_offset 3, -24
	movl	$25, %edi
	vmovq	%xmm0, %rbx
	subq	$8, %rsp
	.cfi_def_cfa_offset 32
	call	malloc@PLT
	movabsq	$4503599627370495, %rdi
	movq	%rax, %rbp
	movq	%rbx, %rax
	movq	%rax, %rdx
	andq	%rax, %rdi
	shrq	$52, %rdx
	movl	%edx, %esi
	notl	%edx
	shrq	$63, %rbx
	andl	$2047, %esi
	andl	$2047, %edx
	je	.L817
	testl	%esi, %esi
	jne	.L818
	testq	%rdi, %rdi
	jne	.L818
	testq	%rax, %rax
	jns	.L820
	movb	$45, 0(%rbp)
.L820:
	leaq	0(%rbp,%rbx), %rax
	movw	$17712, (%rax)
	movb	$48, 2(%rax)
	leaq	3(%rbx), %rax
	movb	$0, 0(%rbp,%rax)
	addq	$8, %rsp
	.cfi_remember_state
	.cfi_def_cfa_offset 24
	movq	%rbp, %rax
	popq	%rbx
	.cfi_def_cfa_offset 16
	popq	%rbp
	.cfi_def_cfa_offset 8
	ret
	.p2align 4
	.p2align 3
.L818:
	.cfi_restore_state
	leal	-1023(%rsi), %eax
	cmpl	$52, %eax
	jbe	.L836
.L824:
	call	_ZL3d2dmj
	movq	%rax, %rdi
	movl	%edx, %esi
.L825:
	movzbl	%bl, %edx
	movq	%rbp, %rcx
	call	_ZL8to_chars19floating_decimal_64bPc.isra.0
	cltq
.L823:
	movb	$0, 0(%rbp,%rax)
	addq	$8, %rsp
	.cfi_remember_state
	.cfi_def_cfa_offset 24
	movq	%rbp, %rax
	popq	%rbx
	.cfi_def_cfa_offset 16
	popq	%rbp
	.cfi_def_cfa_offset 8
	ret
	.p2align 4
	.p2align 3
.L817:
	.cfi_restore_state
	testq	%rdi, %rdi
	jne	.L821
	testq	%rax, %rax
	jns	.L822
	movb	$45, 0(%rbp)
.L822:
	movabsq	$8751735898823355977, %rax
	movq	%rax, 0(%rbp,%rbx)
	leaq	8(%rbx), %rax
	movb	$0, 0(%rbp,%rax)
	addq	$8, %rsp
	.cfi_remember_state
	.cfi_def_cfa_offset 24
	movq	%rbp, %rax
	popq	%rbx
	.cfi_def_cfa_offset 16
	popq	%rbp
	.cfi_def_cfa_offset 8
	ret
	.p2align 4
	.p2align 3
.L821:
	.cfi_restore_state
	movl	$3, %eax
	movw	$24910, 0(%rbp)
	movb	$78, 2(%rbp)
	jmp	.L823
	.p2align 4
	.p2align 3
.L836:
	movq	%rdi, %rdx
	movl	$1075, %eax
	btsq	$52, %rdx
	subl	%esi, %eax
	bzhi	%rax, %rdx, %rcx
	testq	%rcx, %rcx
	jne	.L824
	shrx	%rax, %rdx, %rdi
	movabsq	$-3689348814741910323, %r8
	movq	%rdi, %rax
	mulq	%r8
	shrq	$3, %rdx
	leal	(%rdx,%rdx,4), %eax
	addl	%eax, %eax
	cmpl	%edi, %eax
	jne	.L827
	movl	$1, %ecx
	.p2align 4
	.p2align 3
.L826:
	movq	%rdx, %rax
	movq	%rdx, %rdi
	movl	%ecx, %esi
	incl	%ecx
	mulq	%r8
	shrq	$3, %rdx
	leal	(%rdx,%rdx,4), %eax
	addl	%eax, %eax
	cmpl	%edi, %eax
	je	.L826
	jmp	.L825
	.p2align 4
	.p2align 3
.L827:
	xorl	%esi, %esi
	jmp	.L825
	.cfi_endproc
.LFE10472:
	.size	d2s, .-d2s
	.section	.rodata.str1.8
	.align 8
.LC48:
	.string	"uint32_t decimalLength9(uint32_t)"
	.section	.rodata.str1.1
.LC49:
	.string	"v < 1000000000"
	.text
	.p2align 4
	.globl	f2s_buffered_n
	.type	f2s_buffered_n, @function
f2s_buffered_n:
.LFB10481:
	.cfi_startproc
	endbr64
	pushq	%r15
	.cfi_def_cfa_offset 16
	.cfi_offset 15, -16
	pushq	%r14
	.cfi_def_cfa_offset 24
	.cfi_offset 14, -24
	pushq	%r13
	.cfi_def_cfa_offset 32
	.cfi_offset 13, -32
	pushq	%r12
	.cfi_def_cfa_offset 40
	.cfi_offset 12, -40
	pushq	%rbp
	.cfi_def_cfa_offset 48
	.cfi_offset 6, -48
	vmovd	%xmm0, %ebp
	pushq	%rbx
	.cfi_def_cfa_offset 56
	.cfi_offset 3, -56
	movl	%ebp, %esi
	movq	%rdi, %rbx
	movl	%ebp, %eax
	movl	%ebp, %edi
	shrl	$23, %esi
	movzbl	%sil, %esi
	subq	$40, %rsp
	.cfi_def_cfa_offset 96
	andl	$8388607, %edi
	shrl	$31, %eax
	cmpl	$255, %esi
	je	.L838
	movl	%edi, %edx
	orl	%esi, %edx
	jne	.L839
	testl	%ebp, %ebp
	js	.L840
.L841:
	movzbl	%al, %edx
	addl	$3, %eax
	addq	%rbx, %rdx
	movw	$17712, (%rdx)
	movb	$48, 2(%rdx)
.L837:
	addq	$40, %rsp
	.cfi_remember_state
	.cfi_def_cfa_offset 56
	popq	%rbx
	.cfi_def_cfa_offset 48
	popq	%rbp
	.cfi_def_cfa_offset 40
	popq	%r12
	.cfi_def_cfa_offset 32
	popq	%r13
	.cfi_def_cfa_offset 24
	popq	%r14
	.cfi_def_cfa_offset 16
	popq	%r15
	.cfi_def_cfa_offset 8
	ret
	.p2align 4
	.p2align 3
.L840:
	.cfi_restore_state
	movb	$45, (%rbx)
	jmp	.L841
	.p2align 4
	.p2align 3
.L839:
	call	_ZL3f2djj
	movq	%rax, %r9
	testl	%ebp, %ebp
	js	.L870
	movl	$8, %edi
	movl	$9, %r10d
	movl	$5, %r14d
	movl	$7, %r8d
	movl	$6, %ebp
	movl	$3, %edx
	movl	$2, %eax
	movl	$1, %r11d
	movl	$1, %esi
	xorl	%r12d, %r12d
	xorl	%r13d, %r13d
	movq	$-1, 24(%rsp)
.L845:
	movl	%r9d, %ecx
	cmpl	$999999999, %r9d
	ja	.L871
	cmpl	$99999999, %r9d
	ja	.L859
	cmpl	$9999999, %r9d
	ja	.L860
	cmpl	$999999, %r9d
	ja	.L861
	cmpl	$99999, %r9d
	ja	.L862
	cmpl	$9999, %r9d
	ja	.L863
	cmpl	$999, %r9d
	ja	.L864
	cmpl	$99, %r9d
	ja	.L865
	cmpl	$9, %r9d
	ja	.L872
	leal	48(%r9), %eax
	movl	$1, %ebp
	movb	%al, (%rbx,%r13)
	jmp	.L855
	.p2align 4
	.p2align 3
.L838:
	testl	%edi, %edi
	jne	.L842
	testl	%ebp, %ebp
	jns	.L843
	movb	$45, (%rbx)
.L843:
	movzbl	%al, %edx
	movabsq	$8751735898823355977, %rcx
	addl	$8, %eax
	movq	%rcx, (%rbx,%rdx)
	addq	$40, %rsp
	.cfi_remember_state
	.cfi_def_cfa_offset 56
	popq	%rbx
	.cfi_def_cfa_offset 48
	popq	%rbp
	.cfi_def_cfa_offset 40
	popq	%r12
	.cfi_def_cfa_offset 32
	popq	%r13
	.cfi_def_cfa_offset 24
	popq	%r14
	.cfi_def_cfa_offset 16
	popq	%r15
	.cfi_def_cfa_offset 8
	ret
	.p2align 4
	.p2align 3
.L870:
	.cfi_restore_state
	movl	$9, %edi
	movl	$10, %r10d
	movl	$6, %r14d
	movl	$8, %r8d
	movl	$7, %ebp
	movl	$4, %edx
	movl	$3, %eax
	movl	$2, %r11d
	movl	$2, %esi
	movl	$1, %r12d
	movl	$1, %r13d
	movb	$45, (%rbx)
	movq	$0, 24(%rsp)
	jmp	.L845
	.p2align 4
	.p2align 3
.L842:
	movl	$3, %eax
	movw	$24910, (%rbx)
	movb	$78, 2(%rbx)
	jmp	.L837
	.p2align 4
	.p2align 3
.L859:
	movl	$9, %ebp
	movl	$9, %edx
	movl	$9, 4(%rsp)
.L847:
	leaq	_ZL11DIGIT_TABLE(%rip), %r14
	movq	%rdx, 8(%rsp)
	xorl	%esi, %esi
	movl	$3518437209, %r15d
	movq	%r14, %rdx
	movq	%r9, 16(%rsp)
	.p2align 4
	.p2align 3
.L851:
	movl	%ecx, %eax
	movl	%ecx, %r14d
	movl	%ecx, %r8d
	imulq	%r15, %rax
	movq	%rax, %rdi
	shrq	$45, %rdi
	imull	$10000, %edi, %edi
	shrq	$45, %rax
	subl	%edi, %r14d
	movq	%rax, %rcx
	movq	%r10, %rdi
	movl	%esi, %eax
	subq	%rax, %rdi
	movl	%r14d, %eax
	imulq	$1374389535, %rax, %rax
	shrq	$37, %rax
	imull	$100, %eax, %r9d
	addl	%eax, %eax
	subl	%r9d, %r14d
	addl	%r14d, %r14d
	movl	%r14d, %r14d
	movzwl	(%rdx,%r14), %r9d
	movw	%r9w, -1(%rbx,%rdi)
	movzwl	(%rdx,%rax), %eax
	movw	%ax, -3(%rbx,%rdi)
	movl	%esi, %eax
	addl	$4, %esi
	cmpl	$99999999, %r8d
	ja	.L851
	movq	%rdx, %r14
	movq	16(%rsp), %r9
	movq	8(%rsp), %rdx
	cmpl	$999999, %r8d
	ja	.L873
.L852:
	cmpl	$9, %ecx
	ja	.L874
	addl	$48, %ecx
	movb	%cl, (%rbx,%r13)
.L854:
	movl	4(%rsp), %eax
	movb	$46, (%rbx,%r11)
	leal	1(%rax,%r12), %r11d
	movq	%r11, %rsi
.L855:
	sarq	$32, %r9
	movb	$69, (%rbx,%r11)
	leal	-1(%rbp,%r9), %edx
	leal	1(%rsi), %eax
	leal	0(%rbp,%r9), %ecx
	testl	%edx, %edx
	jns	.L856
	cltq
	movl	$1, %edx
	movb	$45, (%rbx,%rax)
	subl	%ecx, %edx
	leal	2(%rsi), %eax
.L856:
	movslq	%eax, %rcx
	addq	%rcx, %rbx
	cmpl	$9, %edx
	jg	.L875
	addl	$48, %edx
	incl	%eax
	movb	%dl, (%rbx)
	addq	$40, %rsp
	.cfi_remember_state
	.cfi_def_cfa_offset 56
	popq	%rbx
	.cfi_def_cfa_offset 48
	popq	%rbp
	.cfi_def_cfa_offset 40
	popq	%r12
	.cfi_def_cfa_offset 32
	popq	%r13
	.cfi_def_cfa_offset 24
	popq	%r14
	.cfi_def_cfa_offset 16
	popq	%r15
	.cfi_def_cfa_offset 8
	ret
	.p2align 4
	.p2align 3
.L874:
	.cfi_restore_state
	movl	4(%rsp), %eax
	addl	%r12d, %eax
	subl	%esi, %eax
.L849:
	addl	%ecx, %ecx
	leal	1(%rcx), %edx
	movzbl	(%r14,%rdx), %edx
	movb	%dl, (%rbx,%rax)
	movzbl	(%r14,%rcx), %eax
	movb	%al, (%rbx,%r13)
	jmp	.L854
	.p2align 4
	.p2align 3
.L875:
	addl	%edx, %edx
	leaq	_ZL11DIGIT_TABLE(%rip), %rcx
	addl	$2, %eax
	movslq	%edx, %rdx
	movzwl	(%rcx,%rdx), %edx
	movw	%dx, (%rbx)
	jmp	.L837
	.p2align 4
	.p2align 3
.L873:
	movq	24(%rsp), %r15
	addq	%rdx, %r15
	movq	%r15, %rdx
	subq	%rsi, %rdx
	leal	6(%rax), %esi
.L848:
	movl	%ecx, %eax
	imulq	$1374389535, %rax, %rax
	shrq	$37, %rax
	imull	$100, %eax, %r8d
	subl	%r8d, %ecx
	movl	%ecx, %edi
	movl	%eax, %ecx
	leal	(%rdi,%rdi), %eax
	movzwl	(%r14,%rax), %eax
	movw	%ax, (%rbx,%rdx)
	jmp	.L852
.L865:
	movq	%rax, %rdx
	movl	$3, %ebp
	movl	$2, %esi
	leaq	_ZL11DIGIT_TABLE(%rip), %r14
	movl	$3, 4(%rsp)
	jmp	.L848
	.p2align 4
	.p2align 3
.L860:
	movq	%rdi, %r10
	movl	$8, %ebp
	movl	$8, %edx
	movl	$8, 4(%rsp)
	jmp	.L847
	.p2align 4
	.p2align 3
.L861:
	movq	%r8, %r10
	movl	$7, %ebp
	movl	$7, %edx
	movl	$7, 4(%rsp)
	jmp	.L847
	.p2align 4
	.p2align 3
.L862:
	movq	%rbp, %r10
	movl	$6, %edx
	movl	$6, %ebp
	movl	$6, 4(%rsp)
	jmp	.L847
.L863:
	movq	%r14, %r10
	movl	$5, %ebp
	movl	$5, %edx
	movl	$5, 4(%rsp)
	jmp	.L847
.L864:
	movl	$4, %ebp
	movl	$2, %esi
	leaq	_ZL11DIGIT_TABLE(%rip), %r14
	movl	$4, 4(%rsp)
	jmp	.L848
.L872:
	movl	$2, %ebp
	leaq	_ZL11DIGIT_TABLE(%rip), %r14
	movl	$2, 4(%rsp)
	jmp	.L849
.L871:
	leaq	.LC48(%rip), %rcx
	movl	$34, %edx
	leaq	.LC2(%rip), %rsi
	leaq	.LC49(%rip), %rdi
	call	__assert_fail@PLT
	.cfi_endproc
.LFE10481:
	.size	f2s_buffered_n, .-f2s_buffered_n
	.p2align 4
	.globl	f2s_buffered
	.type	f2s_buffered, @function
f2s_buffered:
.LFB10482:
	.cfi_startproc
	endbr64
	pushq	%rbx
	.cfi_def_cfa_offset 16
	.cfi_offset 3, -16
	movq	%rdi, %rbx
	call	f2s_buffered_n
	cltq
	movb	$0, (%rbx,%rax)
	popq	%rbx
	.cfi_def_cfa_offset 8
	ret
	.cfi_endproc
.LFE10482:
	.size	f2s_buffered, .-f2s_buffered
	.p2align 4
	.globl	f2s
	.type	f2s, @function
f2s:
.LFB10483:
	.cfi_startproc
	endbr64
	pushq	%rbx
	.cfi_def_cfa_offset 16
	.cfi_offset 3, -16
	movl	$16, %edi
	subq	$16, %rsp
	.cfi_def_cfa_offset 32
	vmovss	%xmm0, 12(%rsp)
	call	malloc@PLT
	vmovss	12(%rsp), %xmm0
	movq	%rax, %rdi
	movq	%rax, %rbx
	call	f2s_buffered_n
	cltq
	movb	$0, (%rbx,%rax)
	addq	$16, %rsp
	.cfi_def_cfa_offset 16
	movq	%rbx, %rax
	popq	%rbx
	.cfi_def_cfa_offset 8
	ret
	.cfi_endproc
.LFE10483:
	.size	f2s, .-f2s
	.section	.rodata.str1.8
	.align 8
.LC50:
	.string	"int32_t teju_log10_pow2(int32_t)"
	.section	.rodata.str1.1
.LC51:
	.string	"teju/generated/../common.h"
	.section	.rodata.str1.8
	.align 8
.LC52:
	.string	"teju_log10_pow2_min <= e && e <= teju_log10_pow2_max"
	.text
	.p2align 4
	.globl	teju_ieee64_with_uint128
	.type	teju_ieee64_with_uint128, @function
teju_ieee64_with_uint128:
.LFB10501:
	.cfi_startproc
	endbr64
	pushq	%r13
	.cfi_def_cfa_offset 16
	.cfi_offset 13, -16
	leal	52(%rdi), %eax
	pushq	%r12
	.cfi_def_cfa_offset 24
	.cfi_offset 12, -24
	pushq	%rbp
	.cfi_def_cfa_offset 32
	.cfi_offset 6, -32
	pushq	%rbx
	.cfi_def_cfa_offset 40
	.cfi_offset 3, -40
	movq	%rsi, %r9
	movq	%rdi, %rsi
	subq	$8, %rsp
	.cfi_def_cfa_offset 48
	cmpl	$52, %eax
	ja	.L881
	movl	%edi, %eax
	negl	%eax
	shrx	%rax, %r9, %rdx
	shlx	%rax, %rdx, %rax
	cmpq	%rax, %r9
	je	.L937
.L883:
	movslq	%esi, %r8
	imull	$1292913987, %esi, %edi
	movl	$3566893131, %eax
	imulq	$1292913987, %r8, %r8
	imulq	%rax, %rdi
	leaq	_ZL11multipliers(%rip), %rax
	sarq	$32, %r8
	leal	324(%r8), %edx
	movl	%r8d, %ecx
	salq	$4, %rdx
	addq	%rdx, %rax
	movq	(%rax), %r10
	movq	8(%rax), %r11
	movabsq	$4503599627370496, %rax
	shrq	$62, %rdi
	cmpq	%rax, %r9
	jne	.L908
	cmpl	$-1074, %esi
	je	.L908
	movabsq	$18014398509481983, %rdx
	shlx	%rdi, %rdx, %rdx
	movq	%rdx, %rax
	mulx	%r10, %r12, %r13
	mulq	%r11
	addq	%rdx, %r12
	movabsq	$9007199254740993, %rdx
	adcq	$0, %r13
	shlx	%rdi, %rdx, %rdx
	movq	%rdx, %rax
	movq	%r13, %rsi
	mulx	%r10, %r12, %r13
	mulq	%r11
	shrq	%rsi
	addq	%rdx, %r12
	adcq	$0, %r13
	movq	%r13, %rax
	cmpq	%r13, %rsi
	jnb	.L899
	movabsq	$1844674407370955162, %rdx
	mulx	%rax, %rax, %rdx
	leaq	(%rdx,%rdx,4), %rax
	addq	%rax, %rax
	cmpq	%rax, %rsi
	jb	.L938
	subl	$10, %edi
	negl	%edi
	shrx	%rdi, %r10, %rdi
	movq	%rdi, %rdx
	shrq	%rdx
	cmpq	%rdx, %rsi
	je	.L936
	testb	$1, %dil
	je	.L886
	testb	$1, %dl
	jne	.L936
	negl	%r8d
	cmpl	$26, %r8d
	ja	.L936
	movslq	%r8d, %r8
	leaq	_ZL8minverse(%rip), %rax
	salq	$4, %r8
	imulq	(%rax,%r8), %rdi
	cmpq	8(%rax,%r8), %rdi
	ja	.L936
.L886:
	addq	$8, %rsp
	.cfi_remember_state
	.cfi_def_cfa_offset 40
	movl	%ecx, %eax
	popq	%rbx
	.cfi_def_cfa_offset 32
	popq	%rbp
	.cfi_def_cfa_offset 24
	popq	%r12
	.cfi_def_cfa_offset 16
	popq	%r13
	.cfi_def_cfa_offset 8
	ret
	.p2align 4
	.p2align 3
.L908:
	.cfi_restore_state
	leaq	(%r9,%r9), %rbx
	leaq	-1(%rbx), %rsi
	shlx	%rdi, %rsi, %rsi
	movq	%rsi, %rdx
	movq	%rsi, %rax
	mulx	%r10, %r12, %r13
	mulq	%r11
	addq	%rdx, %r12
	adcq	$0, %r13
	incq	%rbx
	shlx	%rdi, %rbx, %rbx
	movq	%rbx, %rdx
	movq	%rbx, %rax
	movq	%r13, %rbp
	mulx	%r10, %r12, %r13
	mulq	%r11
	movabsq	$1844674407370955162, %rax
	addq	%rdx, %r12
	adcq	$0, %r13
	mulq	%r13
	leaq	(%rdx,%rdx,4), %r12
	movq	%rdx, %rax
	addq	%r12, %r12
	cmpq	%r12, %rbp
	jnb	.L890
	cmpq	%r13, %r12
	jnb	.L939
.L891:
	movabsq	$-3689348814741910323, %rdi
	movabsq	$1844674407370955161, %rsi
	leal	1(%r8), %ecx
	imulq	%rdi, %rax
	rorx	$1, %rax, %rax
	cmpq	%rax, %rsi
	jb	.L886
	.p2align 4
	.p2align 3
.L893:
	movq	%rax, %rdx
	imulq	%rdi, %rax
	incl	%ecx
	rorx	$1, %rax, %rax
	cmpq	%rax, %rsi
	jnb	.L893
	addq	$8, %rsp
	.cfi_remember_state
	.cfi_def_cfa_offset 40
	movl	%ecx, %eax
	popq	%rbx
	.cfi_def_cfa_offset 32
	popq	%rbp
	.cfi_def_cfa_offset 24
	popq	%r12
	.cfi_def_cfa_offset 16
	popq	%r13
	.cfi_def_cfa_offset 8
	ret
	.p2align 4
	.p2align 3
.L881:
	.cfi_restore_state
	leal	112815(%rdi), %eax
	cmpl	$225630, %eax
	jbe	.L883
	leaq	.LC50(%rip), %rcx
	movl	$62, %edx
	leaq	.LC51(%rip), %rsi
	leaq	.LC52(%rip), %rdi
	call	__assert_fail@PLT
	.p2align 4
	.p2align 3
.L890:
	cmpq	%rbp, %r12
	je	.L940
.L892:
	addq	%rbp, %r13
	testb	$1, %r13b
	jne	.L941
	leaq	0(,%r9,4), %rdx
	shlx	%rdi, %rdx, %rdx
	movq	%rdx, %rax
	mulx	%r10, %rsi, %rdi
	mulq	%r11
	addq	%rdx, %rsi
	adcq	$0, %rdi
	movq	%rdi, %rdx
	movq	%rdi, %rax
	shrq	%rdx
	testb	$1, %dil
	je	.L886
	testb	$1, %dl
	jne	.L936
	negl	%r8d
	cmpl	$26, %r8d
	ja	.L936
	movslq	%r8d, %r8
	leaq	_ZL8minverse(%rip), %rsi
	salq	$4, %r8
	imulq	(%rsi,%r8), %rax
	cmpq	8(%rsi,%r8), %rax
	jbe	.L886
.L936:
	addq	$8, %rsp
	.cfi_remember_state
	.cfi_def_cfa_offset 40
	incq	%rdx
	movl	%ecx, %eax
	popq	%rbx
	.cfi_def_cfa_offset 32
	popq	%rbp
	.cfi_def_cfa_offset 24
	popq	%r12
	.cfi_def_cfa_offset 16
	popq	%r13
	.cfi_def_cfa_offset 8
	ret
	.p2align 4
	.p2align 3
.L937:
	.cfi_restore_state
	movabsq	$-3689348814741910323, %rdi
	movq	%rdx, %rax
	movabsq	$1844674407370955161, %rsi
	xorl	%ecx, %ecx
	imulq	%rdi, %rax
	rorx	$1, %rax, %rax
	cmpq	%rax, %rsi
	jb	.L886
	.p2align 4
	.p2align 3
.L885:
	movq	%rax, %rdx
	imulq	%rdi, %rax
	incl	%ecx
	rorx	$1, %rax, %rax
	cmpq	%rax, %rsi
	jnb	.L885
	addq	$8, %rsp
	.cfi_remember_state
	.cfi_def_cfa_offset 40
	movl	%ecx, %eax
	popq	%rbx
	.cfi_def_cfa_offset 32
	popq	%rbp
	.cfi_def_cfa_offset 24
	popq	%r12
	.cfi_def_cfa_offset 16
	popq	%r13
	.cfi_def_cfa_offset 8
	ret
	.p2align 4
	.p2align 3
.L938:
	.cfi_restore_state
	movabsq	$-3689348814741910323, %rdi
	movq	%rdx, %rax
	movabsq	$1844674407370955161, %rsi
	leal	1(%r8), %ecx
	imulq	%rdi, %rax
	rorx	$1, %rax, %rax
	cmpq	%rax, %rsi
	jb	.L886
	.p2align 4
	.p2align 3
.L901:
	movq	%rax, %rdx
	imulq	%rdi, %rax
	incl	%ecx
	rorx	$1, %rax, %rax
	cmpq	%rax, %rsi
	jnb	.L901
	addq	$8, %rsp
	.cfi_remember_state
	.cfi_def_cfa_offset 40
	movl	%ecx, %eax
	popq	%rbx
	.cfi_def_cfa_offset 32
	popq	%rbp
	.cfi_def_cfa_offset 24
	popq	%r12
	.cfi_def_cfa_offset 16
	popq	%r13
	.cfi_def_cfa_offset 8
	ret
	.p2align 4
	.p2align 3
.L941:
	.cfi_restore_state
	shrq	%r13
	addq	$8, %rsp
	.cfi_remember_state
	.cfi_def_cfa_offset 40
	leaq	1(%r13), %rdx
	movl	%ecx, %eax
	popq	%rbx
	.cfi_def_cfa_offset 32
	popq	%rbp
	.cfi_def_cfa_offset 24
	popq	%r12
	.cfi_def_cfa_offset 16
	popq	%r13
	.cfi_def_cfa_offset 8
	ret
	.p2align 4
	.p2align 3
.L939:
	.cfi_restore_state
	testb	$1, %r9b
	je	.L891
	cmpl	$26, %r8d
	ja	.L891
	movq	%r8, %rsi
	leaq	_ZL8minverse(%rip), %r12
	salq	$4, %rsi
	imulq	(%r12,%rsi), %rbx
	cmpq	8(%r12,%rsi), %rbx
	jbe	.L892
	jmp	.L891
	.p2align 4
	.p2align 3
.L940:
	testb	$1, %r9b
	jne	.L892
	cmpl	$26, %r8d
	ja	.L892
	movq	%r8, %rbx
	leaq	_ZL8minverse(%rip), %r12
	salq	$4, %rbx
	imulq	(%r12,%rbx), %rsi
	cmpq	8(%r12,%rbx), %rsi
	ja	.L892
	movabsq	$-3689348814741910323, %rdi
	movabsq	$1844674407370955161, %rsi
	leal	1(%r8), %ecx
	imulq	%rdi, %rax
	rorx	$1, %rax, %rax
	cmpq	%rax, %rsi
	jb	.L886
	.p2align 4
	.p2align 3
.L895:
	movq	%rax, %rdx
	imulq	%rdi, %rax
	incl	%ecx
	rorx	$1, %rax, %rax
	cmpq	%rax, %rsi
	jnb	.L895
	jmp	.L886
	.p2align 4
	.p2align 3
.L899:
	movq	%r11, %rax
	movabsq	$180143985094819840, %rdx
	shlx	%rdi, %rdx, %rdx
	mulx	%r10, %rsi, %rdi
	mulq	%rdx
	addq	%rdx, %rsi
	adcq	$0, %rdi
	movq	%rdi, %rdx
	movq	%rdi, %rax
	shrq	%rdx
	testb	$1, %dil
	je	.L905
	testb	$1, %dl
	jne	.L906
	negl	%ecx
	cmpl	$26, %ecx
	ja	.L906
	movslq	%ecx, %rcx
	leaq	_ZL8minverse(%rip), %rsi
	salq	$4, %rcx
	imulq	(%rsi,%rcx), %rax
	cmpq	8(%rsi,%rcx), %rax
	ja	.L906
	.p2align 4
	.p2align 3
.L905:
	leal	-1(%r8), %ecx
	jmp	.L886
	.p2align 4
	.p2align 3
.L906:
	leal	-1(%r8), %ecx
	jmp	.L936
	.cfi_endproc
.LFE10501:
	.size	teju_ieee64_with_uint128, .-teju_ieee64_with_uint128
	.p2align 4
	.globl	_Z15teju_f64_to_decdPyPi
	.type	_Z15teju_f64_to_decdPyPi, @function
_Z15teju_f64_to_decdPyPi:
.LFB10502:
	.cfi_startproc
	endbr64
	pushq	%rbp
	.cfi_def_cfa_offset 16
	.cfi_offset 6, -16
	vmovq	%xmm0, %rax
	pushq	%rbx
	.cfi_def_cfa_offset 24
	.cfi_offset 3, -24
	movq	%rsi, %rbx
	movabsq	$4503599627370495, %rsi
	subq	$8, %rsp
	.cfi_def_cfa_offset 32
	movq	%rdi, %rbp
	andq	%rax, %rsi
	shrq	$52, %rax
	andl	$2047, %eax
	je	.L944
	btsq	$52, %rsi
	leal	-1075(%rax), %edi
.L943:
	call	teju_ieee64_with_uint128
	movq	%rdx, 0(%rbp)
	movl	%eax, (%rbx)
	addq	$8, %rsp
	.cfi_remember_state
	.cfi_def_cfa_offset 24
	popq	%rbx
	.cfi_def_cfa_offset 16
	popq	%rbp
	.cfi_def_cfa_offset 8
	ret
	.p2align 4
	.p2align 3
.L944:
	.cfi_restore_state
	movl	$-1074, %edi
	jmp	.L943
	.cfi_endproc
.LFE10502:
	.size	_Z15teju_f64_to_decdPyPi, .-_Z15teju_f64_to_decdPyPi
	.p2align 4
	.globl	_Z42generalized_granlund_montgomery_branchlessm
	.type	_Z42generalized_granlund_montgomery_branchlessm, @function
_Z42generalized_granlund_montgomery_branchlessm:
.LFB10540:
	.cfi_startproc
	endbr64
	movabsq	$28999941890838049, %rdx
	movabsq	$184467440968, %rsi
	movq	%rdi, %rax
	imulq	%rdi, %rdx
	cmpq	%rdx, %rsi
	movq	%rdx, %rdi
	setnb	%cl
	shrq	$8, %rdi
	cmpq	%rdx, %rsi
	movabsq	$182622766329724561, %rdx
	movabsq	$1844674407370970, %rsi
	movzbl	%cl, %ecx
	cmovnb	%rdi, %rax
	xorl	%edi, %edi
	imulq	%rax, %rdx
	cmpq	%rdx, %rsi
	setnb	%dil
	leaq	(%rdi,%rcx,2), %rdi
	movq	%rdx, %rcx
	shrq	$4, %rcx
	cmpq	%rdx, %rsi
	movabsq	$-3504881374004814807, %rdx
	cmovnb	%rcx, %rax
	movabsq	$184467440737095516, %rcx
	xorl	%esi, %esi
	imulq	%rax, %rdx
	cmpq	%rdx, %rcx
	setnb	%sil
	leaq	(%rsi,%rdi,2), %rsi
	movq	%rdx, %rdi
	shrq	$2, %rdi
	cmpq	%rdx, %rcx
	movabsq	$5534023222112865485, %rdx
	cmovnb	%rdi, %rax
	imulq	%rdx, %rax
	movabsq	$1844674407370955162, %rdx
	cmpq	%rax, %rdx
	setnb	%al
	movzbl	%al, %eax
	leaq	(%rax,%rsi,2), %rax
	ret
	.cfi_endproc
.LFE10540:
	.size	_Z42generalized_granlund_montgomery_branchlessm, .-_Z42generalized_granlund_montgomery_branchlessm
	.p2align 4
	.globl	_Z21f64_bin_to_dec_xjb_v2miPmPi
	.type	_Z21f64_bin_to_dec_xjb_v2miPmPi, @function
_Z21f64_bin_to_dec_xjb_v2miPmPi:
.LFB10549:
	.cfi_startproc
	endbr64
	imull	$315653, %esi, %eax
	movabsq	$4503599627370496, %r10
	movq	%rdx, %r8
	movq	%rcx, %rdx
	movl	%edi, %ecx
	pushq	%rbp
	.cfi_def_cfa_offset 16
	.cfi_offset 6, -16
	andl	$1, %ecx
	movq	%rsp, %rbp
	.cfi_def_cfa_register 6
	pushq	%r14
	pushq	%r13
	movl	%eax, %r9d
	subl	$131237, %eax
	pushq	%r12
	pushq	%rbx
	.cfi_offset 14, -24
	.cfi_offset 13, -32
	.cfi_offset 12, -40
	.cfi_offset 3, -48
	sarl	$20, %r9d
	sarl	$20, %eax
	cmpq	%r10, %rdi
	cmovne	%r9d, %eax
	leaq	5488+_ZL15pow10_sig_table(%rip), %r9
	movl	%eax, (%rdx)
	notl	%eax
	imull	$217707, %eax, %edx
	addl	%eax, %eax
	cltq
	leaq	(%r9,%rax,8), %r9
	sarl	$16, %edx
	movq	(%r9), %r12
	leal	11(%rsi,%rdx), %r10d
	leal	(%rdx,%rsi), %ebx
	shlx	%r10, %rdi, %r10
	movq	%r10, %rax
	mulq	8(%r9)
	movq	%r12, %r9
	imulq	%r10, %r9
	movq	%rdx, %r14
	addq	%rdx, %r9
	movq	%r10, %rdx
	mulx	%r12, %r10, %r11
	addq	%r14, %r10
	movl	$10, %r10d
	adcq	$0, %r11
	negl	%ebx
	movq	%r11, %rdx
	movq	%r11, %rax
	shrx	%rbx, %r12, %rbx
	movabsq	$-9223372036854775808, %r12
	shrq	$10, %rdx
	leaq	(%rdx,%rdx,4), %r13
	movq	%r9, %rdx
	andl	$1023, %r9d
	shrq	$10, %rdx
	salq	$54, %rax
	addq	%rdx, %rax
	addq	%r13, %r13
	movq	%rax, %rdx
	movq	%r13, %r14
	mulx	%r10, %r10, %r11
	leaq	(%r9,%r9,4), %rdx
	leaq	(%rax,%rax,4), %r9
	shrq	$9, %rdx
	leaq	(%rdx,%r9,2), %r9
	movq	%r9, %rdx
	shrq	$63, %rdx
	addq	%r11, %rdx
	cmpq	%r12, %r9
	je	.L977
.L953:
	movq	%rax, %r9
	movabsq	$4503599627370496, %r10
	notq	%r9
	cmpq	%r10, %rdi
	je	.L978
	cmpq	%r9, %rbx
	je	.L957
	cmpq	%rbx, %r9
	movl	$10, %esi
	cmovb	%rsi, %rdx
	cmpq	%rax, %rbx
	je	.L979
.L961:
	addq	%r13, %rdx
	movq	%r13, %r14
	cmpq	%rbx, %rax
	cmovnb	%rdx, %r14
.L960:
	popq	%rbx
	movq	%r14, (%r8)
	popq	%r12
	popq	%r13
	popq	%r14
	popq	%rbp
	.cfi_remember_state
	.cfi_def_cfa 7, 8
	ret
	.p2align 4
	.p2align 3
.L978:
	.cfi_restore_state
	cmpq	%r9, %rbx
	je	.L980
	movl	$10, %r14d
	cmpq	%rbx, %r9
	jb	.L955
	movl	$1, %ecx
	vpbroadcastw	%esi, %ymm0
	xorl	%r14d, %r14d
	vpbroadcastw	%ecx, %ymm1
	vpcmpeqw	.LC22(%rip), %ymm0, %ymm0
	vpand	%ymm1, %ymm0, %ymm0
	vpmovzxwd	%xmm0, %ymm1
	vextracti128	$0x1, %ymm0, %xmm0
	vpmovzxwd	%xmm0, %ymm0
	vextracti128	$0x1, %ymm1, %xmm2
	vpmovzxdq	%xmm1, %ymm1
	vpmovzxdq	%xmm2, %ymm2
	vpaddq	%ymm1, %ymm2, %ymm1
	vpmovzxdq	%xmm0, %ymm2
	vpaddq	%ymm1, %ymm2, %ymm2
	vextracti128	$0x1, %ymm0, %xmm1
	vpbroadcastw	%esi, %xmm0
	vpmovzxdq	%xmm1, %ymm1
	vpaddq	%ymm2, %ymm1, %ymm1
	vpcmpeqw	.LC24(%rip), %xmm0, %xmm0
	vpbroadcastw	%ecx, %xmm2
	vpand	%xmm2, %xmm0, %xmm0
	vpmovzxwd	%xmm0, %xmm3
	vpsrldq	$8, %xmm0, %xmm0
	vpmovzxwd	%xmm0, %xmm2
	vpsrldq	$8, %xmm3, %xmm0
	vpmovzxdq	%xmm3, %xmm3
	vpmovzxdq	%xmm0, %xmm0
	vpaddq	%xmm3, %xmm0, %xmm0
	vpmovzxdq	%xmm2, %xmm3
	vpsrldq	$8, %xmm2, %xmm2
	vpmovzxdq	%xmm2, %xmm2
	vpaddq	%xmm3, %xmm0, %xmm0
	vpaddq	%xmm2, %xmm0, %xmm0
	vpaddq	%xmm1, %xmm0, %xmm0
	vextracti64x2	$0x1, %ymm1, %xmm1
	vpaddq	%xmm1, %xmm0, %xmm0
	vpsrldq	$8, %xmm0, %xmm1
	vpaddq	%xmm1, %xmm0, %xmm0
	vmovq	%xmm0, %rcx
	addq	%rcx, %rdx
	cmpw	$811, %si
	sete	%r14b
	xorl	%ecx, %ecx
	cmpw	$924, %si
	sete	%cl
	addq	%rcx, %r14
	addq	%rdx, %r14
	vzeroupper
.L955:
	shrq	%rbx
	addq	%r13, %r14
	cmpq	%rax, %rbx
	popq	%rbx
	popq	%r12
	cmovnb	%r13, %r14
	popq	%r13
	movq	%r14, (%r8)
	popq	%r14
	popq	%rbp
	.cfi_remember_state
	.cfi_def_cfa 7, 8
	ret
	.p2align 4
	.p2align 3
.L977:
	.cfi_restore_state
	movq	%r11, %r9
	notq	%r9
	andl	$1, %r9d
	subq	%r9, %rdx
	jmp	.L953
	.p2align 4
	.p2align 3
.L957:
	testl	%ecx, %ecx
	je	.L981
	cmpq	%rax, %rbx
	jne	.L961
	.p2align 4
	.p2align 3
.L962:
	leaq	0(%r13,%rdx), %r14
	jmp	.L960
	.p2align 4
	.p2align 3
.L979:
	testl	%ecx, %ecx
	jne	.L962
	jmp	.L960
.L980:
	movl	$10, %r14d
	jmp	.L955
	.p2align 4
	.p2align 3
.L981:
	cmpq	%rax, %rbx
	je	.L960
	movl	$10, %edx
	jmp	.L961
	.cfi_endproc
.LFE10549:
	.size	_Z21f64_bin_to_dec_xjb_v2miPmPi, .-_Z21f64_bin_to_dec_xjb_v2miPmPi
	.p2align 4
	.globl	yy_double_to_string
	.type	yy_double_to_string, @function
yy_double_to_string:
.LFB10551:
	.cfi_startproc
	endbr64
	pushq	%r15
	.cfi_def_cfa_offset 16
	.cfi_offset 15, -16
	vmovq	%xmm0, %r8
	pushq	%r14
	.cfi_def_cfa_offset 24
	.cfi_offset 14, -24
	pushq	%r13
	.cfi_def_cfa_offset 32
	.cfi_offset 13, -32
	pushq	%r12
	.cfi_def_cfa_offset 40
	.cfi_offset 12, -40
	pushq	%rbp
	.cfi_def_cfa_offset 48
	.cfi_offset 6, -48
	pushq	%rbx
	.cfi_def_cfa_offset 56
	.cfi_offset 3, -56
	movq	%r8, %rcx
	subq	$72, %rsp
	.cfi_def_cfa_offset 128
	btrq	$63, %rcx
	vxorps	%xmm0, %xmm0, %xmm0
	movq	%fs:40, %rax
	movq	%rax, 56(%rsp)
	xorl	%eax, %eax
	movb	$45, (%rdi)
	vmovq	%rcx, %xmm3
	vcvttsd2usi	%xmm3, %r9
	vcvtusi2sdq	%r9, %xmm0, %xmm0
	vmovq	%xmm0, %rsi
	movq	%r8, %rax
	shrq	$63, %rax
	addq	%rax, %rdi
	cmpq	%rsi, %rcx
	jne	.L983
	movabsq	$9999999999999999, %rax
	cmpq	%r9, %rax
	jb	.L983
	cmpq	$99999999, %r9
	jbe	.L1068
	movabsq	$-6067343680855748867, %rax
	movabsq	$18446744073710, %rsi
	movabsq	$18446744073710000, %r11
	movl	$1000, %r8d
	mulq	%r9
	leaq	_ZL9digit1000(%rip), %rbp
	leaq	_ZL11digit_table(%rip), %r14
	shrq	$26, %rdx
	mulx	%rsi, %rcx, %rbx
	imull	$100000000, %edx, %r15d
	movzwl	(%r14,%rbx,2), %r10d
	movq	%rcx, %r12
	imulq	%r11, %rdx
	xorl	%ebx, %ebx
	salq	$5, %r12
	movq	%rdx, %rax
	movq	%rbx, %r13
	mulq	%r8
	shldq	$5, %rcx, %r13
	movl	0(%rbp,%rdx,4), %eax
	salq	$40, %rax
	orq	%rax, %r10
	subq	%rcx, %r12
	sbbq	%rbx, %r13
	shldq	$2, %r12, %r13
	salq	$2, %r12
	addq	%rcx, %r12
	movabsq	$-67818912035696881, %rcx
	adcq	%rbx, %r13
	subl	%r15d, %r9d
	shldq	$3, %r12, %r13
	movl	0(%rbp,%r13,4), %eax
	movq	%r9, %rdx
	imulq	%r9, %r11
	imulq	%rsi, %rdx
	salq	$16, %rax
	orq	%rax, %r10
	andq	%r10, %rcx
	lzcntq	%rcx, %rcx
	sarl	$3, %ecx
	leal	0(,%rcx,8), %eax
	movslq	%ecx, %rcx
	shrx	%rax, %r10, %r10
	movq	%rdx, %rax
	movq	%r10, (%rdi)
	subq	%rcx, %rdi
	mulq	%r8
	movq	%r11, %rax
	leaq	8(%rdi), %rcx
	movl	0(%rbp,%rdx,4), %edi
	mulq	%r8
	movl	0(%rbp,%rdx,4), %eax
	movq	%r9, %rdx
	salq	$16, %rdi
	salq	$40, %rax
	orq	%rax, %rdi
	mulx	%rsi, %rax, %rdx
	movzwl	(%r14,%rdx,2), %eax
	orq	%rax, %rdi
	leaq	8(%rcx), %rax
	movq	%rdi, (%rcx)
.L985:
	movw	$12334, (%rax)
	addq	$2, %rax
	jmp	.L982
	.p2align 4
	.p2align 3
.L983:
	shrq	$52, %rcx
	movabsq	$4503599627370495, %rdx
	andq	%r8, %rdx
	cmpq	$2047, %rcx
	je	.L1069
	movl	$48, %eax
	vpbroadcastb	%eax, %xmm0
	vmovdqu8	%xmm0, (%rdi)
	testq	%rcx, %rcx
	je	.L989
	movabsq	$4503599627370496, %r9
	movq	%rdx, %rax
	subl	$1075, %ecx
	imull	$315653, %ecx, %esi
	orq	%r9, %rax
	testq	%rdx, %rdx
	je	.L990
	sarl	$20, %esi
	imull	$-217707, %esi, %edx
	movabsq	$-6917529027641081856, %r15
	sarl	$16, %edx
	leal	1(%rcx,%rdx), %r10d
	movl	$343, %edx
	leaq	_ZL15pow10_sig_table(%rip), %rcx
	subl	%esi, %edx
	addl	%edx, %edx
	movslq	%edx, %rdx
	leaq	(%rcx,%rdx,8), %rdx
	shlx	%r10, %rax, %rcx
	movq	%rcx, %rax
	movq	(%rdx), %r12
	mulq	8(%rdx)
	movq	%rdx, %r9
	movq	%rcx, %rdx
	movabsq	$1844674407370955162, %rcx
	mulx	%r12, %rax, %rdx
	addq	%r9, %rax
	adcq	$0, %rdx
	movq	%rax, %r9
	movq	%rax, %r13
	movq	%rax, (%rsp)
	mulx	%rcx, %rcx, %rbx
	leaq	(%rbx,%rbx,4), %r14
	movq	%rdx, %rcx
	movq	%rdx, %r11
	addq	%r14, %r14
	movq	%rdx, 16(%rsp)
	movq	%rdx, 8(%rsp)
	subq	%r14, %rcx
	movq	%r14, %rbx
	shrdq	$4, %rcx, %r9
	movl	$5, %ecx
	subl	%r10d, %ecx
	movq	%r15, %r10
	shrx	%rcx, %r12, %rcx
	leaq	(%r9,%rcx), %r12
	subq	%r12, %r10
	cmpq	%rcx, %r9
	je	.L991
	movabsq	$-9223372036854775808, %rbp
	cmpq	%rbp, %rax
	je	.L991
	cmpq	$1, %r10
	jbe	.L991
	movq	(%rsp), %rbp
	cmpq	%rcx, %r9
	leaq	10(%r14), %rbx
	setb	%cl
	cmpq	%r12, %r15
	movzbl	%cl, %ecx
	adcl	$0, %ecx
	cmpq	%r12, %r15
	cmovnb	%r14, %rbx
	shrq	$63, %rbp
	addq	%rdx, %rbp
	testl	%ecx, %ecx
	movq	%rbp, 48(%rsp)
	cmovne	%rbx, %rbp
.L994:
	movabsq	$9999999999999999, %rax
	cmpq	%rbp, %rax
	sbbl	%r8d, %r8d
	notl	%r8d
	addl	$16, %r8d
	cmpq	%rbp, %rax
	movabsq	$-6067343680855748867, %rax
	sbbl	%ebx, %ebx
	mulq	%rbp
	notl	%ebx
	leal	17(%rsi,%rbx), %ecx
	leal	23(%rsi,%rbx), %ebx
	shrq	$26, %rdx
	imulq	$100000000, %rdx, %rax
	movq	%rdx, (%rsp)
	subq	%rax, %rbp
	movabsq	$18446744073710, %rax
	mulx	%rax, %r10, %r11
	movq	%r11, %r9
	cmpl	$14, %ebx
	ja	.L1003
	xorl	%eax, %eax
	testl	%ecx, %ecx
	setg	%al
	xorl	%esi, %esi
	movl	%eax, 44(%rsp)
	movl	$2, %eax
	subl	%ecx, %eax
	testl	%ecx, %ecx
	cmovg	%esi, %eax
	movl	%eax, 48(%rsp)
	movslq	48(%rsp), %rsi
	leaq	_ZL9digit1000(%rip), %r13
	addq	%rdi, %rsi
	cmpq	$99, %r11
	jbe	.L1005
	movl	0(%r13,%r11,4), %eax
	movl	%eax, %r14d
	shrl	$8, %r14d
.L1006:
	movl	%eax, (%rsi)
	movq	%rbp, %rdx
	movabsq	$18446744073710, %r8
	xorl	%eax, %eax
	cmpq	$99, %r9
	mulx	%r8, %r8, %r9
	movq	(%rsp), %rdx
	movabsq	$18446744073710000, %r15
	seta	%al
	leaq	(%rsi,%rax), %rbx
	movl	$1000, %eax
	xorl	%r11d, %r11d
	imulq	%r15, %rdx
	imulq	%rbp, %r15
	mulq	%rdx
	leaq	_ZL11digit_table(%rip), %rax
	movl	0(%r13,%rdx,4), %r12d
	salq	$40, %r12
	orq	%r14, %r12
	movzwl	(%rax,%r9,2), %r14d
	movl	$1000, %eax
	mulq	%r15
	vmovq	%r12, %xmm2
	movl	0(%r13,%rdx,4), %eax
	movq	%r11, %rdx
	shldq	$5, %r10, %rdx
	salq	$40, %rax
	orq	%rax, %r14
	movq	%r10, %rax
	salq	$5, %rax
	vpinsrq	$1, %r14, %xmm2, %xmm0
	subq	%r10, %rax
	sbbq	%r11, %rdx
	shldq	$2, %rax, %rdx
	salq	$2, %rax
	addq	%r10, %rax
	adcq	%r11, %rdx
	xorl	%r9d, %r9d
	shldq	$3, %rax, %rdx
	movq	%r8, %rax
	movq	%rdx, %r10
	movq	%r9, %rdx
	salq	$5, %rax
	shldq	$5, %r8, %rdx
	subq	%r8, %rax
	vmovd	0(%r13,%r10,4), %xmm1
	sbbq	%r9, %rdx
	shldq	$2, %rax, %rdx
	salq	$2, %rax
	addq	%r8, %rax
	movl	$8, %r8d
	adcq	%r9, %rdx
	movabsq	$1085102592571150095, %r9
	shldq	$3, %rax, %rdx
	vpinsrd	$1, 0(%r13,%rdx,4), %xmm1, %xmm1
	vpmovzxdq	%xmm1, %xmm1
	vpsllq	$16, %xmm1, %xmm1
	vpor	%xmm1, %xmm0, %xmm0
	vmovq	%xmm0, %rdx
	vpextrq	$1, %xmm0, %rax
	andq	%r9, %rax
	vmovdqu	%xmm0, (%rbx)
	andq	%r9, %rdx
	je	.L1007
	lzcntq	%rdx, %r8
	shrq	$3, %r8
.L1007:
	lzcntq	%rax, %rdx
	addq	$8, %r8
	shrq	$3, %rdx
	testq	%rax, %rax
	movslq	44(%rsp), %rax
	cmove	%r8, %rdx
	movslq	%ecx, %r8
	leaq	(%rsi,%r8), %r9
	testl	%eax, %eax
	cmovne	%r9, %rsi
	testl	%ecx, %ecx
	vmovdqu	(%rsi), %xmm4
	vmovdqu	%xmm4, (%rsi,%rax)
	movl	$1, %esi
	cmovle	%esi, %ecx
	subq	%rdx, %rbx
	leaq	2(%rdi,%r8), %rdx
	leaq	16(%rbx,%rax), %rax
	movslq	%ecx, %rcx
	cmpq	%rdx, %rax
	movb	$46, (%rdi,%rcx)
	cmovb	%rdx, %rax
.L982:
	movq	56(%rsp), %rdx
	subq	%fs:40, %rdx
	jne	.L1070
	addq	$72, %rsp
	.cfi_remember_state
	.cfi_def_cfa_offset 56
	popq	%rbx
	.cfi_def_cfa_offset 48
	popq	%rbp
	.cfi_def_cfa_offset 40
	popq	%r12
	.cfi_def_cfa_offset 32
	popq	%r13
	.cfi_def_cfa_offset 24
	popq	%r14
	.cfi_def_cfa_offset 16
	popq	%r15
	.cfi_def_cfa_offset 8
	ret
	.p2align 4
	.p2align 3
.L1005:
	.cfi_restore_state
	movl	$8, %eax
	shrx	%eax, 0(%r13,%r11,4), %eax
	movl	%eax, %r14d
	jmp	.L1006
	.p2align 4
	.p2align 3
.L1068:
	movq	%r9, %rdx
	movabsq	$18446744073710, %r10
	leaq	_ZL11digit_table(%rip), %rax
	leaq	_ZL9digit1000(%rip), %rsi
	mulx	%r10, %r10, %r11
	movabsq	$18446744073710000, %rdx
	movzwl	(%rax,%r11,2), %ecx
	movl	$1000, %eax
	imulq	%r9, %rdx
	xorl	%r11d, %r11d
	mulq	%rdx
	movl	(%rsi,%rdx,4), %eax
	movq	%r11, %rdx
	shldq	$5, %r10, %rdx
	salq	$40, %rax
	orq	%rax, %rcx
	movq	%r10, %rax
	salq	$5, %rax
	subq	%r10, %rax
	sbbq	%r11, %rdx
	shldq	$2, %rax, %rdx
	salq	$2, %rax
	addq	%r10, %rax
	adcq	%r11, %rdx
	shldq	$3, %rax, %rdx
	movl	(%rsi,%rdx,4), %eax
	salq	$16, %rax
	orq	%rax, %rcx
	movabsq	$-67818912035696881, %rax
	andq	%rcx, %rax
	movq	%rcx, %rdx
	lzcntq	%rax, %rax
	sarl	$3, %eax
	leal	0(,%rax,8), %ecx
	cltq
	shrx	%rcx, %rdx, %rdx
	movq	%rdx, (%rdi)
	subq	%rax, %rdi
	leaq	8(%rdi), %rax
	jmp	.L985
	.p2align 4
	.p2align 3
.L990:
	subl	$131237, %esi
	leaq	_ZL15pow10_sig_table(%rip), %rdx
	movl	$5, %r12d
	sarl	$20, %esi
	imull	$-217707, %esi, %eax
	sarl	$16, %eax
	leal	1(%rcx,%rax), %ecx
	movl	$343, %eax
	subl	%esi, %eax
	shlx	%rcx, %r9, %r9
	addl	%eax, %eax
	cltq
	leaq	(%rdx,%rax,8), %rdx
	movq	%r9, %rax
	movq	(%rdx), %r10
	mulq	8(%rdx)
	movq	%rdx, %r11
	movq	%r9, %rdx
	mulx	%r10, %rax, %rdx
	addq	%r11, %rax
	movl	$1, %r11d
	adcq	$0, %rdx
	subl	%ecx, %r12d
	movq	%rax, %r9
	shrx	%r12, %r10, %r12
	movq	%r12, %rcx
	shrq	$4, %r9
	shrq	%rcx
	cmpq	%r9, %rcx
	jnb	.L1071
.L995:
	movabsq	$1844674407370955162, %rax
	movq	%rdx, %r15
	movq	%rdx, 16(%rsp)
	movabsq	$-6917529027641081856, %r10
	mulq	%rdx
	movq	%r15, %rax
	leaq	(%rdx,%rdx,4), %rbx
	addq	%rbx, %rbx
	subq	%rbx, %rax
	salq	$60, %rax
	orq	%r9, %rax
	addq	%rax, %r12
	subq	%r12, %r10
	cmpq	%rax, %rcx
	setnb	%al
	jmp	.L997
	.p2align 4
	.p2align 3
.L991:
	movq	(%rsp), %rax
	movabsq	$-9223372036854775808, %rdx
	andl	$1, %r11d
	shrq	$63, %rax
	cmpq	%rdx, %r13
	movq	%r8, %rdx
	cmovne	%eax, %r11d
	notq	%rdx
	cmpq	%rcx, %r9
	setb	%al
	andl	$1, %edx
	cmpq	%rcx, %r9
	movzbl	%r11b, %r11d
	cmove	%edx, %eax
.L997:
	movq	16(%rsp), %rbp
	movabsq	$-6917529027641081856, %rdx
	cmpq	%r12, %rdx
	setb	%dl
	addq	%r11, %rbp
	cmpq	$1, %r10
	jbe	.L1072
.L998:
	testb	%al, %al
	cmovne	%rbx, %rbp
	addq	$10, %rbx
	testb	%dl, %dl
	cmovne	%rbx, %rbp
	jmp	.L994
	.p2align 4
	.p2align 3
.L1069:
	testq	%rdx, %rdx
	jne	.L988
	movabsq	$8751735898823355977, %rax
	movq	%rax, (%rdi)
	leaq	8(%rdi), %rax
	jmp	.L982
	.p2align 4
	.p2align 3
.L989:
	leaq	0(,%rdx,8), %rsi
	movabsq	$7784369436827535057, %rax
	movabsq	$-9223372036854775808, %rbp
	mulq	%rsi
	movabsq	$-7054365918152680535, %rax
	movq	%rdx, %rcx
	mulq	%rsi
	addq	%rcx, %rax
	movabsq	$1844674407370955162, %rcx
	adcq	$0, %rdx
	mulx	%rcx, %rcx, %rbx
	leaq	(%rbx,%rbx,4), %r9
	movq	%rdx, %r11
	movq	%rax, %rcx
	addq	%r9, %r9
	movabsq	$2848094538889217770, %rbx
	movq	%rdx, %r10
	subq	%r9, %r11
	shrdq	$4, %r11, %rcx
	leaq	(%rcx,%rbx), %r11
	cmpq	%rbp, %rax
	je	.L1015
	shrq	$63, %rax
	movl	%eax, %r12d
	cmpq	%rbx, %rcx
	je	.L1016
	movabsq	$-6917529027641081856, %rbp
	movabsq	$2848094538889217769, %rdx
	movq	%rbp, %rbx
	subq	%r11, %rbx
	cmpq	%rcx, %rdx
	setnb	%dl
	movl	%edx, %r13d
	cmpq	$1, %rbx
	jbe	.L1017
	cmpq	%r11, %rbp
	movzbl	%dl, %edx
	leaq	10(%r9), %rcx
	leaq	(%rax,%r10), %rsi
	adcl	$0, %edx
	cmpq	%r11, %rbp
	movq	%rsi, 48(%rsp)
	cmovnb	%r9, %rcx
	testl	%edx, %edx
	cmovne	%rcx, %rsi
.L1020:
	movabsq	$999999999999999, %rax
	leaq	1(%rdi), %rcx
	cmpq	%rsi, %rax
	jb	.L1073
	cmpq	$99999999, %rsi
	jbe	.L1028
	movabsq	$-6067343680855748867, %rax
	movabsq	$18446744073710, %rbx
	movabsq	$18446744073710000, %r12
	movl	$1000, %ebp
	mulq	%rsi
	leaq	_ZL11digit_table(%rip), %r14
	leaq	_ZL9digit1000(%rip), %r13
	shrq	$26, %rdx
	mulx	%rbx, %r10, %r11
	imull	$100000000, %edx, %r15d
	movzwl	(%r14,%r11,2), %r8d
	xorl	%r11d, %r11d
	imulq	%r12, %rdx
	movq	%r11, %r9
	shldq	$5, %r10, %r9
	movq	%rdx, %rax
	mulq	%rbp
	movl	0(%r13,%rdx,4), %eax
	movq	%r8, %rdx
	movq	%r10, %r8
	salq	$5, %r8
	salq	$40, %rax
	orq	%rax, %rdx
	subq	%r10, %r8
	sbbq	%r11, %r9
	shldq	$2, %r8, %r9
	salq	$2, %r8
	addq	%r10, %r8
	adcq	%r11, %r9
	subl	%r15d, %esi
	shldq	$3, %r8, %r9
	movl	0(%r13,%r9,4), %eax
	movabsq	$-67818912035696881, %r8
	imulq	%rsi, %r12
	salq	$16, %rax
	orq	%rax, %rdx
	andq	%rdx, %r8
	lzcntq	%r8, %r8
	sarl	$3, %r8d
	leal	0(,%r8,8), %eax
	movslq	%r8d, %r8
	shrx	%rax, %rdx, %rdx
	movq	%rdx, 1(%rdi)
	movq	%rsi, %rdx
	subq	%r8, %rcx
	imulq	%rbx, %rdx
	movq	%rdx, %rax
	mulq	%rbp
	movq	%r12, %rax
	movl	0(%r13,%rdx,4), %r8d
	mulq	%rbp
	movl	0(%r13,%rdx,4), %eax
	movq	%rsi, %rdx
	salq	$16, %r8
	salq	$40, %rax
	orq	%rax, %r8
	mulx	%rbx, %rax, %rdx
	movzwl	(%r14,%rdx,2), %eax
	orq	%rax, %r8
	leaq	16(%rcx), %rax
	movq	%r8, 8(%rcx)
.L1027:
	movzbl	1(%rdi), %edx
	movq	%rax, %rcx
	movb	$46, 1(%rdi)
	subq	%rdi, %rcx
	subl	$2, %ecx
	movb	%dl, (%rdi)
	xorl	%edx, %edx
	cmpb	$48, -1(%rax)
	sete	%dl
	subq	%rdx, %rax
	xorl	%edx, %edx
	cmpb	$48, -1(%rax)
	sete	%dl
	subq	%rdx, %rax
	movzbl	-1(%rax), %edx
	cmpb	$48, %dl
	jne	.L1029
	.p2align 4
	.p2align 3
.L1030:
	movzbl	-2(%rax), %edx
	decq	%rax
	cmpb	$48, %dl
	je	.L1030
.L1029:
	cmpb	$46, %dl
	movslq	%ecx, %rcx
	sete	%dl
	movzbl	%dl, %edx
	subq	%rdx, %rax
	leaq	_ZL10exp_result(%rip), %rdx
	movq	(%rdx,%rcx,8), %rdx
	movq	%rdx, (%rax)
	shrq	$40, %rdx
	addq	%rdx, %rax
	jmp	.L982
	.p2align 4
	.p2align 3
.L1003:
	leaq	_ZL9digit1000(%rip), %r13
	movq	%rbp, %rdx
	movabsq	$18446744073710000, %r15
	movl	$1000, %r14d
	movl	0(%r13,%r11,4), %ecx
	movl	%ecx, %r12d
	shrl	$8, %r12d
	cmpq	$99, %r11
	cmovbe	%r12d, %ecx
	movl	%ecx, 1(%rdi)
	seta	%cl
	imulq	%r15, %rbp
	xorl	%r11d, %r11d
	movzbl	%cl, %ecx
	leaq	1(%rdi,%rcx), %r9
	mulx	%rax, %rcx, %rbx
	movq	(%rsp), %rdx
	imulq	%r15, %rdx
	movq	%rdx, %rax
	mulq	%r14
	movl	0(%r13,%rdx,4), %eax
	salq	$40, %rax
	orq	%r12, %rax
	vmovq	%rax, %xmm0
	leaq	_ZL11digit_table(%rip), %rax
	movzwl	(%rax,%rbx,2), %r12d
	movq	%rbp, %rax
	mulq	%r14
	movl	0(%r13,%rdx,4), %eax
	movq	%r11, %rdx
	movq	%r12, %r14
	shldq	$5, %r10, %rdx
	salq	$40, %rax
	orq	%rax, %r14
	movq	%r10, %rax
	salq	$5, %rax
	vpinsrq	$1, %r14, %xmm0, %xmm0
	subq	%r10, %rax
	sbbq	%r11, %rdx
	shldq	$2, %rax, %rdx
	salq	$2, %rax
	addq	%r10, %rax
	adcq	%r11, %rdx
	xorl	%ebx, %ebx
	shldq	$3, %rax, %rdx
	movq	%rcx, %rax
	movq	%rdx, %r10
	movq	%rbx, %rdx
	salq	$5, %rax
	shldq	$5, %rcx, %rdx
	subq	%rcx, %rax
	vmovd	0(%r13,%r10,4), %xmm1
	movabsq	$1085102592571150095, %r10
	sbbq	%rbx, %rdx
	shldq	$2, %rax, %rdx
	salq	$2, %rax
	addq	%rcx, %rax
	movl	$8, %ecx
	adcq	%rbx, %rdx
	shldq	$3, %rax, %rdx
	vpinsrd	$1, 0(%r13,%rdx,4), %xmm1, %xmm1
	vpmovzxdq	%xmm1, %xmm1
	vpsllq	$16, %xmm1, %xmm1
	vpor	%xmm1, %xmm0, %xmm0
	vmovq	%xmm0, %rdx
	vpextrq	$1, %xmm0, %rax
	andq	%r10, %rax
	vmovdqu	%xmm0, (%r9)
	andq	%r10, %rdx
	je	.L1012
	lzcntq	%rdx, %rcx
	shrq	$3, %rcx
.L1012:
	lzcntq	%rax, %rdx
	shrq	$3, %rdx
	addq	$8, %rcx
	testq	%rax, %rax
	cmove	%rcx, %rdx
	leaq	_ZL10exp_result(%rip), %rcx
	subq	%rdx, %r9
	leaq	2(%rdi), %rdx
	leaq	16(%r9), %rax
	cmpq	%rdx, %rax
	sete	%dl
	movzbl	%dl, %edx
	subq	%rdx, %rax
	movzbl	1(%rdi), %edx
	movb	$46, 1(%rdi)
	movb	%dl, (%rdi)
	leal	324(%rsi,%r8), %edx
	movslq	%edx, %rdx
	movq	(%rcx,%rdx,8), %rdx
	movq	%rdx, (%rax)
	shrq	$40, %rdx
	addq	%rdx, %rax
	jmp	.L982
	.p2align 4
	.p2align 3
.L988:
	leaq	3(%rdi), %rax
	movl	$5136718, (%rdi)
	jmp	.L982
	.p2align 4
	.p2align 3
.L1071:
	movabsq	$-9223372036854775808, %r10
	xorl	%r11d, %r11d
	cmpq	%rax, %r10
	setb	%r11b
	jmp	.L995
.L1016:
	movzbl	%r12b, %eax
	movq	%r9, %rsi
	addq	%r10, %rax
	andl	$1, %r8d
	cmovne	%rax, %rsi
	jmp	.L1020
	.p2align 4
	.p2align 3
.L1028:
	movq	%rsi, %rdx
	leaq	_ZL11digit_table(%rip), %rax
	movabsq	$18446744073710, %r8
	leaq	_ZL9digit1000(%rip), %r10
	mulx	%r8, %r8, %r9
	movzwl	(%rax,%r9,2), %r11d
	movabsq	$18446744073710000, %rax
	xorl	%r9d, %r9d
	imulq	%rax, %rsi
	movl	$1000, %eax
	mulq	%rsi
	movq	%r11, %rsi
	movl	(%r10,%rdx,4), %eax
	movq	%r9, %rdx
	shldq	$5, %r8, %rdx
	salq	$40, %rax
	orq	%rax, %rsi
	movq	%r8, %rax
	salq	$5, %rax
	subq	%r8, %rax
	sbbq	%r9, %rdx
	shldq	$2, %rax, %rdx
	salq	$2, %rax
	addq	%r8, %rax
	adcq	%r9, %rdx
	shldq	$3, %rax, %rdx
	movl	(%r10,%rdx,4), %eax
	salq	$16, %rax
	orq	%rax, %rsi
	movabsq	$-67818912035696881, %rax
	andq	%rsi, %rax
	lzcntq	%rax, %rax
	sarl	$3, %eax
	leal	0(,%rax,8), %edx
	cltq
	subq	%rax, %rcx
	shrx	%rdx, %rsi, %rsi
	movq	%rsi, 1(%rdi)
	leaq	8(%rcx), %rax
	jmp	.L1027
	.p2align 4
	.p2align 3
.L1072:
	movl	%esi, 28(%rsp)
	cmpq	%r10, 28(%rsp)
	jnb	.L999
	testb	%al, %al
	cmovne	%rbx, %rbp
	jmp	.L994
	.p2align 4
	.p2align 3
.L1073:
	movabsq	$-6067343680855748867, %rax
	movabsq	$18446744073710, %r11
	movl	$1000, %ebx
	leaq	_ZL9digit1000(%rip), %rbp
	mulq	%rsi
	movabsq	$4153837486827862103, %rax
	movabsq	$18446744073710000, %r10
	movq	%rdx, %r8
	mulq	%rsi
	shrq	$26, %r8
	shrq	$51, %rdx
	imull	$100000000, %edx, %eax
	leal	48(%rdx), %r9d
	imull	$100000000, %r8d, %r12d
	cmpq	$1, %rdx
	movb	%r9b, 1(%rdi)
	sbbq	$-1, %rcx
	subl	%eax, %r8d
	movq	%r8, %rdx
	subl	%r12d, %esi
	imulq	%r11, %rdx
	movq	%rdx, %rax
	mulq	%rbx
	movl	0(%rbp,%rdx,4), %eax
	movq	%r8, %rdx
	imulq	%r10, %rdx
	imulq	%rsi, %r10
	salq	$16, %rax
	movq	%rax, %r9
	movq	%rdx, %rax
	mulq	%rbx
	movq	%r9, %rax
	movl	0(%rbp,%rdx,4), %edx
	salq	$40, %rdx
	orq	%rdx, %rax
	movq	%r8, %rdx
	mulx	%r11, %r8, %r9
	movq	%r9, %rdx
	leaq	_ZL11digit_table(%rip), %r9
	movzwl	(%r9,%rdx,2), %edx
	orq	%rdx, %rax
	movq	%rsi, %rdx
	imulq	%r11, %rdx
	movq	%rax, (%rcx)
	movq	%rdx, %rax
	mulq	%rbx
	movq	%r10, %rax
	movl	0(%rbp,%rdx,4), %r8d
	mulq	%rbx
	movl	0(%rbp,%rdx,4), %eax
	movq	%rsi, %rdx
	salq	$16, %r8
	salq	$40, %rax
	orq	%rax, %r8
	mulx	%r11, %rax, %rdx
	movzwl	(%r9,%rdx,2), %eax
	orq	%rax, %r8
	leaq	16(%rcx), %rax
	movq	%r8, 8(%rcx)
	jmp	.L1027
.L999:
	movq	%r8, %rdx
	notq	%rdx
	andl	$1, %edx
	jmp	.L998
.L1015:
	movl	%edx, %r12d
	movabsq	$2848094538889217769, %rax
	andl	$1, %r12d
	cmpq	%rcx, %rax
	setnb	%r13b
	cmpq	%rbx, %rcx
	je	.L1016
	movabsq	$-6917529027641081856, %rbx
	cmpq	%r11, %rbx
	setb	%dl
	subq	%r11, %rbx
	cmpq	$1, %rbx
	jbe	.L1017
.L1023:
	movzbl	%r12b, %eax
	addq	%r10, %rax
	testb	%r13b, %r13b
	cmovne	%r9, %rax
	testb	%dl, %dl
	movq	%rax, %rsi
	leaq	10(%r9), %rax
	cmovne	%rax, %rsi
	jmp	.L1020
.L1017:
	movl	$-324, 28(%rsp)
	cmpq	%rbx, 28(%rsp)
	jnb	.L1024
	movq	%r9, %rsi
	testb	%r13b, %r13b
	jne	.L1020
	movzbl	%r12b, %r12d
	leaq	(%r12,%r10), %rsi
	jmp	.L1020
.L1024:
	movq	%r8, %rdx
	notq	%rdx
	andl	$1, %edx
	jmp	.L1023
.L1070:
	call	__stack_chk_fail@PLT
	.cfi_endproc
.LFE10551:
	.size	yy_double_to_string, .-yy_double_to_string
	.globl	__udivti3
	.globl	__divti3
	.p2align 4
	.globl	_Z15ldouble_convertRyRi
	.type	_Z15ldouble_convertRyRi, @function
_Z15ldouble_convertRyRi:
.LFB10558:
	.cfi_startproc
	endbr64
	pushq	%r12
	.cfi_def_cfa_offset 16
	.cfi_offset 12, -16
	pushq	%rbp
	.cfi_def_cfa_offset 24
	.cfi_offset 6, -24
	pushq	%rbx
	.cfi_def_cfa_offset 32
	.cfi_offset 3, -32
	movq	%rdi, %r12
	movl	(%rsi), %ebx
	movq	%rsi, %rbp
	movl	%ebx, %eax
	andl	$3, %eax
	shlx	%rax, (%rdi), %rax
	sarl	$2, %ebx
	js	.L1075
	movslq	%ebx, %rdx
	leaq	_ZZL15positive_diy_fpiE17positive_base_lut(%rip), %rcx
	leaq	_ZZL15positive_diy_fpiE18positive_index_lut(%rip), %rsi
	movq	(%rcx,%rdx,8), %rcx
	movsbl	(%rsi,%rdx), %esi
.L1076:
	subl	%esi, %ebx
	movabsq	$54210108624274, %rsi
	mulq	%rcx
	cmpq	%rdx, %rsi
	jb	.L1077
	movabsq	$50000000000000000, %rsi
	xorl	%edi, %edi
	addq	%rsi, %rax
	adcq	%rdi, %rdx
	movq	%rax, %rdi
	xorl	%ecx, %ecx
	addl	$17, %ebx
	movq	%rdx, %rsi
	movabsq	$100000000000000000, %rdx
	call	__udivti3@PLT
	movq	%rax, (%r12)
	movl	%ebx, 0(%rbp)
	popq	%rbx
	.cfi_remember_state
	.cfi_def_cfa_offset 24
	popq	%rbp
	.cfi_def_cfa_offset 16
	popq	%r12
	.cfi_def_cfa_offset 8
	ret
	.p2align 4
	.p2align 3
.L1077:
	.cfi_restore_state
	movabsq	$542101086242751, %rsi
	cmpq	%rdx, %rsi
	jb	.L1079
	movabsq	$500000000000000000, %rsi
	xorl	%edi, %edi
	addq	%rsi, %rax
	adcq	%rdi, %rdx
	movq	%rax, %rdi
	xorl	%ecx, %ecx
	addl	$18, %ebx
	movq	%rdx, %rsi
	movabsq	$1000000000000000000, %rdx
	call	__udivti3@PLT
	movq	%rax, (%r12)
	movl	%ebx, 0(%rbp)
	popq	%rbx
	.cfi_remember_state
	.cfi_def_cfa_offset 24
	popq	%rbp
	.cfi_def_cfa_offset 16
	popq	%r12
	.cfi_def_cfa_offset 8
	ret
	.p2align 4
	.p2align 3
.L1079:
	.cfi_restore_state
	movabsq	$5000000000000000000, %rsi
	xorl	%edi, %edi
	addq	%rsi, %rax
	adcq	%rdi, %rdx
	movq	%rax, %rdi
	xorl	%ecx, %ecx
	addl	$19, %ebx
	movq	%rdx, %rsi
	movabsq	$-8446744073709551616, %rdx
	call	__udivti3@PLT
	movq	%rax, (%r12)
	movl	%ebx, 0(%rbp)
	popq	%rbx
	.cfi_remember_state
	.cfi_def_cfa_offset 24
	popq	%rbp
	.cfi_def_cfa_offset 16
	popq	%r12
	.cfi_def_cfa_offset 8
	ret
	.p2align 4
	.p2align 3
.L1075:
	.cfi_restore_state
	movl	%ebx, %edx
	leaq	_ZZL15negative_diy_fpiE17negative_base_lut(%rip), %rcx
	leaq	_ZZL15negative_diy_fpiE18negative_index_lut(%rip), %rsi
	negl	%edx
	movslq	%edx, %rdx
	movq	(%rcx,%rdx,8), %rcx
	movsbl	(%rsi,%rdx), %esi
	jmp	.L1076
	.cfi_endproc
.LFE10558:
	.size	_Z15ldouble_convertRyRi, .-_Z15ldouble_convertRyRi
	.p2align 4
	.globl	_Z18ldouble_f64_to_decdPyPi
	.type	_Z18ldouble_f64_to_decdPyPi, @function
_Z18ldouble_f64_to_decdPyPi:
.LFB10559:
	.cfi_startproc
	endbr64
	pushq	%r12
	.cfi_def_cfa_offset 16
	.cfi_offset 12, -16
	vmovq	%xmm0, %rax
	pushq	%rbp
	.cfi_def_cfa_offset 24
	.cfi_offset 6, -24
	pushq	%rbx
	.cfi_def_cfa_offset 32
	.cfi_offset 3, -32
	movq	%rsi, %rbx
	movabsq	$4503599627370495, %rsi
	movq	%rdi, %rbp
	andq	%rax, %rsi
	shrq	$52, %rax
	andl	$2047, %eax
	je	.L1082
	subl	$1075, %eax
	btsq	$52, %rsi
	movl	%eax, %edx
	andl	$3, %edx
	sarl	$2, %eax
	shlx	%rdx, %rsi, %rsi
	js	.L1083
	movslq	%eax, %rdx
	leaq	_ZZL15positive_diy_fpiE17positive_base_lut(%rip), %rcx
	movq	(%rcx,%rdx,8), %rdi
	leaq	_ZZL15positive_diy_fpiE18positive_index_lut(%rip), %rcx
	movsbl	(%rcx,%rdx), %ecx
.L1084:
	subl	%ecx, %eax
	movq	%rsi, %rdx
	movl	%eax, %r12d
	movabsq	$54210108624274, %rax
	mulx	%rdi, %rsi, %rdi
	cmpq	%rdi, %rax
	jnb	.L1097
	movabsq	$542101086242751, %rax
	cmpq	%rdi, %rax
	jb	.L1087
	movabsq	$500000000000000000, %rax
	xorl	%edx, %edx
	addq	%rsi, %rax
	adcq	%rdi, %rdx
	movq	%rax, %rdi
	xorl	%ecx, %ecx
	movq	%rdx, %rsi
	movabsq	$1000000000000000000, %rdx
	call	__udivti3@PLT
	leal	18(%r12), %edx
.L1086:
	movq	%rax, 0(%rbp)
	movl	%edx, (%rbx)
	popq	%rbx
	.cfi_remember_state
	.cfi_def_cfa_offset 24
	popq	%rbp
	.cfi_def_cfa_offset 16
	popq	%r12
	.cfi_def_cfa_offset 8
	ret
	.p2align 4
	.p2align 3
.L1097:
	.cfi_restore_state
	movabsq	$50000000000000000, %rax
	xorl	%edx, %edx
	addq	%rsi, %rax
	adcq	%rdi, %rdx
	movq	%rax, %rdi
	xorl	%ecx, %ecx
	movq	%rdx, %rsi
	movabsq	$100000000000000000, %rdx
	call	__udivti3@PLT
	leal	17(%r12), %edx
	movq	%rax, 0(%rbp)
	movl	%edx, (%rbx)
	popq	%rbx
	.cfi_remember_state
	.cfi_def_cfa_offset 24
	popq	%rbp
	.cfi_def_cfa_offset 16
	popq	%r12
	.cfi_def_cfa_offset 8
	ret
	.p2align 4
	.p2align 3
.L1083:
	.cfi_restore_state
	movl	%eax, %edx
	leaq	_ZZL15negative_diy_fpiE17negative_base_lut(%rip), %rcx
	negl	%edx
	movslq	%edx, %rdx
	movq	(%rcx,%rdx,8), %rdi
	leaq	_ZZL15negative_diy_fpiE18negative_index_lut(%rip), %rcx
	movsbl	(%rcx,%rdx), %ecx
	jmp	.L1084
	.p2align 4
	.p2align 3
.L1087:
	movabsq	$5000000000000000000, %rax
	xorl	%edx, %edx
	addq	%rax, %rsi
	adcq	%rdx, %rdi
	movq	%rsi, %rax
	movabsq	$-8446744073709551616, %rdx
	xorl	%ecx, %ecx
	movq	%rdi, %rsi
	movq	%rax, %rdi
	call	__udivti3@PLT
	leal	19(%r12), %edx
	movq	%rax, 0(%rbp)
	movl	%edx, (%rbx)
	popq	%rbx
	.cfi_remember_state
	.cfi_def_cfa_offset 24
	popq	%rbp
	.cfi_def_cfa_offset 16
	popq	%r12
	.cfi_def_cfa_offset 8
	ret
	.p2align 4
	.p2align 3
.L1082:
	.cfi_restore_state
	lzcntq	%rsi, %rax
	movl	$-1074, %edx
	subl	$11, %eax
	vxorps	%xmm1, %xmm1, %xmm1
	subl	%eax, %edx
	shlx	%rax, %rsi, %rsi
	leaq	_ZZL15negative_diy_fpiE18negative_index_lut(%rip), %r8
	cltq
	movl	%edx, %ecx
	andl	$3, %edx
	vmovsd	.LC53(%rip), %xmm2
	sarl	$2, %ecx
	shlx	%rdx, %rsi, %rsi
	vcvtusi2sdq	%rsi, %xmm1, %xmm0
	movl	%ecx, %edi
	leaq	_ZZL15negative_diy_fpiE17negative_base_lut(%rip), %rsi
	negl	%edi
	movslq	%edi, %rdx
	vcvtusi2sdq	(%rsi,%rdx,8), %xmm1, %xmm1
	leaq	_ZL10digits_lut(%rip), %rsi
	movsbl	(%r8,%rdx), %edx
	vmulsd	%xmm1, %xmm0, %xmm0
	movzbl	(%rsi,%rax), %edi
	leaq	_ZZL29ldouble_convert_no_normalizedRyRiiE8add_luts(%rip), %rax
	subl	%edx, %ecx
	vaddsd	(%rax,%rdi,8), %xmm0, %xmm1
	vcomisd	%xmm1, %xmm2
	jbe	.L1094
	leaq	_ZZL29ldouble_convert_no_normalizedRyRiiE8mul_luts(%rip), %rax
	leal	17(%rdi,%rcx), %edx
	vmulsd	(%rax,%rdi,8), %xmm1, %xmm1
	vcvttsd2usi	%xmm1, %rax
	jmp	.L1086
	.p2align 4
	.p2align 3
.L1094:
	leal	1(%rdi), %edx
	vmovsd	.LC54(%rip), %xmm2
	movslq	%edx, %rdx
	vaddsd	(%rax,%rdx,8), %xmm0, %xmm1
	vcomisd	%xmm1, %xmm2
	jbe	.L1095
	leaq	_ZZL29ldouble_convert_no_normalizedRyRiiE8mul_luts(%rip), %rax
	vmulsd	(%rax,%rdx,8), %xmm1, %xmm1
	leal	18(%rdi,%rcx), %edx
	vcvttsd2usi	%xmm1, %rax
	jmp	.L1086
	.p2align 4
	.p2align 3
.L1095:
	leal	2(%rdi), %edx
	movslq	%edx, %rdx
	vaddsd	(%rax,%rdx,8), %xmm0, %xmm0
	leaq	_ZZL29ldouble_convert_no_normalizedRyRiiE8mul_luts(%rip), %rax
	vmulsd	(%rax,%rdx,8), %xmm0, %xmm0
	leal	19(%rdi,%rcx), %edx
	vcvttsd2usi	%xmm0, %rax
	jmp	.L1086
	.cfi_endproc
.LFE10559:
	.size	_Z18ldouble_f64_to_decdPyPi, .-_Z18ldouble_f64_to_decdPyPi
	.p2align 4
	.globl	_Z5getnsv
	.type	_Z5getnsv, @function
_Z5getnsv:
.LFB10582:
	.cfi_startproc
	endbr64
	subq	$8, %rsp
	.cfi_def_cfa_offset 16
	call	_ZNSt6chrono3_V212system_clock3nowEv@PLT
	addq	$8, %rsp
	.cfi_def_cfa_offset 8
	ret
	.cfi_endproc
.LFE10582:
	.size	_Z5getnsv, .-_Z5getnsv
	.p2align 4
	.globl	_Z11free_doublev
	.type	_Z11free_doublev, @function
_Z11free_doublev:
.LFB10607:
	.cfi_startproc
	endbr64
	subq	$8, %rsp
	.cfi_def_cfa_offset 16
	movq	data(%rip), %rdi
	testq	%rdi, %rdi
	je	.L1101
	call	free@PLT
.L1101:
	movq	dec(%rip), %rdi
	testq	%rdi, %rdi
	je	.L1102
	call	free@PLT
.L1102:
	movq	e10(%rip), %rdi
	testq	%rdi, %rdi
	je	.L1103
	call	free@PLT
.L1103:
	movq	$0, data(%rip)
	movq	$0, dec(%rip)
	movq	$0, e10(%rip)
	addq	$8, %rsp
	.cfi_def_cfa_offset 8
	ret
	.cfi_endproc
.LFE10607:
	.size	_Z11free_doublev, .-_Z11free_doublev
	.p2align 4
	.globl	_Z10free_floatv
	.type	_Z10free_floatv, @function
_Z10free_floatv:
.LFB10608:
	.cfi_startproc
	endbr64
	subq	$8, %rsp
	.cfi_def_cfa_offset 16
	movq	data_float(%rip), %rdi
	testq	%rdi, %rdi
	je	.L1115
	call	free@PLT
.L1115:
	movq	dec_float(%rip), %rdi
	testq	%rdi, %rdi
	je	.L1116
	call	free@PLT
.L1116:
	movq	e10_float(%rip), %rdi
	testq	%rdi, %rdi
	je	.L1117
	call	free@PLT
.L1117:
	movq	$0, data_float(%rip)
	movq	$0, dec_float(%rip)
	movq	$0, e10_float(%rip)
	addq	$8, %rsp
	.cfi_def_cfa_offset 8
	ret
	.cfi_endproc
.LFE10608:
	.size	_Z10free_floatv, .-_Z10free_floatv
	.section	.rodata.str1.1
.LC55:
	.string	"%d. bench %14s : "
	.section	.rodata.str1.8
	.align 8
.LC58:
	.string	"cost %4.4lf ms,every double cost %2.4lf ns\n"
	.section	.text.unlikely,"ax",@progbits
.LCOLDB59:
	.text
.LHOTB59:
	.p2align 4
	.globl	_Z24bench_double_single_impli
	.type	_Z24bench_double_single_impli, @function
_Z24bench_double_single_impli:
.LFB10609:
	.cfi_startproc
	.cfi_personality 0x9b,DW.ref.__gxx_personality_v0
	.cfi_lsda 0x1b,.LLSDA10609
	endbr64
	leaq	8(%rsp), %r10
	.cfi_def_cfa 10, 0
	andq	$-32, %rsp
	pushq	-8(%r10)
	pushq	%rbp
	movq	%rsp, %rbp
	.cfi_escape 0x10,0x6,0x2,0x76,0
	pushq	%r15
	pushq	%r14
	pushq	%r13
	pushq	%r12
	pushq	%r10
	.cfi_escape 0xf,0x3,0x76,0x58,0x6
	.cfi_escape 0x10,0xf,0x2,0x76,0x78
	.cfi_escape 0x10,0xe,0x2,0x76,0x70
	.cfi_escape 0x10,0xd,0x2,0x76,0x68
	.cfi_escape 0x10,0xc,0x2,0x76,0x60
	pushq	%rbx
	leaq	-96(%rbp), %rcx
	subq	$160, %rsp
	.cfi_escape 0x10,0x3,0x2,0x76,0x50
	movl	%edi, %ebx
	movq	%fs:40, %rax
	movq	%rax, -56(%rbp)
	xorl	%eax, %eax
	movq	%rcx, -184(%rbp)
	movslq	%edi, %rax
	leaq	-80(%rbp), %rcx
	leaq	(%rax,%rax,4), %rdx
	movq	_Z13algorithm_setB5cxx11(%rip), %rax
	movq	%rcx, -96(%rbp)
	movq	%rcx, -168(%rbp)
	leaq	(%rax,%rdx,8), %rax
	movq	8(%rax), %r12
	movq	(%rax), %r14
	movq	%r12, -104(%rbp)
	cmpq	$15, %r12
	ja	.L1257
	cmpq	$1, %r12
	jne	.L1131
	movzbl	(%r14), %eax
	movb	%al, -80(%rbp)
.L1133:
	movq	-168(%rbp), %rax
.L1132:
	movq	%r12, -88(%rbp)
	movb	$0, (%rax,%r12)
	movq	e10(%rip), %rax
	movq	-96(%rbp), %rcx
	movl	%ebx, %edx
	leaq	.LC55(%rip), %rsi
	movq	dec(%rip), %r15
	movl	$2, %edi
	movq	%rax, -120(%rbp)
	xorl	%eax, %eax
.LEHB0:
	call	__printf_chk@PLT
	call	_ZNSt6chrono3_V212system_clock3nowEv@PLT
	movq	%rax, -176(%rbp)
	testl	%ebx, %ebx
	je	.L1134
	cmpl	$1, %ebx
	jne	.L1258
	leaq	_ZZN3xjbL19ComputePow10_DoubleEiE1g(%rip), %rax
	vmovq	data(%rip), %xmm4
	vmovdqa	.LC22(%rip), %ymm7
	xorl	%r14d, %r14d
	vmovdqa	.LC24(%rip), %xmm5
	vmovq	%rax, %xmm3
	movl	$1, %eax
	vpbroadcastw	%eax, %ymm6
	vmovq	%r15, %xmm9
	jmp	.L1148
	.p2align 4
	.p2align 3
.L1261:
	addq	$10, %r8
	vmovq	%xmm9, %rax
	movq	%r8, (%rax,%r14,8)
.L1256:
	movq	-120(%rbp), %rax
	movl	%r15d, (%rax,%r14,4)
	incq	%r14
	cmpq	$100000000, %r14
	je	.L1259
.L1148:
	vmovq	%xmm4, %rax
	movabsq	$4503599627370495, %r9
	movq	(%rax,%r14,8), %rcx
	andq	%rcx, %r9
	shrq	$52, %rcx
	andl	$2047, %ecx
	je	.L1201
	subl	$1075, %ecx
	movabsq	$4503599627370496, %r8
	imull	$1262611, %ecx, %edx
	orq	%r9, %r8
.L1140:
	leaq	0(,%r8,4), %r13
	cmpq	$1, %r9
	leal	-524031(%rdx), %esi
	movl	$292, %r10d
	movq	%r13, %rax
	vmovq	%xmm3, %rbx
	leaq	2(%r13), %r12
	adcq	$-2, %rax
	sarl	$22, %edx
	sarl	$22, %esi
	testq	%r9, %r9
	cmovne	%edx, %esi
	subl	%esi, %r10d
	imull	$-1741647, %esi, %edx
	movl	%esi, %r15d
	movslq	%r10d, %r10
	salq	$4, %r10
	addq	%rbx, %r10
	movq	8(%r10), %rbx
	movq	(%r10), %rsi
	sarl	$19, %edx
	leal	1(%rcx,%rdx), %edi
	shlx	%rdi, %rax, %rax
	movq	%rax, %rdx
	mulx	%rsi, %r10, %r11
	mulq	%rbx
	movq	%rbx, %rax
	addq	%rdx, %r10
	shlx	%rdi, %r13, %rdx
	adcq	$0, %r11
	movq	%r10, -144(%rbp)
	movq	%r11, -136(%rbp)
	mulx	%rsi, %r10, %r11
	mulq	%rdx
	addq	%rdx, %r10
	shlx	%rdi, %r12, %rdx
	mulx	%rsi, %rsi, %rdi
	movq	-144(%rbp), %r12
	movq	%r10, %rax
	adcq	$0, %r11
	xorl	%r10d, %r10d
	cmpq	$1, %rax
	movq	%rbx, %rax
	seta	%r10b
	mulq	%rdx
	movq	-136(%rbp), %rax
	orq	%r11, %r10
	addq	%rdx, %rsi
	adcq	$0, %rdi
	cmpq	$1, %rsi
	seta	%sil
	andl	$1, %r8d
	xorl	%ebx, %ebx
	movzbl	%sil, %esi
	orq	%rdi, %rsi
	cmpq	$1, %r12
	movq	$-3, %rdi
	seta	%bl
	andl	$7, %r10d
	subq	%r8, %rdi
	shrq	$2, %r11
	orq	%rax, %rbx
	movabsq	$1844674407370955162, %rax
	mulq	%r11
	movl	$200, %eax
	addq	%r8, %rbx
	sarx	%r10d, %eax, %eax
	andl	$1, %eax
	addq	%r11, %rax
	leaq	0(,%rdx,4), %r12
	leaq	(%r12,%rdx), %r8
	addq	%r8, %r8
	testq	%r9, %r9
	je	.L1260
.L1143:
	addq	%r12, %rdx
	salq	$3, %rdx
	cmpq	%rbx, %rdx
	cmovnb	%r8, %rax
	addq	$37, %rdx
	addq	%rsi, %rdi
	cmpq	%rdx, %rdi
	jnb	.L1261
	vmovq	%xmm9, %rbx
	movq	%rax, (%rbx,%r14,8)
	jmp	.L1256
.L1131:
	testq	%r12, %r12
	je	.L1133
	movq	-168(%rbp), %rdi
	jmp	.L1130
	.p2align 4
	.p2align 3
.L1260:
	vpbroadcastw	%ecx, %ymm0
	movl	$1, %r11d
	vpcmpeqw	%ymm7, %ymm0, %ymm0
	vpand	%ymm6, %ymm0, %ymm0
	vpmovzxwd	%xmm0, %ymm1
	vextracti128	$0x1, %ymm0, %xmm0
	vpmovzxwd	%xmm0, %ymm0
	vextracti128	$0x1, %ymm1, %xmm2
	vpmovzxdq	%xmm1, %ymm1
	vpmovzxdq	%xmm2, %ymm2
	vpaddq	%ymm1, %ymm2, %ymm2
	vpmovzxdq	%xmm0, %ymm1
	vextracti128	$0x1, %ymm0, %xmm0
	vpmovzxdq	%xmm0, %ymm0
	vpaddq	%ymm2, %ymm1, %ymm1
	vpbroadcastw	%ecx, %xmm2
	vpaddq	%ymm1, %ymm0, %ymm0
	vpcmpeqw	%xmm5, %xmm2, %xmm2
	vpbroadcastw	%r11d, %xmm1
	vpand	%xmm1, %xmm2, %xmm2
	vpmovzxwd	%xmm2, %xmm8
	vpsrldq	$8, %xmm2, %xmm2
	vpmovzxwd	%xmm2, %xmm2
	vpsrldq	$8, %xmm8, %xmm1
	vpmovzxdq	%xmm8, %xmm8
	vpmovzxdq	%xmm1, %xmm1
	vpaddq	%xmm8, %xmm1, %xmm1
	vpmovzxdq	%xmm2, %xmm8
	vpsrldq	$8, %xmm2, %xmm2
	vpmovzxdq	%xmm2, %xmm2
	vpaddq	%xmm8, %xmm1, %xmm1
	vpaddq	%xmm2, %xmm1, %xmm1
	vpaddq	%xmm0, %xmm1, %xmm1
	vextracti64x2	$0x1, %ymm0, %xmm0
	vpaddq	%xmm0, %xmm1, %xmm0
	vpsrldq	$8, %xmm0, %xmm1
	vpaddq	%xmm1, %xmm0, %xmm0
	vmovq	%xmm0, %r9
	addq	%rax, %r9
	xorl	%eax, %eax
	cmpw	$811, %cx
	sete	%al
	cmpw	$924, %cx
	sete	%cl
	movzbl	%cl, %ecx
	addq	%rcx, %rax
	addq	%r9, %rax
	jmp	.L1143
	.p2align 4
	.p2align 3
.L1201:
	movq	%r9, %r8
	movl	$-1356044214, %edx
	movl	$-1074, %ecx
	jmp	.L1140
.L1134:
	movq	data(%rip), %r14
	movq	-120(%rbp), %r13
	xorl	%ebx, %ebx
	movabsq	$4503599627370495, %r12
	.p2align 4
	.p2align 3
.L1137:
	movq	(%r14,%rbx,8), %rdi
	movq	%rdi, %rsi
	andq	%r12, %rdi
	shrq	$52, %rsi
	andl	$2047, %esi
	call	_Z11ToDecimal64mm
	movq	%rax, (%r15,%rbx,8)
	movl	%edx, 0(%r13,%rbx,4)
	incq	%rbx
	cmpq	$100000000, %rbx
	jne	.L1137
	.p2align 4
	.p2align 3
.L1170:
	call	_ZNSt6chrono3_V212system_clock3nowEv@PLT
	movq	-120(%rbp), %rsi
	xorl	%edx, %edx
	.p2align 4
	.p2align 3
.L1185:
	movq	(%r15,%rdx,8), %rcx
	movl	%ecx, -108(%rbp)
	movl	(%rsi,%rdx,4), %ecx
	incq	%rdx
	movl	%ecx, -104(%rbp)
	movl	-108(%rbp), %ecx
	movl	-104(%rbp), %ecx
	cmpq	$100000000, %rdx
	jne	.L1185
	movq	-176(%rbp), %rbx
	vxorps	%xmm1, %xmm1, %xmm1
	leaq	.LC58(%rip), %rsi
	movl	$2, %edi
	subq	%rbx, %rax
	vcvtusi2sdq	%rax, %xmm1, %xmm1
	movl	$2, %eax
	vdivsd	.LC57(%rip), %xmm1, %xmm0
	vmulsd	.LC56(%rip), %xmm1, %xmm1
	call	__printf_chk@PLT
.LEHE0:
	movq	-96(%rbp), %rdi
	movq	-168(%rbp), %rax
	cmpq	%rax, %rdi
	je	.L1128
	movq	-80(%rbp), %rax
	leaq	1(%rax), %rsi
	call	_ZdlPvm@PLT
.L1128:
	movq	-56(%rbp), %rax
	subq	%fs:40, %rax
	jne	.L1262
	addq	$160, %rsp
	popq	%rbx
	popq	%r10
	.cfi_remember_state
	.cfi_def_cfa 10, 0
	popq	%r12
	popq	%r13
	popq	%r14
	popq	%r15
	popq	%rbp
	leaq	-8(%r10), %rsp
	.cfi_def_cfa 7, 8
	ret
.L1259:
	.cfi_restore_state
	vmovq	%xmm9, %r15
	vzeroupper
	jmp	.L1170
.L1257:
	movq	-184(%rbp), %rdi
	leaq	-104(%rbp), %rsi
	xorl	%edx, %edx
.LEHB1:
	call	_ZNSt7__cxx1112basic_stringIcSt11char_traitsIcESaIcEE9_M_createERmm@PLT
.LEHE1:
	movq	%rax, %rdi
	movq	%rax, -96(%rbp)
	movq	-104(%rbp), %rax
	movq	%rax, -80(%rbp)
.L1130:
	movq	%r12, %rdx
	movq	%r14, %rsi
	call	memcpy@PLT
	movq	-104(%rbp), %r12
	movq	-96(%rbp), %rax
	jmp	.L1132
.L1258:
	movq	data(%rip), %r13
	xorl	%r14d, %r14d
	cmpl	$2, %ebx
	jne	.L1241
	leaq	_ZZN14dragonbox_warpL14MultipleOfPow5EmiE4Mod5(%rip), %rax
	vmovq	%r13, %xmm6
	vmovq	%r15, %xmm5
	vmovq	%rax, %xmm2
	movabsq	$4503599627370496, %rax
	vmovq	%rax, %xmm1
	leaq	_ZZN14dragonbox_warpL19ComputePow10_DoubleEiE5Pow10(%rip), %rax
	vmovq	%rax, %xmm0
	jmp	.L1169
	.p2align 4
	.p2align 3
.L1265:
	testq	%rdi, %rdi
	jne	.L1209
	subl	$524031, %ecx
	movl	$292, %eax
	vmovq	%xmm0, %rbx
	movl	$11, %r10d
	sarl	$22, %ecx
	subl	%ecx, %eax
	imull	$-1741647, %ecx, %r8d
	salq	$4, %rax
	movq	(%rbx,%rax), %rsi
	sarl	$19, %r8d
	addl	%r9d, %r8d
	movq	%rsi, %rax
	movq	%rsi, %rdi
	subl	%r8d, %r10d
	shrq	$54, %rax
	subq	%rax, %rdi
	leal	-1077(%rdx), %eax
	movq	%rsi, %rdx
	cmpl	$1, %eax
	shrx	%r10, %rdi, %rdi
	seta	%al
	shrq	$53, %rdx
	movzbl	%al, %eax
	addq	%rsi, %rdx
	addq	%rax, %rdi
	movabsq	$-3689348814741910323, %rax
	shrx	%r10, %rdx, %rdx
	mulq	%rdx
	shrq	$3, %rdx
	leaq	(%rdx,%rdx,4), %rax
	movq	%rdx, %r13
	addq	%rax, %rax
	cmpq	%rdi, %rax
	jnb	.L1164
	movl	$10, %eax
	subl	%r8d, %eax
	shrx	%rax, %rsi, %rsi
	incq	%rsi
	shrq	%rsi
	cmpl	$-77, %r9d
	je	.L1263
	cmpq	%rdi, %rsi
	adcq	$0, %rsi
	movq	%rsi, %r13
	.p2align 4
	.p2align 3
.L1158:
	vmovq	%xmm5, %rax
	movq	%r13, (%rax,%r14,8)
	movq	-120(%rbp), %rax
	movl	%ecx, (%rax,%r14,4)
	incq	%r14
	cmpq	$100000000, %r14
	je	.L1264
.L1169:
	vmovq	%xmm6, %rax
	movabsq	$4503599627370495, %rdi
	movq	(%rax,%r14,8), %rax
	movq	%rax, %rdx
	andq	%rax, %rdi
	shrq	$52, %rdx
	andl	$2047, %edx
	je	.L1203
	leal	-1075(%rdx), %r9d
	movabsq	$9214364837600034816, %rbx
	imull	$1262611, %r9d, %ecx
	testq	%rbx, %rax
	jne	.L1265
.L1209:
	sarl	$22, %ecx
	vmovq	%xmm1, %rax
	vmovq	%xmm0, %rbx
	orq	%rax, %rdi
	leal	-2(%rcx), %eax
	movl	$2, %esi
	movl	$63, %r8d
	movl	%eax, -124(%rbp)
	movl	$294, %eax
	subl	%ecx, %esi
	xorl	%edx, %edx
	subl	%ecx, %eax
	imull	$1741647, %esi, %esi
	xorl	%r11d, %r11d
	movq	%rdx, -136(%rbp)
	salq	$4, %rax
	addq	%rbx, %rax
	movq	(%rax), %rbx
	movq	8(%rax), %rax
	sarl	$19, %esi
	addl	%r9d, %esi
	subl	%esi, %r8d
	movq	%rbx, %r10
	movq	%rax, -144(%rbp)
	shrx	%r8, %rbx, %r8
.L1151:
	leaq	(%rdi,%rdi), %r15
	movq	%r11, %rdx
	leaq	1(%r15), %r12
	shlx	%rsi, %r12, %rax
	imulq	%rax, %rdx
	movq	%rdx, %r13
	movq	%rax, %rdx
	mulx	%r10, %r10, %r11
	movq	%r11, -152(%rbp)
	leaq	(%r11,%r13), %r11
	movq	-136(%rbp), %r13
	movq	%r10, -160(%rbp)
	imulq	%rax, %r13
	mulq	-144(%rbp)
	movabsq	$2361183241434822607, %rax
	addq	%rdx, %r13
	addq	-160(%rbp), %r13
	adcq	$0, %r11
	movq	%r11, %rdx
	shrq	$3, %rdx
	mulq	%rdx
	shrq	$4, %rdx
	imull	$1000, %edx, %eax
	movq	%rdx, %r13
	subl	%eax, %r11d
	cmpl	%r8d, %r11d
	jnb	.L1159
	notq	%rdi
	andl	$1, %edi
	cmpl	$-2, %r9d
	setl	%al
	orb	%dil, %al
	jne	.L1164
	testl	%r11d, %r11d
	jne	.L1164
	cmpl	$9, %r9d
	jle	.L1161
	cmpl	$86, %r9d
	jg	.L1164
	movl	-124(%rbp), %eax
	vmovq	%xmm2, %rdi
	salq	$4, %rax
	imulq	(%rdi,%rax), %r12
	cmpq	8(%rdi,%rax), %r12
	ja	.L1164
.L1161:
	decq	%r13
	movl	$1000, %r11d
.L1162:
	shrl	%r8d
	subl	%r8d, %r11d
	leaq	0(%r13,%r13,4), %r10
	leal	50(%r11), %eax
	movq	%rax, %rdi
	imulq	$1374389535, %rax, %rax
	shrq	$37, %rax
	movl	%eax, %edx
	imull	$100, %eax, %eax
	leaq	(%rdx,%r10,2), %r13
	cmpl	%eax, %edi
	jne	.L1158
	movq	-136(%rbp), %rax
	movq	-144(%rbp), %r11
	imulq	%r15, %rbx
	imulq	%r15, %rax
	movq	%r11, %rdx
	mulx	%r15, %r10, %r11
	addq	%r11, %rax
	addq	%rax, %rbx
	movl	$64, %eax
	subl	%esi, %eax
	btq	%rax, %rbx
	jc	.L1168
	testb	$1, %r13b
	je	.L1158
	cmpl	$-4, %r9d
	jge	.L1167
	movl	-124(%rbp), %eax
	subl	%r9d, %eax
	incl	%eax
	cmpl	$63, %eax
	jg	.L1158
	bzhi	%rax, %r15, %rax
	testq	%rax, %rax
	jne	.L1158
	.p2align 4
	.p2align 3
.L1168:
	decq	%r13
	jmp	.L1158
	.p2align 4
	.p2align 3
.L1164:
	incl	%ecx
	jmp	.L1158
	.p2align 4
	.p2align 3
.L1159:
	jne	.L1162
	leaq	-1(%r15), %rax
	cmpl	$-2, %r9d
	jl	.L1163
	andl	$1, %edi
	jne	.L1163
	cmpl	$9, %r9d
	jle	.L1164
	cmpl	$86, %r9d
	jg	.L1163
	movl	-124(%rbp), %edi
	vmovq	%xmm2, %rdx
	salq	$4, %rdi
	movq	(%rdx,%rdi), %r10
	imulq	%rax, %r10
	cmpq	8(%rdx,%rdi), %r10
	jbe	.L1164
	.p2align 4
	.p2align 3
.L1163:
	movq	-144(%rbp), %r11
	movq	-136(%rbp), %rdi
	movq	%r11, %rdx
	imulq	%rax, %rdi
	mulx	%rax, %r10, %r11
	imulq	%rbx, %rax
	addq	%r11, %rdi
	addq	%rdi, %rax
	movl	$64, %edi
	subl	%esi, %edi
	btq	%rdi, %rax
	jc	.L1164
	movl	%r8d, %r11d
	jmp	.L1162
	.p2align 4
	.p2align 3
.L1203:
	movabsq	$-5130745324059681113, %rax
	xorl	%edx, %edx
	movabsq	$-646153205651940552, %r10
	xorl	%r11d, %r11d
	movl	$494, %r8d
	movabsq	$-646153205651940552, %rbx
	movl	$8, %esi
	movl	$-324, %ecx
	movl	$-1074, %r9d
	movq	%rax, -144(%rbp)
	movq	%rdx, -136(%rbp)
	movl	$-326, -124(%rbp)
	jmp	.L1151
	.p2align 4
	.p2align 3
.L1263:
	andq	$-2, %rsi
	movq	%rsi, %r13
	jmp	.L1158
.L1167:
	cmpl	$9, %r9d
	jle	.L1168
	cmpl	$86, %r9d
	jg	.L1158
	movl	-124(%rbp), %esi
	leaq	_ZZN14dragonbox_warpL14MultipleOfPow5EmiE4Mod5(%rip), %rdi
	salq	$4, %rsi
	imulq	(%rdi,%rsi), %r15
	cmpq	8(%rdi,%rsi), %r15
	jbe	.L1168
	jmp	.L1158
	.p2align 4
	.p2align 3
.L1264:
	vmovq	%xmm5, %r15
	jmp	.L1170
.L1241:
	xorl	%r14d, %r14d
	movabsq	$4503599627370495, %r12
	cmpl	$3, %ebx
	jne	.L1266
	movq	-120(%rbp), %rbx
	.p2align 4
	.p2align 3
.L1173:
	movq	0(%r13,%r14,8), %rdi
	movq	%rdi, %rsi
	andq	%r12, %rdi
	shrq	$52, %rsi
	andl	$2047, %esi
	call	_ZL3d2dmj
	movq	%rax, (%r15,%r14,8)
	movl	%edx, (%rbx,%r14,4)
	incq	%r14
	cmpq	$100000000, %r14
	jne	.L1173
	jmp	.L1170
.L1266:
	cmpl	$4, %ebx
	je	.L1171
	cmpl	$5, %ebx
	jne	.L1267
	movq	-120(%rbp), %r12
	xorl	%ebx, %ebx
	.p2align 4
	.p2align 3
.L1182:
	movq	data(%rip), %rax
	leaq	(%r15,%rbx), %rdi
	movq	%r12, %rsi
	addq	$4, %r12
	vmovsd	(%rax,%rbx), %xmm0
	addq	$8, %rbx
	call	_Z18yy_fast_f64_to_decdPyPi
	cmpq	$800000000, %rbx
	jne	.L1182
	jmp	.L1170
.L1171:
	xorl	%r12d, %r12d
	movl	$4294966222, %ebx
	jmp	.L1179
	.p2align 4
	.p2align 3
.L1268:
	btsq	$52, %rsi
	leal	-1075(%rax), %edi
.L1251:
	call	teju_ieee64_with_uint128
	movq	-120(%rbp), %rcx
	movq	%rdx, (%r15,%r12,8)
	movl	%eax, (%rcx,%r12,4)
	incq	%r12
	cmpq	$100000000, %r12
	je	.L1170
.L1179:
	movq	0(%r13,%r12,8), %rax
	movabsq	$4503599627370495, %rsi
	andq	%rax, %rsi
	shrq	$52, %rax
	andl	$2047, %eax
	jne	.L1268
	movl	%ebx, %edi
	jmp	.L1251
.L1267:
	movq	-120(%rbp), %rsi
	xorl	%r12d, %r12d
	cmpl	$6, %ebx
	jne	.L1269
	.p2align 4
	.p2align 3
.L1184:
	movq	data(%rip), %rax
	leaq	(%r15,%r12), %rdi
	vmovsd	(%rax,%r12), %xmm0
	addq	$8, %r12
	call	_Z18yy_full_f64_to_decdPyPi
	addq	$4, %rsi
	cmpq	$800000000, %r12
	jne	.L1184
	jmp	.L1170
.L1269:
	leaq	4688+_ZZL16xjb64_f64_to_decdPyPiE1g(%rip), %rax
	xorl	%r12d, %r12d
	vmovq	%rax, %xmm1
	movabsq	$4611686018427387904, %rax
	vmovq	%rax, %xmm0
	cmpl	$7, %ebx
	je	.L1196
	jmp	.L1170
	.p2align 4
	.p2align 3
.L1270:
	subl	$1075, %eax
	movabsq	$4503599627370496, %rcx
	imull	$315653, %eax, %edx
	orq	%rdi, %rcx
.L1186:
	movl	%edx, %esi
	subl	$131237, %edx
	vmovq	%xmm1, %r11
	sarl	$20, %esi
	sarl	$20, %edx
	movl	%esi, %ebx
	testq	%rdi, %rdi
	cmove	%edx, %ebx
	movl	%ebx, %edx
	notl	%edx
	imull	$217707, %edx, %esi
	addl	%edx, %edx
	movslq	%edx, %rdx
	leaq	(%r11,%rdx,8), %rdx
	sarl	$16, %esi
	leal	(%rsi,%rax), %r14d
	leal	7(%rax,%rsi), %eax
	movq	(%rdx), %r10
	shlx	%rax, %rcx, %r8
	movq	%r8, %rax
	mulq	8(%rdx)
	movq	%rdx, %rsi
	movq	%r10, %rdx
	mulx	%r8, %rax, %rdx
	addq	%rsi, %rax
	adcq	$0, %rdx
	movq	%rax, %r8
	negl	%r14d
	shrdq	$6, %rdx, %r8
	shrx	%r14, %r10, %r10
	movq	%r8, %rsi
	movq	%rdx, %r8
	movq	%rdx, %r9
	shrq	$6, %r8
	leaq	(%r8,%r8,4), %r11
	movq	%rax, %r8
	salq	$2, %r8
	shldq	$2, %rax, %r9
	addq	%r11, %r11
	addq	%r8, %rax
	adcq	%r9, %rdx
	shldq	$1, %rax, %rdx
	movq	%rdx, %rax
	vmovq	%xmm0, %rdx
	addq	$32, %rax
	cmpq	%rdx, %rsi
	sete	%dl
	incq	%rcx
	movzbl	%dl, %edx
	andl	$1, %ecx
	subq	%rdx, %rax
	addq	%r10, %rcx
	shrq	$6, %rax
	testq	%rdi, %rdi
	je	.L1189
	cmpq	%rcx, %rsi
	cmovb	%r11, %rax
.L1190:
	addq	%rsi, %rcx
	jc	.L1193
	movq	%rax, (%r15,%r12,8)
.L1253:
	movq	-120(%rbp), %rax
	movl	%ebx, (%rax,%r12,4)
	incq	%r12
	cmpq	$100000000, %r12
	je	.L1170
.L1196:
	movq	0(%r13,%r12,8), %rax
	movabsq	$4503599627370495, %rdi
	andq	%rax, %rdi
	shrq	$52, %rax
	andl	$2047, %eax
	jne	.L1270
	movq	%rdi, %rcx
	movl	$-339011322, %edx
	movl	$-1074, %eax
	jmp	.L1186
	.p2align 4
	.p2align 3
.L1189:
	movq	%rsi, %rdx
	movq	%r10, %rdi
	shrq	$4, %rdx
	shrq	$4, %rdi
	leaq	(%rdx,%rdx,4), %rdx
	leaq	(%rdi,%rdi,4), %r8
	movabsq	$1152921504606846974, %rdi
	addq	%rdx, %rdx
	andq	%rdx, %rdi
	shrq	$60, %rdx
	cmpq	%rdi, %r8
	leaq	1(%r11,%rdx), %rdx
	cmovb	%rdx, %rax
	shrq	%r10
	cmpq	%r10, %rsi
	cmovb	%r11, %rax
	jmp	.L1190
.L1193:
	addq	$10, %r11
	movq	%r11, (%r15,%r12,8)
	jmp	.L1253
.L1262:
	call	__stack_chk_fail@PLT
.L1208:
	endbr64
	movq	%rax, %rbx
	jmp	.L1198
	.section	.gcc_except_table,"a",@progbits
.LLSDA10609:
	.byte	0xff
	.byte	0xff
	.byte	0x1
	.uleb128 .LLSDACSE10609-.LLSDACSB10609
.LLSDACSB10609:
	.uleb128 .LEHB0-.LFB10609
	.uleb128 .LEHE0-.LEHB0
	.uleb128 .L1208-.LFB10609
	.uleb128 0
	.uleb128 .LEHB1-.LFB10609
	.uleb128 .LEHE1-.LEHB1
	.uleb128 0
	.uleb128 0
.LLSDACSE10609:
	.text
	.cfi_endproc
	.section	.text.unlikely
	.cfi_startproc
	.cfi_personality 0x9b,DW.ref.__gxx_personality_v0
	.cfi_lsda 0x1b,.LLSDAC10609
	.type	_Z24bench_double_single_impli.cold, @function
_Z24bench_double_single_impli.cold:
.LFSB10609:
.L1198:
	.cfi_escape 0xf,0x3,0x76,0x58,0x6
	.cfi_escape 0x10,0x3,0x2,0x76,0x50
	.cfi_escape 0x10,0x6,0x2,0x76,0
	.cfi_escape 0x10,0xc,0x2,0x76,0x60
	.cfi_escape 0x10,0xd,0x2,0x76,0x68
	.cfi_escape 0x10,0xe,0x2,0x76,0x70
	.cfi_escape 0x10,0xf,0x2,0x76,0x78
	movq	-184(%rbp), %rdi
	vzeroupper
	call	_ZNSt7__cxx1112basic_stringIcSt11char_traitsIcESaIcEE10_M_disposeEv@PLT
	movq	-56(%rbp), %rax
	subq	%fs:40, %rax
	jne	.L1271
	movq	%rbx, %rdi
.LEHB2:
	call	_Unwind_Resume@PLT
.LEHE2:
.L1271:
	call	__stack_chk_fail@PLT
	.cfi_endproc
.LFE10609:
	.section	.gcc_except_table
.LLSDAC10609:
	.byte	0xff
	.byte	0xff
	.byte	0x1
	.uleb128 .LLSDACSEC10609-.LLSDACSBC10609
.LLSDACSBC10609:
	.uleb128 .LEHB2-.LCOLDB59
	.uleb128 .LEHE2-.LEHB2
	.uleb128 0
	.uleb128 0
.LLSDACSEC10609:
	.section	.text.unlikely
	.text
	.size	_Z24bench_double_single_impli, .-_Z24bench_double_single_impli
	.section	.text.unlikely
	.size	_Z24bench_double_single_impli.cold, .-_Z24bench_double_single_impli.cold
.LCOLDE59:
	.text
.LHOTE59:
	.section	.rodata.str1.8
	.align 8
.LC60:
	.string	"cost %4.4lf ms,every float cost %2.4lf ns\n"
	.section	.text.unlikely
.LCOLDB61:
	.text
.LHOTB61:
	.p2align 4
	.globl	_Z23bench_float_single_impli
	.type	_Z23bench_float_single_impli, @function
_Z23bench_float_single_impli:
.LFB10610:
	.cfi_startproc
	.cfi_personality 0x9b,DW.ref.__gxx_personality_v0
	.cfi_lsda 0x1b,.LLSDA10610
	endbr64
	pushq	%r15
	.cfi_def_cfa_offset 16
	.cfi_offset 15, -16
	pushq	%r14
	.cfi_def_cfa_offset 24
	.cfi_offset 14, -24
	pushq	%r13
	.cfi_def_cfa_offset 32
	.cfi_offset 13, -32
	pushq	%r12
	.cfi_def_cfa_offset 40
	.cfi_offset 12, -40
	pushq	%rbp
	.cfi_def_cfa_offset 48
	.cfi_offset 6, -48
	pushq	%rbx
	.cfi_def_cfa_offset 56
	.cfi_offset 3, -56
	movl	%edi, %ebp
	subq	$136, %rsp
	.cfi_def_cfa_offset 192
	movq	%fs:40, %rax
	movq	%rax, 120(%rsp)
	xorl	%eax, %eax
	movslq	%edi, %rax
	leaq	80(%rsp), %rbx
	leaq	96(%rsp), %r14
	leaq	(%rax,%rax,4), %rdx
	movq	_Z19algorithm_float_setB5cxx11(%rip), %rax
	movq	%rbx, 48(%rsp)
	movq	%r14, 80(%rsp)
	leaq	(%rax,%rdx,8), %rax
	movq	8(%rax), %rbx
	movq	(%rax), %r12
	movq	%rbx, 72(%rsp)
	cmpq	$15, %rbx
	ja	.L1332
	cmpq	$1, %rbx
	jne	.L1275
	movzbl	(%r12), %eax
	movb	%al, 96(%rsp)
.L1277:
	movq	%r14, %rax
.L1276:
	movq	%rbx, 88(%rsp)
	movb	$0, (%rax,%rbx)
	movq	80(%rsp), %rcx
	movl	%ebp, %edx
	leaq	.LC55(%rip), %rsi
	movl	$2, %edi
	xorl	%eax, %eax
	movq	dec_float(%rip), %r13
	movq	e10_float(%rip), %rbx
.LEHB3:
	call	__printf_chk@PLT
	call	_ZNSt6chrono3_V212system_clock3nowEv@PLT
	movq	%rax, 40(%rsp)
	testl	%ebp, %ebp
	je	.L1278
	cmpl	$1, %ebp
	jne	.L1333
	vmovq	data_float(%rip), %xmm1
	leaq	_ZZN15schubfach_xjb32L19ComputePow10_SingleEiE1g(%rip), %rax
	movq	%r14, 56(%rsp)
	xorl	%r10d, %r10d
	vmovq	%rax, %xmm0
	vmovq	%r13, %xmm2
	vmovq	%xmm1, %r14
	.p2align 4
	.p2align 3
.L1292:
	movl	(%r14,%r10), %esi
	movl	%esi, %r11d
	shrl	$23, %esi
	andl	$8388607, %r11d
	andl	$255, %esi
	movl	%r11d, %edi
	je	.L1309
	leal	-150(%rsi), %r9d
	orl	$8388608, %edi
	imull	$1262611, %r9d, %ecx
.L1284:
	leal	0(,%rdi,4), %eax
	cmpl	$1, %r11d
	leal	-524031(%rcx), %edx
	movl	%eax, %r8d
	leal	2(%rax), %r12d
	adcl	$-2, %r8d
	sarl	$22, %edx
	sarl	$22, %ecx
	testl	%r11d, %r11d
	cmove	%edx, %ecx
	xorl	%r13d, %r13d
	imull	$-1741647, %ecx, %edx
	sarl	$19, %edx
	leal	1(%r9,%rdx), %r15d
	movl	$31, %edx
	vmovq	%xmm0, %r9
	subl	%ecx, %edx
	shlx	%r15d, %r8d, %r8d
	shlx	%r15d, %eax, %eax
	shlx	%r15d, %r12d, %r12d
	movq	(%r9,%rdx,8), %rbp
	movq	%r8, %rdx
	mulx	%rbp, %r8, %r9
	movq	%rax, %rdx
	movq	%r8, 16(%rsp)
	movq	%r9, 24(%rsp)
	mulx	%rbp, %r8, %r9
	movq	%r8, %rax
	movl	%r9d, %r15d
	shrq	$32, %rax
	cmpl	$1, %eax
	seta	%r13b
	movl	%r13d, %edx
	orl	%r9d, %edx
	movl	%edx, (%rsp)
	movq	%r12, %rdx
	mulx	%rbp, %r12, %r13
	movq	%r12, %rbp
	movq	16(%rsp), %r12
	movl	(%rsp), %edx
	shrq	$32, %rbp
	cmpl	$1, %ebp
	seta	%bpl
	movq	%r12, %r8
	andl	$1, %edi
	movl	$-3, %r12d
	movzbl	%bpl, %ebp
	shrq	$32, %r8
	orl	%r13d, %ebp
	movq	24(%rsp), %r13
	cmpl	$1, %r8d
	seta	%r8b
	subl	%edi, %r12d
	andl	$7, %edx
	shrl	$2, %r15d
	movzbl	%r8b, %r8d
	orl	%r13d, %r8d
	movl	$200, %r13d
	addl	%edi, %r8d
	movl	%r15d, %edi
	sarx	%edx, %r13d, %edx
	andl	$1, %edx
	imulq	$1717986919, %rdi, %rdi
	addl	%r15d, %edx
	shrq	$34, %rdi
	leal	0(,%rdi,4), %eax
	leal	(%rax,%rdi), %r9d
	addl	%r9d, %r9d
	testl	%r11d, %r11d
	je	.L1334
.L1287:
	addl	%edi, %eax
	sall	$3, %eax
	cmpl	%r8d, %eax
	cmovnb	%r9d, %edx
	addl	%ebp, %r12d
	addl	$37, %eax
	cmpl	%eax, %r12d
	jb	.L1289
	addl	$10, %r9d
	vmovq	%xmm2, %rax
	movl	%r9d, (%rax,%r10)
	movl	%ecx, (%rbx,%r10)
	addq	$4, %r10
	cmpq	$400000000, %r10
	jne	.L1292
.L1331:
	movq	56(%rsp), %r14
	vmovq	%xmm2, %r13
.L1294:
	call	_ZNSt6chrono3_V212system_clock3nowEv@PLT
	xorl	%edx, %edx
	.p2align 4
	.p2align 3
.L1303:
	movl	0(%r13,%rdx), %ecx
	movl	%ecx, 68(%rsp)
	movl	(%rbx,%rdx), %ecx
	addq	$4, %rdx
	movl	%ecx, 72(%rsp)
	movl	68(%rsp), %ecx
	movl	72(%rsp), %ecx
	cmpq	$400000000, %rdx
	jne	.L1303
	movq	40(%rsp), %rbx
	vxorps	%xmm1, %xmm1, %xmm1
	leaq	.LC60(%rip), %rsi
	movl	$2, %edi
	subq	%rbx, %rax
	vcvtusi2sdq	%rax, %xmm1, %xmm1
	movl	$2, %eax
	vdivsd	.LC57(%rip), %xmm1, %xmm0
	vmulsd	.LC56(%rip), %xmm1, %xmm1
	call	__printf_chk@PLT
.LEHE3:
	movq	80(%rsp), %rdi
	cmpq	%r14, %rdi
	je	.L1272
	movq	96(%rsp), %rax
	leaq	1(%rax), %rsi
	call	_ZdlPvm@PLT
.L1272:
	movq	120(%rsp), %rax
	subq	%fs:40, %rax
	jne	.L1335
	addq	$136, %rsp
	.cfi_remember_state
	.cfi_def_cfa_offset 56
	popq	%rbx
	.cfi_def_cfa_offset 48
	popq	%rbp
	.cfi_def_cfa_offset 40
	popq	%r12
	.cfi_def_cfa_offset 32
	popq	%r13
	.cfi_def_cfa_offset 24
	popq	%r14
	.cfi_def_cfa_offset 16
	popq	%r15
	.cfi_def_cfa_offset 8
	ret
.L1275:
	.cfi_restore_state
	testq	%rbx, %rbx
	je	.L1277
	movq	%r14, %rdi
	jmp	.L1274
	.p2align 4
	.p2align 3
.L1289:
	vmovq	%xmm2, %rax
	movl	%edx, (%rax,%r10)
	movl	%ecx, (%rbx,%r10)
	addq	$4, %r10
	cmpq	$400000000, %r10
	jne	.L1292
	jmp	.L1331
	.p2align 4
	.p2align 3
.L1334:
	cmpl	$214, %esi
	sete	%r13b
	cmpl	$31, %esi
	sete	%r11b
	orl	%r13d, %r11d
	cmpl	$217, %esi
	sete	%sil
	orl	%esi, %r11d
	movzbl	%r11b, %esi
	addl	%esi, %edx
	jmp	.L1287
	.p2align 4
	.p2align 3
.L1309:
	movl	$-188129039, %ecx
	movl	$-149, %r9d
	jmp	.L1284
.L1278:
	movq	data_float(%rip), %rbp
	xorl	%r12d, %r12d
	.p2align 4
	.p2align 3
.L1281:
	vmovss	0(%rbp,%r12), %xmm0
	leaq	(%rbx,%r12), %rsi
	leaq	0(%r13,%r12), %rdi
	addq	$4, %r12
	call	_ZL14xjb_f32_to_decfPjPi
	cmpq	$400000000, %r12
	jne	.L1281
	jmp	.L1294
.L1332:
	movq	48(%rsp), %rdi
	leaq	72(%rsp), %rsi
	xorl	%edx, %edx
.LEHB4:
	call	_ZNSt7__cxx1112basic_stringIcSt11char_traitsIcESaIcEE9_M_createERmm@PLT
.LEHE4:
	movq	%rax, %rdi
	movq	%rax, 80(%rsp)
	movq	72(%rsp), %rax
	movq	%rax, 96(%rsp)
.L1274:
	movq	%rbx, %rdx
	movq	%r12, %rsi
	call	memcpy@PLT
	movq	72(%rsp), %rbx
	movq	80(%rsp), %rax
	jmp	.L1276
.L1333:
	movq	data_float(%rip), %r12
	xorl	%r10d, %r10d
	cmpl	$2, %ebp
	jne	.L1327
	leaq	_ZZN12schubfach_32L19ComputePow10_SingleEiE1g(%rip), %rax
	movq	%r14, 16(%rsp)
	vmovq	%r12, %xmm3
	movq	%rbx, %r14
	vmovq	%rax, %xmm1
	movl	$3435973837, %eax
	vmovq	%rax, %xmm0
	jmp	.L1302
	.p2align 4
	.p2align 3
.L1337:
	orl	$8388608, %eax
	subl	$150, %edx
	sall	$2, %eax
	imull	$1262611, %edx, %ebp
	leal	-2(%rax,%rsi), %esi
	testb	%cl, %cl
	je	.L1296
	subl	$524031, %ebp
	vmovq	%xmm1, %rdi
	xorl	%r9d, %r9d
	movl	$33554434, %ecx
	sarl	$22, %ebp
	imull	$-1741647, %ebp, %eax
	sarl	$19, %eax
	leal	1(%rdx,%rax), %r15d
	movl	$31, %eax
	subl	%ebp, %eax
	movq	(%rdi,%rax,8), %r8
	movl	$33554432, %eax
.L1297:
	movq	%r9, %rdx
	shlx	%r15d, %esi, %esi
	movq	%r9, %r12
	imulq	%rsi, %rdx
	movq	%rdx, %rdi
	movq	%rsi, %rdx
	mulx	%r8, %rbx, %rsi
	addq	%rsi, %rdi
	movq	%rsi, 8(%rsp)
	shlx	%r15d, %eax, %esi
	movq	%rsi, %rax
	movq	%rbx, (%rsp)
	imulq	%rsi, %r12
	movq	(%rsp), %rsi
	mulq	%r8
	movq	%rax, %rbx
	leaq	(%rdx,%r12), %rdx
	xorl	%r12d, %r12d
	movq	%rbx, %rax
	shrq	$32, %rax
	cmpl	$1, %eax
	shlx	%r15d, %ecx, %eax
	movq	%r9, %rcx
	seta	%r12b
	imulq	%rax, %rcx
	shrq	$32, %rsi
	orl	%edx, %r12d
	movq	%rax, %rdx
	mulx	%r8, %r8, %r9
	xorl	%edx, %edx
	addq	%r9, %rcx
	movq	%r8, %rax
	cmpl	$1, %esi
	seta	%dl
	shrq	$32, %rax
	orl	%edi, %edx
	addl	%r11d, %edx
	cmpl	$1, %eax
	seta	%al
	movzbl	%al, %eax
	orl	%ecx, %eax
	subl	%r11d, %eax
	cmpl	$39, %r12d
	jbe	.L1298
	vmovq	%xmm0, %rdi
	movl	%r12d, %ecx
	imulq	%rdi, %rcx
	shrq	$37, %rcx
	leal	(%rcx,%rcx,4), %edi
	sall	$3, %edi
	leal	40(%rdi), %esi
	cmpl	%esi, %eax
	setnb	%sil
	cmpl	%edx, %edi
	setnb	%dil
	cmpb	%dil, %sil
	je	.L1298
	movzbl	%sil, %esi
	addl	%ecx, %esi
	leal	(%rsi,%rsi,4), %ecx
	addl	%ecx, %ecx
.L1299:
	movl	%ecx, 0(%r13,%r10)
	movl	%ebp, (%r14,%r10)
	addq	$4, %r10
	cmpq	$400000000, %r10
	je	.L1336
.L1302:
	vmovq	%xmm3, %rax
	movl	(%rax,%r10), %edx
	movq	%rdx, %r11
	shrq	$23, %rdx
	movl	%r11d, %eax
	testb	$-2, %dl
	setne	%cl
	andl	$8388607, %eax
	sete	%sil
	andl	$1, %r11d
	andl	%esi, %ecx
	andl	$255, %edx
	movzbl	%cl, %esi
	jne	.L1337
	sall	$2, %eax
	movabsq	$-5522047002568494196, %r8
	leal	-2(%rax,%rsi), %esi
	leal	2(%rax), %ecx
	xorl	%r9d, %r9d
	movl	$1, %r15d
	movl	$-45, %ebp
	jmp	.L1297
	.p2align 4
	.p2align 3
.L1298:
	movl	%r12d, %edi
	movl	%r12d, %esi
	shrl	$2, %edi
	leal	1(%rdi), %ecx
	andl	$-4, %esi
	leal	0(,%rcx,4), %r8d
	cmpl	%r8d, %eax
	setnb	%al
	cmpl	%edx, %esi
	setnb	%dl
	cmpb	%dl, %al
	je	.L1300
	movzbl	%al, %eax
	leal	(%rax,%rdi), %ecx
	jmp	.L1299
	.p2align 4
	.p2align 3
.L1300:
	addl	$2, %esi
	cmpl	%r12d, %esi
	jb	.L1299
	andl	$-2, %ecx
	cmpl	%r12d, %esi
	cmovne	%edi, %ecx
	jmp	.L1299
.L1336:
	movq	%r14, %rbx
	movq	16(%rsp), %r14
	jmp	.L1294
.L1327:
	xorl	%r15d, %r15d
	cmpl	$3, %ebp
	jne	.L1294
	.p2align 4
	.p2align 3
.L1304:
	movl	(%r12,%r15), %edi
	movl	%edi, %esi
	andl	$8388607, %edi
	shrl	$23, %esi
	andl	$255, %esi
	call	_ZL3f2djj
	movl	%eax, 0(%r13,%r15)
	sarq	$32, %rax
	movl	%eax, (%rbx,%r15)
	addq	$4, %r15
	cmpq	$400000000, %r15
	jne	.L1304
	jmp	.L1294
.L1296:
	sarl	$22, %ebp
	imull	$-1741647, %ebp, %edi
	leal	2(%rax), %ecx
	xorl	%r9d, %r9d
	sarl	$19, %edi
	leal	1(%rdx,%rdi), %r15d
	movl	$31, %edx
	leaq	_ZZN12schubfach_32L19ComputePow10_SingleEiE1g(%rip), %rdi
	subl	%ebp, %edx
	movq	(%rdi,%rdx,8), %r8
	jmp	.L1297
.L1335:
	call	__stack_chk_fail@PLT
.L1312:
	endbr64
	movq	%rax, %rbx
	jmp	.L1306
	.section	.gcc_except_table
.LLSDA10610:
	.byte	0xff
	.byte	0xff
	.byte	0x1
	.uleb128 .LLSDACSE10610-.LLSDACSB10610
.LLSDACSB10610:
	.uleb128 .LEHB3-.LFB10610
	.uleb128 .LEHE3-.LEHB3
	.uleb128 .L1312-.LFB10610
	.uleb128 0
	.uleb128 .LEHB4-.LFB10610
	.uleb128 .LEHE4-.LEHB4
	.uleb128 0
	.uleb128 0
.LLSDACSE10610:
	.text
	.cfi_endproc
	.section	.text.unlikely
	.cfi_startproc
	.cfi_personality 0x9b,DW.ref.__gxx_personality_v0
	.cfi_lsda 0x1b,.LLSDAC10610
	.type	_Z23bench_float_single_impli.cold, @function
_Z23bench_float_single_impli.cold:
.LFSB10610:
.L1306:
	.cfi_def_cfa_offset 192
	.cfi_offset 3, -56
	.cfi_offset 6, -48
	.cfi_offset 12, -40
	.cfi_offset 13, -32
	.cfi_offset 14, -24
	.cfi_offset 15, -16
	movq	48(%rsp), %rdi
	vzeroupper
	call	_ZNSt7__cxx1112basic_stringIcSt11char_traitsIcESaIcEE10_M_disposeEv@PLT
	movq	120(%rsp), %rax
	subq	%fs:40, %rax
	jne	.L1338
	movq	%rbx, %rdi
.LEHB5:
	call	_Unwind_Resume@PLT
.LEHE5:
.L1338:
	call	__stack_chk_fail@PLT
	.cfi_endproc
.LFE10610:
	.section	.gcc_except_table
.LLSDAC10610:
	.byte	0xff
	.byte	0xff
	.byte	0x1
	.uleb128 .LLSDACSEC10610-.LLSDACSBC10610
.LLSDACSBC10610:
	.uleb128 .LEHB5-.LCOLDB61
	.uleb128 .LEHE5-.LEHB5
	.uleb128 0
	.uleb128 0
.LLSDACSEC10610:
	.section	.text.unlikely
	.text
	.size	_Z23bench_float_single_impli, .-_Z23bench_float_single_impli
	.section	.text.unlikely
	.size	_Z23bench_float_single_impli.cold, .-_Z23bench_float_single_impli.cold
.LCOLDE61:
	.text
.LHOTE61:
	.section	.rodata.str1.1
.LC62:
	.string	"bench double start"
.LC63:
	.string	"bench double end"
	.text
	.p2align 4
	.globl	_Z26bench_double_all_algorithmv
	.type	_Z26bench_double_all_algorithmv, @function
_Z26bench_double_all_algorithmv:
.LFB10611:
	.cfi_startproc
	endbr64
	pushq	%r12
	.cfi_def_cfa_offset 16
	.cfi_offset 12, -16
	leaq	.LC62(%rip), %rdi
	pushq	%rbp
	.cfi_def_cfa_offset 24
	.cfi_offset 6, -24
	pushq	%rbx
	.cfi_def_cfa_offset 32
	.cfi_offset 3, -32
	call	puts@PLT
	movq	_Z13algorithm_setB5cxx11(%rip), %rax
	cmpq	%rax, 8+_Z13algorithm_setB5cxx11(%rip)
	je	.L1340
	xorl	%r12d, %r12d
	leaq	_Z13algorithm_setB5cxx11(%rip), %rbp
	movabsq	$-3689348814741910323, %rbx
	.p2align 4
	.p2align 3
.L1341:
	movl	%r12d, %edi
	incq	%r12
	call	_Z24bench_double_single_impli
	movq	8+_Z13algorithm_setB5cxx11(%rip), %rax
	subq	0(%rbp), %rax
	sarq	$3, %rax
	imulq	%rbx, %rax
	cmpq	%rax, %r12
	jb	.L1341
.L1340:
	popq	%rbx
	.cfi_def_cfa_offset 24
	popq	%rbp
	.cfi_def_cfa_offset 16
	popq	%r12
	.cfi_def_cfa_offset 8
	leaq	.LC63(%rip), %rdi
	jmp	puts@PLT
	.cfi_endproc
.LFE10611:
	.size	_Z26bench_double_all_algorithmv, .-_Z26bench_double_all_algorithmv
	.section	.rodata.str1.1
.LC64:
	.string	"bench float start"
.LC65:
	.string	"bench float end"
	.text
	.p2align 4
	.globl	_Z25bench_float_all_algorithmv
	.type	_Z25bench_float_all_algorithmv, @function
_Z25bench_float_all_algorithmv:
.LFB10612:
	.cfi_startproc
	endbr64
	pushq	%r12
	.cfi_def_cfa_offset 16
	.cfi_offset 12, -16
	leaq	.LC64(%rip), %rdi
	pushq	%rbp
	.cfi_def_cfa_offset 24
	.cfi_offset 6, -24
	pushq	%rbx
	.cfi_def_cfa_offset 32
	.cfi_offset 3, -32
	call	puts@PLT
	movq	_Z19algorithm_float_setB5cxx11(%rip), %rax
	cmpq	%rax, 8+_Z19algorithm_float_setB5cxx11(%rip)
	je	.L1345
	xorl	%r12d, %r12d
	leaq	_Z19algorithm_float_setB5cxx11(%rip), %rbp
	movabsq	$-3689348814741910323, %rbx
	.p2align 4
	.p2align 3
.L1346:
	movl	%r12d, %edi
	incq	%r12
	call	_Z23bench_float_single_impli
	movq	8+_Z19algorithm_float_setB5cxx11(%rip), %rax
	subq	0(%rbp), %rax
	sarq	$3, %rax
	imulq	%rbx, %rax
	cmpq	%rax, %r12
	jb	.L1346
.L1345:
	popq	%rbx
	.cfi_def_cfa_offset 24
	popq	%rbp
	.cfi_def_cfa_offset 16
	popq	%r12
	.cfi_def_cfa_offset 8
	leaq	.LC65(%rip), %rdi
	jmp	puts@PLT
	.cfi_endproc
.LFE10612:
	.size	_Z25bench_float_all_algorithmv, .-_Z25bench_float_all_algorithmv
	.p2align 4
	.globl	_Z27check_xjb_and_schubfach_xjbd
	.type	_Z27check_xjb_and_schubfach_xjbd, @function
_Z27check_xjb_and_schubfach_xjbd:
.LFB10613:
	.cfi_startproc
	endbr64
	pushq	%rbp
	.cfi_def_cfa_offset 16
	.cfi_offset 6, -16
	vmovq	%xmm0, %rax
	movabsq	$4503599627370495, %rcx
	movq	%rsp, %rbp
	.cfi_def_cfa_register 6
	andq	%rax, %rcx
	pushq	%r15
	pushq	%r14
	shrq	$52, %rax
	pushq	%r13
	pushq	%r12
	pushq	%rbx
	.cfi_offset 15, -24
	.cfi_offset 14, -32
	.cfi_offset 13, -40
	.cfi_offset 12, -48
	.cfi_offset 3, -56
	movq	%rcx, %r15
	andq	$-32, %rsp
	subq	$32, %rsp
	andl	$2047, %eax
	movq	%rax, %r14
	je	.L1356
	leal	-1075(%rax), %r13d
	btsq	$52, %r15
	imull	$1262611, %r13d, %ebx
.L1350:
	leaq	0(,%r15,4), %r10
	cmpq	$1, %rcx
	leal	-524031(%rbx), %edx
	movl	$292, %r8d
	movq	%r10, %rax
	leaq	2(%r10), %rdi
	adcq	$-2, %rax
	movq	%rdi, 24(%rsp)
	sarl	$22, %edx
	sarl	$22, %ebx
	testq	%rcx, %rcx
	cmove	%edx, %ebx
	imull	$-1741647, %ebx, %edx
	subl	%ebx, %r8d
	movslq	%r8d, %r8
	salq	$4, %r8
	sarl	$19, %edx
	leal	1(%r13,%rdx), %edi
	leaq	_ZZN3xjbL19ComputePow10_DoubleEiE1g(%rip), %rdx
	addq	%rdx, %r8
	shlx	%rdi, %rax, %rax
	movq	%rax, %rdx
	movq	8(%r8), %r12
	movq	(%r8), %rsi
	mulx	%rsi, %r8, %r9
	mulq	%r12
	movq	%r12, %rax
	addq	%rdx, %r8
	shlx	%rdi, %r10, %rdx
	mulx	%rsi, %r10, %r11
	adcq	$0, %r9
	mulq	%rdx
	addq	%rdx, %r10
	shlx	%rdi, 24(%rsp), %rdx
	mulx	%rsi, %rsi, %rdi
	adcq	$0, %r11
	cmpq	$1, %r10
	seta	%al
	movzbl	%al, %eax
	orq	%r11, %rax
	movq	%rax, %r10
	movq	%r12, %rax
	movl	$200, %r12d
	mulq	%rdx
	movq	%r15, %rax
	addq	%rdx, %rsi
	adcq	$0, %rdi
	cmpq	$1, %rsi
	seta	%sil
	andl	$1, %eax
	movzbl	%sil, %esi
	orq	%rdi, %rsi
	cmpq	$1, %r8
	movq	$-3, %rdi
	seta	%r8b
	subq	%rax, %rdi
	andl	$7, %r10d
	movzbl	%r8b, %r8d
	sarx	%r10d, %r12d, %r12d
	andl	$1, %r12d
	shrq	$2, %r11
	orq	%r9, %r8
	addq	%r11, %r12
	addq	%rax, %r8
	movabsq	$1844674407370955162, %rax
	mulq	%r11
	leaq	0(,%rdx,4), %rax
	leaq	(%rax,%rdx), %r9
	addq	%r9, %r9
	testq	%rcx, %rcx
	je	.L1359
.L1353:
	addq	%rdx, %rax
	salq	$3, %rax
	cmpq	%r8, %rax
	cmovnb	%r9, %r12
	addq	%rdi, %rsi
	addq	$37, %rax
	addq	$10, %r9
	movq	%rcx, %rdi
	cmpq	%rax, %rsi
	movq	%r14, %rsi
	cmovnb	%r9, %r12
	call	_Z11ToDecimal64mm
	cmpl	%edx, %ebx
	movq	%rax, %rcx
	setne	%al
	cmpq	%r12, %rcx
	setne	%dl
	leaq	-40(%rbp), %rsp
	orl	%edx, %eax
	popq	%rbx
	popq	%r12
	popq	%r13
	movzbl	%al, %eax
	popq	%r14
	popq	%r15
	popq	%rbp
	.cfi_remember_state
	.cfi_def_cfa 7, 8
	ret
	.p2align 4
	.p2align 3
.L1359:
	.cfi_restore_state
	movl	$1, %r10d
	vpbroadcastw	%r13d, %ymm1
	vpbroadcastw	%r10d, %ymm0
	vpcmpeqw	.LC22(%rip), %ymm1, %ymm1
	vpand	%ymm0, %ymm1, %ymm1
	vpmovzxwd	%xmm1, %ymm0
	vextracti128	$0x1, %ymm1, %xmm1
	vpmovzxwd	%xmm1, %ymm1
	vextracti128	$0x1, %ymm0, %xmm2
	vpmovzxdq	%xmm0, %ymm0
	vpmovzxdq	%xmm2, %ymm2
	vpaddq	%ymm0, %ymm2, %ymm2
	vpmovzxdq	%xmm1, %ymm0
	vextracti128	$0x1, %ymm1, %xmm1
	vpmovzxdq	%xmm1, %ymm1
	vpaddq	%ymm2, %ymm0, %ymm0
	vpbroadcastw	%r13d, %xmm2
	vpaddq	%ymm0, %ymm1, %ymm1
	vpcmpeqw	.LC24(%rip), %xmm2, %xmm2
	vpbroadcastw	%r10d, %xmm0
	vpand	%xmm0, %xmm2, %xmm2
	vpmovzxwd	%xmm2, %xmm3
	vpsrldq	$8, %xmm2, %xmm2
	vpmovzxwd	%xmm2, %xmm2
	vpsrldq	$8, %xmm3, %xmm0
	vpmovzxdq	%xmm3, %xmm3
	vpmovzxdq	%xmm0, %xmm0
	vpaddq	%xmm3, %xmm0, %xmm0
	vpmovzxdq	%xmm2, %xmm3
	vpsrldq	$8, %xmm2, %xmm2
	vpmovzxdq	%xmm2, %xmm2
	vpaddq	%xmm3, %xmm0, %xmm0
	vpaddq	%xmm2, %xmm0, %xmm0
	vpaddq	%xmm1, %xmm0, %xmm0
	vextracti64x2	$0x1, %ymm1, %xmm1
	vpaddq	%xmm1, %xmm0, %xmm0
	vpsrldq	$8, %xmm0, %xmm1
	vpaddq	%xmm1, %xmm0, %xmm0
	vmovq	%xmm0, %r10
	addq	%r12, %r10
	xorl	%r12d, %r12d
	cmpw	$811, %r13w
	sete	%r12b
	xorl	%r11d, %r11d
	cmpw	$924, %r13w
	sete	%r11b
	addq	%r11, %r12
	addq	%r10, %r12
	vzeroupper
	jmp	.L1353
	.p2align 4
	.p2align 3
.L1356:
	movl	$-1356044214, %ebx
	movl	$-1074, %r13d
	jmp	.L1350
	.cfi_endproc
.LFE10613:
	.size	_Z27check_xjb_and_schubfach_xjbd, .-_Z27check_xjb_and_schubfach_xjbd
	.section	.rodata.str1.1
.LC66:
	.string	"check_float ok"
	.section	.rodata.str1.8
	.align 8
.LC67:
	.string	"check_float fail error sum = %u\n"
	.text
	.p2align 4
	.globl	_Z11check_floatv
	.type	_Z11check_floatv, @function
_Z11check_floatv:
.LFB10615:
	.cfi_startproc
	endbr64
	pushq	%rbp
	.cfi_def_cfa_offset 16
	.cfi_offset 6, -16
	leaq	_ZZN3xjbL19ComputePow10_DoubleEiE1g(%rip), %rax
	movq	%rsp, %rbp
	.cfi_def_cfa_register 6
	pushq	%r15
	pushq	%r14
	pushq	%r13
	pushq	%r12
	pushq	%rbx
	.cfi_offset 15, -24
	.cfi_offset 14, -32
	.cfi_offset 13, -40
	.cfi_offset 12, -48
	.cfi_offset 3, -56
	movl	$8388608, %r14d
	vmovq	%rax, %xmm3
	andq	$-32, %rsp
	movl	$1, %eax
	subq	$32, %rsp
	vpbroadcastw	%eax, %ymm5
	vmovdqa	.LC22(%rip), %ymm6
	vmovdqa	.LC24(%rip), %xmm4
	movl	$0, 24(%rsp)
	movl	%r14d, 28(%rsp)
	jmp	.L1367
	.p2align 4
	.p2align 3
.L1375:
	leal	-1075(%rax), %esi
	movabsq	$4503599627370496, %r9
	imull	$1262611, %esi, %edx
	orq	%r8, %r9
.L1361:
	leaq	0(,%r9,4), %r14
	cmpq	$1, %r8
	leal	-524031(%rdx), %ecx
	movl	$292, %r10d
	movq	%r14, %rax
	vmovq	%xmm3, %rbx
	leaq	2(%r14), %rdi
	adcq	$-2, %rax
	sarl	$22, %edx
	sarl	$22, %ecx
	testq	%r8, %r8
	cmovne	%edx, %ecx
	subl	%ecx, %r10d
	imull	$-1741647, %ecx, %edx
	movl	%ecx, %r13d
	movslq	%r10d, %r10
	salq	$4, %r10
	addq	%rbx, %r10
	movq	(%r10), %rcx
	movq	8(%r10), %rbx
	sarl	$19, %edx
	leal	1(%rsi,%rdx), %r12d
	shlx	%r12, %rax, %rax
	movq	%rax, %rdx
	mulx	%rcx, %r10, %r11
	mulq	%rbx
	movq	%rbx, %rax
	addq	%rdx, %r10
	shlx	%r12, %r14, %rdx
	adcq	$0, %r11
	movq	%r10, (%rsp)
	movq	%r11, 8(%rsp)
	mulx	%rcx, %r10, %r11
	mulq	%rdx
	movq	%rbx, %rax
	addq	%rdx, %r10
	shlx	%r12, %rdi, %rdx
	movq	$-3, %rdi
	adcq	$0, %r11
	xorl	%r15d, %r15d
	cmpq	$1, %r10
	seta	%r15b
	movq	%r11, %r14
	orq	%r11, %r15
	mulx	%rcx, %r10, %r11
	mulq	%rdx
	movq	8(%rsp), %rax
	addq	%rdx, %r10
	adcq	$0, %r11
	xorl	%ecx, %ecx
	cmpq	$1, %r10
	movq	(%rsp), %r10
	seta	%cl
	andl	$1, %r9d
	orq	%r11, %rcx
	movl	$200, %r11d
	cmpq	$1, %r10
	seta	%r10b
	andl	$7, %r15d
	subq	%r9, %rdi
	shrq	$2, %r14
	sarx	%r15d, %r11d, %r11d
	movzbl	%r10b, %r10d
	andl	$1, %r11d
	orq	%rax, %r10
	movabsq	$1844674407370955162, %rax
	mulq	%r14
	addq	%r9, %r10
	addq	%r11, %r14
	leaq	0(,%rdx,4), %rax
	leaq	(%rax,%rdx), %r9
	addq	%r9, %r9
	testq	%r8, %r8
	je	.L1373
.L1364:
	addq	%rdx, %rax
	movq	16(%rsp), %rsi
	salq	$3, %rax
	cmpq	%r10, %rax
	cmovnb	%r9, %r14
	addq	%rcx, %rdi
	addq	$37, %rax
	addq	$10, %r9
	cmpq	%rax, %rdi
	movq	%r8, %rdi
	cmovnb	%r9, %r14
	call	_Z11ToDecimal64mm
	cmpl	%edx, %r13d
	movq	%rax, %rcx
	setne	%al
	cmpq	%r14, %rcx
	setne	%dl
	incl	28(%rsp)
	orl	%edx, %eax
	movzbl	%al, %eax
	addl	%eax, 24(%rsp)
	movl	28(%rsp), %eax
	cmpl	$2139095040, %eax
	je	.L1374
.L1367:
	movabsq	$4503599627370495, %r8
	vcvtss2sd	28(%rsp), %xmm7, %xmm7
	vmovq	%xmm7, %rsi
	andq	%rsi, %r8
	shrq	$52, %rsi
	movq	%rsi, %rax
	andl	$2047, %eax
	movq	%rax, 16(%rsp)
	jne	.L1375
	movq	%r8, %r9
	movl	$-1356044214, %edx
	movl	$-1074, %esi
	jmp	.L1361
	.p2align 4
	.p2align 3
.L1373:
	vpbroadcastw	%esi, %ymm0
	movl	$1, %ebx
	vpcmpeqw	%ymm6, %ymm0, %ymm0
	vpand	%ymm5, %ymm0, %ymm0
	vpmovzxwd	%xmm0, %ymm1
	vextracti128	$0x1, %ymm0, %xmm0
	vpmovzxwd	%xmm0, %ymm0
	vextracti128	$0x1, %ymm1, %xmm2
	vpmovzxdq	%xmm1, %ymm1
	vpmovzxdq	%xmm2, %ymm2
	vpaddq	%ymm1, %ymm2, %ymm2
	vpmovzxdq	%xmm0, %ymm1
	vextracti128	$0x1, %ymm0, %xmm0
	vpmovzxdq	%xmm0, %ymm0
	vpaddq	%ymm2, %ymm1, %ymm1
	vpbroadcastw	%esi, %xmm2
	vpaddq	%ymm1, %ymm0, %ymm0
	vpcmpeqw	%xmm4, %xmm2, %xmm2
	vpbroadcastw	%ebx, %xmm1
	vpand	%xmm1, %xmm2, %xmm2
	vpmovzxwd	%xmm2, %xmm7
	vpsrldq	$8, %xmm2, %xmm2
	vpmovzxwd	%xmm2, %xmm2
	vpsrldq	$8, %xmm7, %xmm1
	vpmovzxdq	%xmm7, %xmm7
	vpmovzxdq	%xmm1, %xmm1
	vpaddq	%xmm7, %xmm1, %xmm1
	vpmovzxdq	%xmm2, %xmm7
	vpsrldq	$8, %xmm2, %xmm2
	vpmovzxdq	%xmm2, %xmm2
	vpaddq	%xmm7, %xmm1, %xmm1
	vpaddq	%xmm2, %xmm1, %xmm1
	vpaddq	%xmm0, %xmm1, %xmm1
	vextracti64x2	$0x1, %ymm0, %xmm0
	vpaddq	%xmm0, %xmm1, %xmm0
	vpsrldq	$8, %xmm0, %xmm1
	vpaddq	%xmm1, %xmm0, %xmm0
	vmovq	%xmm0, %r11
	addq	%r14, %r11
	xorl	%r14d, %r14d
	cmpw	$811, %si
	sete	%r14b
	xorl	%ebx, %ebx
	cmpw	$924, %si
	sete	%bl
	addq	%rbx, %r14
	addq	%r11, %r14
	jmp	.L1364
.L1374:
	movl	24(%rsp), %eax
	testl	%eax, %eax
	jne	.L1368
	vzeroupper
	leaq	-40(%rbp), %rsp
	leaq	.LC66(%rip), %rdi
	popq	%rbx
	popq	%r12
	popq	%r13
	popq	%r14
	popq	%r15
	popq	%rbp
	.cfi_remember_state
	.cfi_def_cfa 7, 8
	jmp	puts@PLT
.L1368:
	.cfi_restore_state
	xorl	%eax, %eax
	movl	24(%rsp), %edx
	leaq	.LC67(%rip), %rsi
	movl	$2, %edi
	vzeroupper
	leaq	-40(%rbp), %rsp
	popq	%rbx
	popq	%r12
	popq	%r13
	popq	%r14
	popq	%r15
	popq	%rbp
	.cfi_def_cfa 7, 8
	jmp	__printf_chk@PLT
	.cfi_endproc
.LFE10615:
	.size	_Z11check_floatv, .-_Z11check_floatv
	.section	.rodata.str1.1
.LC68:
	.string	"check_irregular ok"
	.section	.rodata.str1.8
	.align 8
.LC69:
	.string	"check_irregular fail error sum = %u\n"
	.text
	.p2align 4
	.globl	_Z15check_irregularv
	.type	_Z15check_irregularv, @function
_Z15check_irregularv:
.LFB10616:
	.cfi_startproc
	endbr64
	pushq	%rbp
	.cfi_def_cfa_offset 16
	.cfi_offset 6, -16
	leaq	_ZZN3xjbL19ComputePow10_DoubleEiE1g(%rip), %rax
	movq	%rsp, %rbp
	.cfi_def_cfa_register 6
	pushq	%r15
	pushq	%r14
	pushq	%r13
	pushq	%r12
	pushq	%rbx
	vmovq	%rax, %xmm3
	movl	$1, %eax
	andq	$-32, %rsp
	.cfi_offset 15, -24
	.cfi_offset 14, -32
	.cfi_offset 13, -40
	.cfi_offset 12, -48
	.cfi_offset 3, -56
	movl	$1, %r13d
	vpbroadcastw	%eax, %ymm6
	vpbroadcastw	%eax, %xmm4
	subq	$32, %rsp
	vmovdqa	.LC22(%rip), %ymm7
	vmovdqa	.LC24(%rip), %xmm5
	movl	$0, 20(%rsp)
	.p2align 4
	.p2align 3
.L1379:
	imull	$1262611, %r13d, %ebx
	vmovq	%xmm3, %rsi
	leal	-1075(%r13), %r15d
	subl	$1357830856, %ebx
	sarl	$22, %ebx
	imull	$-1741647, %ebx, %eax
	sarl	$19, %eax
	leal	-1074(%rax,%r13), %edi
	movl	$292, %eax
	subl	%ebx, %eax
	cltq
	salq	$4, %rax
	addq	%rsi, %rax
	movq	(%rax), %rsi
	movq	8(%rax), %r12
	movabsq	$18014398509481983, %rax
	shlx	%rdi, %rax, %rdx
	movq	%rdx, %rax
	mulx	%rsi, %r8, %r9
	mulq	%r12
	movabsq	$18014398509481984, %rax
	addq	%rdx, %r8
	shlx	%rdi, %rax, %rdx
	movq	%r12, %rax
	mulx	%rsi, %r10, %r11
	adcq	$0, %r9
	mulq	%rdx
	addq	%rdx, %r10
	adcq	$0, %r11
	cmpq	$1, %r10
	seta	%al
	movzbl	%al, %eax
	orq	%r11, %rax
	shrq	$2, %r11
	movq	%rax, 24(%rsp)
	movabsq	$1844674407370955162, %rax
	mulq	%r11
	xorl	%eax, %eax
	leaq	(%rdx,%rdx,4), %rcx
	leaq	(%rcx,%rcx), %r10
	salq	$3, %rcx
	cmpq	$1, %r8
	movq	%r10, %r14
	seta	%al
	orq	%r9, %rax
	cmpq	%rax, %rcx
	jnb	.L1377
	vpbroadcastw	%r15d, %ymm0
	xorl	%r14d, %r14d
	cmpw	$811, %r15w
	movl	$200, %edx
	vpcmpeqw	%ymm7, %ymm0, %ymm0
	sete	%r14b
	xorl	%eax, %eax
	cmpw	$924, %r15w
	vpand	%ymm6, %ymm0, %ymm0
	sete	%al
	vpmovzxwd	%xmm0, %ymm1
	vextracti128	$0x1, %ymm0, %xmm0
	vpmovzxwd	%xmm0, %ymm0
	addq	%rax, %r14
	vextracti128	$0x1, %ymm1, %xmm2
	vpmovzxdq	%xmm1, %ymm1
	vpmovzxdq	%xmm2, %ymm2
	vpaddq	%ymm1, %ymm2, %ymm2
	vpmovzxdq	%xmm0, %ymm1
	vextracti128	$0x1, %ymm0, %xmm0
	vpmovzxdq	%xmm0, %ymm0
	vpaddq	%ymm2, %ymm1, %ymm1
	vpbroadcastw	%r15d, %xmm2
	vpcmpeqw	%xmm5, %xmm2, %xmm2
	vpaddq	%ymm1, %ymm0, %ymm0
	vpand	%xmm4, %xmm2, %xmm2
	vpmovzxwd	%xmm2, %xmm8
	vpsrldq	$8, %xmm2, %xmm2
	vpmovzxwd	%xmm2, %xmm2
	vpsrldq	$8, %xmm8, %xmm1
	vpmovzxdq	%xmm8, %xmm8
	vpmovzxdq	%xmm1, %xmm1
	vpaddq	%xmm8, %xmm1, %xmm1
	vpmovzxdq	%xmm2, %xmm8
	vpsrldq	$8, %xmm2, %xmm2
	vpmovzxdq	%xmm2, %xmm2
	vpaddq	%xmm8, %xmm1, %xmm1
	vpaddq	%xmm2, %xmm1, %xmm1
	vpaddq	%xmm0, %xmm1, %xmm1
	vextracti64x2	$0x1, %ymm0, %xmm0
	vpaddq	%xmm0, %xmm1, %xmm0
	vpsrldq	$8, %xmm0, %xmm1
	vpaddq	%xmm1, %xmm0, %xmm0
	vmovq	%xmm0, %rax
	addq	%r11, %rax
	addq	%rax, %r14
	movl	24(%rsp), %eax
	andl	$7, %eax
	sarx	%eax, %edx, %eax
	andl	$1, %eax
	addq	%rax, %r14
.L1377:
	movabsq	$18014398509481986, %rax
	shlx	%rdi, %rax, %rdx
	movq	%r12, %rax
	mulx	%rsi, %rsi, %rdi
	mulq	%rdx
	addq	%rdx, %rsi
	adcq	$0, %rdi
	addq	$37, %rcx
	xorl	%eax, %eax
	cmpq	$1, %rsi
	seta	%al
	addq	$10, %r10
	movq	%r13, %rsi
	orq	%rdi, %rax
	subq	$3, %rax
	cmpq	%rcx, %rax
	cmovnb	%r10, %r14
	xorl	%edi, %edi
	call	_Z11ToDecimal64mm
	cmpl	%edx, %ebx
	movq	%rax, %rcx
	setne	%al
	cmpq	%r14, %rcx
	setne	%dl
	incq	%r13
	orl	%edx, %eax
	movzbl	%al, %eax
	addl	%eax, 20(%rsp)
	cmpq	$2047, %r13
	jne	.L1379
	movl	20(%rsp), %eax
	testl	%eax, %eax
	jne	.L1380
	vzeroupper
	leaq	-40(%rbp), %rsp
	leaq	.LC68(%rip), %rdi
	popq	%rbx
	popq	%r12
	popq	%r13
	popq	%r14
	popq	%r15
	popq	%rbp
	.cfi_remember_state
	.cfi_def_cfa 7, 8
	jmp	puts@PLT
.L1380:
	.cfi_restore_state
	xorl	%eax, %eax
	movl	20(%rsp), %edx
	leaq	.LC69(%rip), %rsi
	movl	$2, %edi
	vzeroupper
	leaq	-40(%rbp), %rsp
	popq	%rbx
	popq	%r12
	popq	%r13
	popq	%r14
	popq	%r15
	popq	%rbp
	.cfi_def_cfa 7, 8
	jmp	__printf_chk@PLT
	.cfi_endproc
.LFE10616:
	.size	_Z15check_irregularv, .-_Z15check_irregularv
	.section	.text._ZNSt23mersenne_twister_engineImLm64ELm312ELm156ELm31ELm13043109905998158313ELm29ELm6148914691236517205ELm17ELm8202884508482404352ELm37ELm18444473444759240704ELm43ELm6364136223846793005EE11_M_gen_randEv,"axG",@progbits,_ZNSt23mersenne_twister_engineImLm64ELm312ELm156ELm31ELm13043109905998158313ELm29ELm6148914691236517205ELm17ELm8202884508482404352ELm37ELm18444473444759240704ELm43ELm6364136223846793005EE11_M_gen_randEv,comdat
	.align 2
	.p2align 4
	.weak	_ZNSt23mersenne_twister_engineImLm64ELm312ELm156ELm31ELm13043109905998158313ELm29ELm6148914691236517205ELm17ELm8202884508482404352ELm37ELm18444473444759240704ELm43ELm6364136223846793005EE11_M_gen_randEv
	.type	_ZNSt23mersenne_twister_engineImLm64ELm312ELm156ELm31ELm13043109905998158313ELm29ELm6148914691236517205ELm17ELm8202884508482404352ELm37ELm18444473444759240704ELm43ELm6364136223846793005EE11_M_gen_randEv, @function
_ZNSt23mersenne_twister_engineImLm64ELm312ELm156ELm31ELm13043109905998158313ELm29ELm6148914691236517205ELm17ELm8202884508482404352ELm37ELm18444473444759240704ELm43ELm6364136223846793005EE11_M_gen_randEv:
.LFB11210:
	.cfi_startproc
	endbr64
	movq	$-2147483648, %r10
	movl	$2147483647, %esi
	movl	$1, %r9d
	movabsq	$-5403634167711393303, %r8
	vpbroadcastq	%r10, %zmm6
	vpbroadcastq	%rsi, %zmm5
	movq	%rdi, %rcx
	leaq	1248(%rdi), %rax
	movq	%rcx, %rdx
	leaq	1216(%rdi), %rdi
	vpbroadcastq	%r9, %zmm4
	vpbroadcastq	%r8, %zmm2
	vpxor	%xmm3, %xmm3, %xmm3
	.p2align 4
	.p2align 3
.L1385:
	vpandq	8(%rdx), %zmm5, %zmm0
	addq	$64, %rdx
	vpternlogq	$248, -64(%rdx), %zmm6, %zmm0
	vpsrlq	$1, %zmm0, %zmm1
	vpandq	%zmm4, %zmm0, %zmm0
	vpsubq	%zmm0, %zmm3, %zmm0
	vpandq	%zmm2, %zmm0, %zmm0
	vpternlogq	$150, 1184(%rdx), %zmm1, %zmm0
	vmovdqu64	%zmm0, -64(%rdx)
	cmpq	%rdx, %rdi
	jne	.L1385
	vpbroadcastq	%rsi, %ymm0
	vpand	1224(%rcx), %ymm0, %ymm0
	vpbroadcastq	%r10, %ymm1
	movq	$-2147483648, %rdx
	vpbroadcastq	%rdx, %zmm4
	movl	$2147483647, %edx
	leaq	2464(%rcx), %rsi
	vpxor	%xmm6, %xmm6, %xmm6
	vpbroadcastq	%rdx, %zmm3
	movl	$1, %edx
	vpternlogq	$248, 1216(%rcx), %ymm1, %ymm0
	vpbroadcastq	%r9, %ymm1
	vpsrlq	$1, %ymm0, %ymm2
	vpand	%ymm1, %ymm0, %ymm0
	vpxor	%xmm1, %xmm1, %xmm1
	vpsubq	%ymm0, %ymm1, %ymm0
	vpbroadcastq	%r8, %ymm1
	vpand	%ymm1, %ymm0, %ymm0
	vpternlogq	$150, 2464(%rcx), %ymm2, %ymm0
	vpbroadcastq	%rdx, %zmm2
	movabsq	$-5403634167711393303, %rdx
	vpbroadcastq	%rdx, %zmm5
	vmovdqu	%ymm0, 1216(%rcx)
	.p2align 4
	.p2align 3
.L1386:
	vpandq	8(%rax), %zmm3, %zmm0
	addq	$64, %rax
	vpternlogq	$248, -64(%rax), %zmm4, %zmm0
	vpsrlq	$1, %zmm0, %zmm1
	vpandq	%zmm2, %zmm0, %zmm0
	vpsubq	%zmm0, %zmm6, %zmm0
	vpandq	%zmm5, %zmm0, %zmm0
	vpternlogq	$150, -1312(%rax), %zmm1, %zmm0
	vmovdqu64	%zmm0, -64(%rax)
	cmpq	%rax, %rsi
	jne	.L1386
	movq	2472(%rcx), %rax
	movq	2464(%rcx), %rdi
	movq	$0, 2496(%rcx)
	movq	%rax, %rsi
	andq	$-2147483648, %rdi
	andq	$-2147483648, %rax
	andl	$2147483647, %esi
	orq	%rsi, %rdi
	andl	$1, %esi
	shrq	%rdi
	xorq	1216(%rcx), %rdi
	negq	%rsi
	andq	%rdx, %rsi
	xorq	%rdi, %rsi
	movq	%rsi, 2464(%rcx)
	movq	2480(%rcx), %rsi
	movq	%rsi, %rdi
	andq	$-2147483648, %rsi
	andl	$2147483647, %edi
	orq	%rdi, %rax
	movq	%rax, %rdi
	andl	$1, %eax
	shrq	%rdi
	xorq	1224(%rcx), %rdi
	negq	%rax
	andq	%rdx, %rax
	xorq	%rdi, %rax
	movq	2488(%rcx), %rdi
	movq	%rax, 2472(%rcx)
	movq	%rdi, %rax
	andq	$-2147483648, %rdi
	andl	$2147483647, %eax
	orq	%rax, %rsi
	andl	$1, %eax
	shrq	%rsi
	xorq	1232(%rcx), %rsi
	negq	%rax
	andq	%rdx, %rax
	xorq	%rsi, %rax
	movq	%rax, 2480(%rcx)
	movq	(%rcx), %rax
	andl	$2147483647, %eax
	orq	%rdi, %rax
	movq	%rax, %rsi
	shrq	%rsi
	xorq	1240(%rcx), %rsi
	andl	$1, %eax
	negq	%rax
	andq	%rdx, %rax
	xorq	%rsi, %rax
	movq	%rax, 2488(%rcx)
	vzeroupper
	ret
	.cfi_endproc
.LFE11210:
	.size	_ZNSt23mersenne_twister_engineImLm64ELm312ELm156ELm31ELm13043109905998158313ELm29ELm6148914691236517205ELm17ELm8202884508482404352ELm37ELm18444473444759240704ELm43ELm6364136223846793005EE11_M_gen_randEv, .-_ZNSt23mersenne_twister_engineImLm64ELm312ELm156ELm31ELm13043109905998158313ELm29ELm6148914691236517205ELm17ELm8202884508482404352ELm37ELm18444473444759240704ELm43ELm6364136223846793005EE11_M_gen_randEv
	.text
	.p2align 4
	.globl	_Z25gen_double_filter_Nan_Infv
	.type	_Z25gen_double_filter_Nan_Infv, @function
_Z25gen_double_filter_Nan_Infv:
.LFB10584:
	.cfi_startproc
	endbr64
	pushq	%r14
	.cfi_def_cfa_offset 16
	.cfi_offset 14, -16
	movq	2496+gen(%rip), %rcx
	pushq	%r13
	.cfi_def_cfa_offset 24
	.cfi_offset 13, -24
	leaq	gen(%rip), %r14
	pushq	%r12
	.cfi_def_cfa_offset 32
	.cfi_offset 12, -32
	movabsq	$6148914691236517205, %r13
	pushq	%rbp
	.cfi_def_cfa_offset 40
	.cfi_offset 6, -40
	movabsq	$8202884508482404352, %r12
	pushq	%rbx
	.cfi_def_cfa_offset 48
	.cfi_offset 3, -48
	movabsq	$-2270628950310912, %rbp
	movabsq	$9223372036854775807, %rbx
	jmp	.L1391
	.p2align 4
	.p2align 3
.L1390:
	leaq	1(%rax), %rcx
	movq	(%r14,%rax,8), %rax
	movq	%rcx, 2496+gen(%rip)
	movq	%rax, %rdx
	shrq	$29, %rdx
	andq	%r13, %rdx
	xorq	%rdx, %rax
	movq	%rax, %rdx
	salq	$17, %rdx
	andq	%r12, %rdx
	xorq	%rdx, %rax
	movq	%rax, %rdx
	salq	$37, %rdx
	andq	%rbp, %rdx
	xorq	%rdx, %rax
	movq	%rax, %rdx
	shrq	$43, %rdx
	xorq	%rdx, %rax
	movabsq	$9218868437227405311, %rdx
	andq	%rbx, %rax
	cmpq	%rax, %rdx
	jnb	.L1395
.L1391:
	movq	%rcx, %rax
	cmpq	$311, %rcx
	jbe	.L1390
	movq	%r14, %rdi
	call	_ZNSt23mersenne_twister_engineImLm64ELm312ELm156ELm31ELm13043109905998158313ELm29ELm6148914691236517205ELm17ELm8202884508482404352ELm37ELm18444473444759240704ELm43ELm6364136223846793005EE11_M_gen_randEv
	movq	2496+gen(%rip), %rax
	jmp	.L1390
	.p2align 4
	.p2align 3
.L1395:
	popq	%rbx
	.cfi_def_cfa_offset 40
	vmovq	%rax, %xmm0
	popq	%rbp
	.cfi_def_cfa_offset 32
	popq	%r12
	.cfi_def_cfa_offset 24
	popq	%r13
	.cfi_def_cfa_offset 16
	popq	%r14
	.cfi_def_cfa_offset 8
	ret
	.cfi_endproc
.LFE10584:
	.size	_Z25gen_double_filter_Nan_Infv, .-_Z25gen_double_filter_Nan_Infv
	.section	.rodata.str1.1
.LC78:
	.string	"check_all ok"
	.section	.rodata.str1.8
	.align 8
.LC79:
	.string	"check_all fail error sum = %u\n"
	.text
	.p2align 4
	.globl	_Z9check_allv
	.type	_Z9check_allv, @function
_Z9check_allv:
.LFB10617:
	.cfi_startproc
	endbr64
	pushq	%rbp
	.cfi_def_cfa_offset 16
	.cfi_offset 6, -16
	movq	%rsp, %rbp
	.cfi_def_cfa_register 6
	pushq	%r15
	pushq	%r14
	pushq	%r13
	pushq	%r12
	pushq	%rbx
	andq	$-32, %rsp
	subq	$64, %rsp
	.cfi_offset 15, -24
	.cfi_offset 14, -32
	.cfi_offset 13, -40
	.cfi_offset 12, -48
	.cfi_offset 3, -56
	movq	2496+gen(%rip), %r15
	movq	$1073741824, 24(%rsp)
	movl	$0, 56(%rsp)
	.p2align 4
	.p2align 3
.L1405:
	movabsq	$6148914691236517205, %r14
	movabsq	$8202884508482404352, %r13
	movabsq	$-2270628950310912, %r12
	movabsq	$9223372036854775807, %rbx
	jmp	.L1398
	.p2align 4
	.p2align 3
.L1397:
	leaq	gen(%rip), %rsi
	leaq	1(%rax), %r15
	movabsq	$9218868437227405311, %rcx
	movq	(%rsi,%rax,8), %rax
	movq	%r15, 2496+gen(%rip)
	movq	%rax, %rdx
	shrq	$29, %rdx
	andq	%r14, %rdx
	xorq	%rdx, %rax
	movq	%rax, %rdx
	salq	$17, %rdx
	andq	%r13, %rdx
	xorq	%rdx, %rax
	movq	%rax, %rdx
	salq	$37, %rdx
	andq	%r12, %rdx
	xorq	%rdx, %rax
	movq	%rax, %rdx
	shrq	$43, %rdx
	xorq	%rdx, %rax
	movq	%rax, %rdx
	andq	%rbx, %rdx
	cmpq	%rdx, %rcx
	jnb	.L1413
.L1398:
	movq	%r15, %rax
	cmpq	$311, %r15
	jbe	.L1397
	leaq	gen(%rip), %rdi
	vzeroupper
	call	_ZNSt23mersenne_twister_engineImLm64ELm312ELm156ELm31ELm13043109905998158313ELm29ELm6148914691236517205ELm17ELm8202884508482404352ELm37ELm18444473444759240704ELm43ELm6364136223846793005EE11_M_gen_randEv
	movq	2496+gen(%rip), %rax
	jmp	.L1397
	.p2align 4
	.p2align 3
.L1413:
	movq	%rax, %rdi
	movq	%rdx, %rax
	movabsq	$4503599627370495, %rdx
	andq	%rdx, %rdi
	shrq	$52, %rax
	movq	%rdi, %r10
	movq	%rax, 48(%rsp)
	je	.L1408
	subl	$1075, %eax
	btsq	$52, %r10
	imull	$1262611, %eax, %ebx
	movl	%eax, %ecx
	movl	%eax, 60(%rsp)
.L1399:
	leaq	0(,%r10,4), %r13
	cmpq	$1, %rdi
	leal	-524031(%rbx), %eax
	movl	$292, %r8d
	movq	%r13, %rdx
	leaq	2(%r13), %rsi
	adcq	$-2, %rdx
	sarl	$22, %eax
	sarl	$22, %ebx
	testq	%rdi, %rdi
	cmove	%eax, %ebx
	imull	$-1741647, %ebx, %eax
	subl	%ebx, %r8d
	movslq	%r8d, %r8
	salq	$4, %r8
	sarl	$19, %eax
	leal	1(%rcx,%rax), %r12d
	leaq	_ZZN3xjbL19ComputePow10_DoubleEiE1g(%rip), %rax
	addq	%rax, %r8
	shlx	%r12, %rdx, %rdx
	movq	%rdx, %rax
	shlx	%r12, %rsi, %rsi
	movq	(%r8), %rcx
	movq	8(%r8), %r11
	mulx	%rcx, %r8, %r9
	mulq	%r11
	movq	%r11, %rax
	addq	%rdx, %r8
	shlx	%r12, %r13, %rdx
	adcq	$0, %r9
	movq	%r8, 32(%rsp)
	movq	%r9, 40(%rsp)
	mulx	%rcx, %r8, %r9
	mulq	%rdx
	movq	%r11, %rax
	addq	%rdx, %r8
	movq	%rcx, %rdx
	adcq	$0, %r9
	xorl	%r14d, %r14d
	cmpq	$1, %r8
	seta	%r14b
	movq	%r9, %r13
	orq	%r9, %r14
	mulx	%rsi, %r8, %r9
	mulq	%rsi
	movq	40(%rsp), %rax
	movq	$-3, %rsi
	addq	%rdx, %r8
	adcq	$0, %r9
	xorl	%ecx, %ecx
	cmpq	$1, %r8
	movq	32(%rsp), %r8
	seta	%cl
	andl	$1, %r10d
	orq	%r9, %rcx
	cmpq	$1, %r8
	seta	%r8b
	subq	%r10, %rsi
	andl	$7, %r14d
	shrq	$2, %r13
	movzbl	%r8b, %r8d
	orq	%rax, %r8
	movabsq	$1844674407370955162, %rax
	mulq	%r13
	addq	%r10, %r8
	movl	$200, %r10d
	sarx	%r14d, %r10d, %r10d
	andl	$1, %r10d
	addq	%r10, %r13
	leaq	0(,%rdx,4), %rax
	leaq	(%rax,%rdx), %r9
	addq	%r9, %r9
	testq	%rdi, %rdi
	je	.L1414
.L1402:
	addq	%rdx, %rax
	salq	$3, %rax
	cmpq	%r8, %rax
	cmovnb	%r9, %r13
	addq	%rcx, %rsi
	addq	$37, %rax
	addq	$10, %r9
	cmpq	%rax, %rsi
	movq	48(%rsp), %rsi
	cmovnb	%r9, %r13
	call	_Z11ToDecimal64mm
	cmpl	%edx, %ebx
	movq	%rax, %rcx
	setne	%al
	cmpq	%r13, %rcx
	setne	%dl
	orl	%edx, %eax
	movzbl	%al, %eax
	addl	%eax, 56(%rsp)
	decq	24(%rsp)
	jne	.L1405
	movl	56(%rsp), %eax
	testl	%eax, %eax
	jne	.L1406
	vzeroupper
	leaq	-40(%rbp), %rsp
	leaq	.LC78(%rip), %rdi
	popq	%rbx
	popq	%r12
	popq	%r13
	popq	%r14
	popq	%r15
	popq	%rbp
	.cfi_remember_state
	.cfi_def_cfa 7, 8
	jmp	puts@PLT
	.p2align 4
	.p2align 3
.L1414:
	.cfi_restore_state
	movl	60(%rsp), %r11d
	movl	$1, %r10d
	vpbroadcastw	%r11d, %ymm0
	vpcmpeqw	.LC22(%rip), %ymm0, %ymm0
	vpand	.LC23(%rip), %ymm0, %ymm0
	vpmovzxwd	%xmm0, %ymm1
	vextracti128	$0x1, %ymm0, %xmm0
	vpmovzxwd	%xmm0, %ymm0
	vextracti128	$0x1, %ymm1, %xmm2
	vpmovzxdq	%xmm1, %ymm1
	vpmovzxdq	%xmm2, %ymm2
	vpaddq	%ymm1, %ymm2, %ymm2
	vpmovzxdq	%xmm0, %ymm1
	vextracti128	$0x1, %ymm0, %xmm0
	vpmovzxdq	%xmm0, %ymm0
	vpaddq	%ymm2, %ymm1, %ymm1
	vpbroadcastw	%r11d, %xmm2
	vpaddq	%ymm1, %ymm0, %ymm0
	vpcmpeqw	.LC24(%rip), %xmm2, %xmm2
	vpbroadcastw	%r10d, %xmm1
	vpand	%xmm1, %xmm2, %xmm2
	vpmovzxwd	%xmm2, %xmm3
	vpsrldq	$8, %xmm2, %xmm2
	vpmovzxwd	%xmm2, %xmm2
	vpsrldq	$8, %xmm3, %xmm1
	vpmovzxdq	%xmm3, %xmm3
	vpmovzxdq	%xmm1, %xmm1
	vpaddq	%xmm3, %xmm1, %xmm1
	vpmovzxdq	%xmm2, %xmm3
	vpsrldq	$8, %xmm2, %xmm2
	vpmovzxdq	%xmm2, %xmm2
	vpaddq	%xmm3, %xmm1, %xmm1
	vpaddq	%xmm2, %xmm1, %xmm1
	vpaddq	%xmm0, %xmm1, %xmm1
	vextracti64x2	$0x1, %ymm0, %xmm0
	vpaddq	%xmm0, %xmm1, %xmm0
	vpsrldq	$8, %xmm0, %xmm1
	vpaddq	%xmm1, %xmm0, %xmm0
	vmovq	%xmm0, %r10
	addq	%r13, %r10
	xorl	%r13d, %r13d
	cmpw	$811, %r11w
	sete	%r13b
	cmpw	$924, %r11w
	sete	%r11b
	movzbl	%r11b, %r11d
	addq	%r11, %r13
	addq	%r10, %r13
	jmp	.L1402
	.p2align 4
	.p2align 3
.L1408:
	movl	$-1074, 60(%rsp)
	movl	$-1356044214, %ebx
	movl	60(%rsp), %ecx
	jmp	.L1399
.L1406:
	xorl	%eax, %eax
	movl	56(%rsp), %edx
	leaq	.LC79(%rip), %rsi
	movl	$2, %edi
	vzeroupper
	leaq	-40(%rbp), %rsp
	popq	%rbx
	popq	%r12
	popq	%r13
	popq	%r14
	popq	%r15
	popq	%rbp
	.cfi_def_cfa 7, 8
	jmp	__printf_chk@PLT
	.cfi_endproc
.LFE10617:
	.size	_Z9check_allv, .-_Z9check_allv
	.section	.rodata.str1.1
.LC80:
	.string	"check_subnormal ok"
	.section	.rodata.str1.8
	.align 8
.LC81:
	.string	"check_subnormal fail error sum = %u\n"
	.text
	.p2align 4
	.globl	_Z15check_subnormalv
	.type	_Z15check_subnormalv, @function
_Z15check_subnormalv:
.LFB10614:
	.cfi_startproc
	endbr64
	pushq	%r15
	.cfi_def_cfa_offset 16
	.cfi_offset 15, -16
	pushq	%r14
	.cfi_def_cfa_offset 24
	.cfi_offset 14, -24
	pushq	%r13
	.cfi_def_cfa_offset 32
	.cfi_offset 13, -32
	movl	$1073741824, %r15d
	pushq	%r12
	.cfi_def_cfa_offset 40
	.cfi_offset 12, -40
	pushq	%rbp
	.cfi_def_cfa_offset 48
	.cfi_offset 6, -48
	pushq	%rbx
	.cfi_def_cfa_offset 56
	.cfi_offset 3, -56
	xorl	%r14d, %r14d
	subq	$8, %rsp
	.cfi_def_cfa_offset 64
	movq	2496+gen(%rip), %rbp
	jmp	.L1419
	.p2align 4
	.p2align 3
.L1416:
	leaq	gen(%rip), %rdi
	leaq	1(%rax), %rbp
	movabsq	$-2270628950310912, %rbx
	movabsq	$4503599627370495, %r9
	movq	(%rdi,%rax,8), %rcx
	movabsq	$6148914691236517205, %rdi
	movabsq	$-7054365918152680535, %rsi
	movq	%rbp, 2496+gen(%rip)
	movq	%rcx, %rax
	shrq	$29, %rax
	andq	%rdi, %rax
	movabsq	$8202884508482404352, %rdi
	xorq	%rax, %rcx
	movq	%rcx, %rax
	salq	$17, %rax
	andq	%rdi, %rax
	xorq	%rax, %rcx
	movq	%rcx, %rax
	salq	$37, %rax
	andq	%rbx, %rax
	movabsq	$7784369436827535058, %rbx
	xorq	%rax, %rcx
	movq	%rcx, %rax
	shrq	$43, %rax
	xorq	%rax, %rcx
	andq	%rcx, %r9
	leaq	0(,%r9,4), %rdi
	cmpq	$1, %r9
	movq	%rdi, %rdx
	adcq	$-2, %rdx
	salq	$3, %rdx
	movq	%rdx, %rax
	mulx	%rsi, %r12, %r13
	mulq	%rbx
	addq	%rdx, %r12
	movq	%r9, %rdx
	adcq	$0, %r13
	salq	$5, %rdx
	movq	%rdx, %rax
	mulx	%rsi, %r10, %r11
	mulq	%rbx
	addq	%rdx, %r10
	leaq	16(,%rdi,8), %rdx
	adcq	$0, %r11
	movq	%rdx, %rax
	cmpq	$1, %r10
	mulx	%rsi, %rsi, %rdi
	seta	%r10b
	mulq	%rbx
	movq	%r11, %r8
	movzbl	%r10b, %r10d
	orq	%r11, %r10
	addq	%rdx, %rsi
	adcq	$0, %rdi
	movq	%rdi, %rax
	xorl	%edi, %edi
	cmpq	$1, %rsi
	movq	$-3, %rsi
	seta	%dil
	andl	$1, %ecx
	xorl	%r11d, %r11d
	shrq	$2, %r8
	orq	%rax, %rdi
	movabsq	$1844674407370955162, %rax
	subq	%rcx, %rsi
	mulq	%r8
	leaq	(%rdx,%rdx,4), %rax
	leaq	(%rax,%rax), %rdx
	salq	$3, %rax
	cmpq	$1, %r12
	movq	%rdx, %rbx
	seta	%r11b
	orq	%r13, %r11
	addq	%r11, %rcx
	cmpq	%rcx, %rax
	jnb	.L1417
	andl	$7, %r10d
	movl	$200, %ebx
	sarx	%r10d, %ebx, %ebx
	andl	$1, %ebx
	addq	%r8, %rbx
.L1417:
	addq	%rdi, %rsi
	addq	$37, %rax
	addq	$10, %rdx
	movq	%r9, %rdi
	cmpq	%rax, %rsi
	cmovnb	%rdx, %rbx
	xorl	%esi, %esi
	call	_Z11ToDecimal64mm
	cmpq	%rbx, %rax
	setne	%al
	cmpl	$-324, %edx
	setne	%dl
	orl	%edx, %eax
	movzbl	%al, %eax
	addl	%eax, %r14d
	decq	%r15
	je	.L1425
.L1419:
	movq	%rbp, %rax
	cmpq	$311, %rbp
	jbe	.L1416
	leaq	gen(%rip), %rdi
	call	_ZNSt23mersenne_twister_engineImLm64ELm312ELm156ELm31ELm13043109905998158313ELm29ELm6148914691236517205ELm17ELm8202884508482404352ELm37ELm18444473444759240704ELm43ELm6364136223846793005EE11_M_gen_randEv
	movq	2496+gen(%rip), %rax
	jmp	.L1416
.L1425:
	testl	%r14d, %r14d
	jne	.L1420
	addq	$8, %rsp
	.cfi_remember_state
	.cfi_def_cfa_offset 56
	leaq	.LC80(%rip), %rdi
	popq	%rbx
	.cfi_def_cfa_offset 48
	popq	%rbp
	.cfi_def_cfa_offset 40
	popq	%r12
	.cfi_def_cfa_offset 32
	popq	%r13
	.cfi_def_cfa_offset 24
	popq	%r14
	.cfi_def_cfa_offset 16
	popq	%r15
	.cfi_def_cfa_offset 8
	jmp	puts@PLT
.L1420:
	.cfi_restore_state
	addq	$8, %rsp
	.cfi_def_cfa_offset 56
	movl	%r14d, %edx
	leaq	.LC81(%rip), %rsi
	movl	$2, %edi
	popq	%rbx
	.cfi_def_cfa_offset 48
	popq	%rbp
	.cfi_def_cfa_offset 40
	popq	%r12
	.cfi_def_cfa_offset 32
	xorl	%eax, %eax
	popq	%r13
	.cfi_def_cfa_offset 24
	popq	%r14
	.cfi_def_cfa_offset 16
	popq	%r15
	.cfi_def_cfa_offset 8
	jmp	__printf_chk@PLT
	.cfi_endproc
.LFE10614:
	.size	_Z15check_subnormalv, .-_Z15check_subnormalv
	.section	.rodata.str1.8
	.align 8
.LC82:
	.string	"\ncheck start , may cost long time , please wait"
	.align 8
.LC83:
	.string	"<=== check xjb algorithm ; use schubfach_xjb for correct result ===>"
	.section	.rodata.str1.1
.LC84:
	.string	"check finish"
	.text
	.p2align 4
	.globl	_Z5checkv
	.type	_Z5checkv, @function
_Z5checkv:
.LFB10618:
	.cfi_startproc
	endbr64
	subq	$8, %rsp
	.cfi_def_cfa_offset 16
	leaq	.LC82(%rip), %rdi
	call	puts@PLT
	leaq	.LC83(%rip), %rdi
	call	puts@PLT
	call	_Z15check_subnormalv
	call	_Z11check_floatv
	call	_Z15check_irregularv
	call	_Z9check_allv
	leaq	.LC84(%rip), %rdi
	addq	$8, %rsp
	.cfi_def_cfa_offset 8
	jmp	puts@PLT
	.cfi_endproc
.LFE10618:
	.size	_Z5checkv, .-_Z5checkv
	.section	.rodata._ZNSt6vectorISt4pairINSt7__cxx1112basic_stringIcSt11char_traitsIcESaIcEEEPFvdPyPiEESaISB_EE17_M_realloc_insertIJSB_EEEvN9__gnu_cxx17__normal_iteratorIPSB_SD_EEDpOT_.str1.1,"aMS",@progbits,1
.LC85:
	.string	"vector::_M_realloc_insert"
	.section	.text._ZNSt6vectorISt4pairINSt7__cxx1112basic_stringIcSt11char_traitsIcESaIcEEEPFvdPyPiEESaISB_EE17_M_realloc_insertIJSB_EEEvN9__gnu_cxx17__normal_iteratorIPSB_SD_EEDpOT_,"axG",@progbits,_ZNSt6vectorISt4pairINSt7__cxx1112basic_stringIcSt11char_traitsIcESaIcEEEPFvdPyPiEESaISB_EE17_M_realloc_insertIJSB_EEEvN9__gnu_cxx17__normal_iteratorIPSB_SD_EEDpOT_,comdat
	.align 2
	.p2align 4
	.weak	_ZNSt6vectorISt4pairINSt7__cxx1112basic_stringIcSt11char_traitsIcESaIcEEEPFvdPyPiEESaISB_EE17_M_realloc_insertIJSB_EEEvN9__gnu_cxx17__normal_iteratorIPSB_SD_EEDpOT_
	.type	_ZNSt6vectorISt4pairINSt7__cxx1112basic_stringIcSt11char_traitsIcESaIcEEEPFvdPyPiEESaISB_EE17_M_realloc_insertIJSB_EEEvN9__gnu_cxx17__normal_iteratorIPSB_SD_EEDpOT_, @function
_ZNSt6vectorISt4pairINSt7__cxx1112basic_stringIcSt11char_traitsIcESaIcEEEPFvdPyPiEESaISB_EE17_M_realloc_insertIJSB_EEEvN9__gnu_cxx17__normal_iteratorIPSB_SD_EEDpOT_:
.LFB11344:
	.cfi_startproc
	endbr64
	pushq	%r15
	.cfi_def_cfa_offset 16
	.cfi_offset 15, -16
	pushq	%r14
	.cfi_def_cfa_offset 24
	.cfi_offset 14, -24
	pushq	%r13
	.cfi_def_cfa_offset 32
	.cfi_offset 13, -32
	movq	%rdx, %r15
	pushq	%r12
	.cfi_def_cfa_offset 40
	.cfi_offset 12, -40
	pushq	%rbp
	.cfi_def_cfa_offset 48
	.cfi_offset 6, -48
	pushq	%rbx
	.cfi_def_cfa_offset 56
	.cfi_offset 3, -56
	movabsq	$-3689348814741910323, %rdx
	subq	$24, %rsp
	.cfi_def_cfa_offset 80
	movq	8(%rdi), %rbp
	movq	(%rdi), %r13
	movq	%rbp, %rax
	subq	%r13, %rax
	sarq	$3, %rax
	imulq	%rdx, %rax
	movabsq	$230584300921369395, %rdx
	cmpq	%rdx, %rax
	je	.L1489
	movq	%rsi, %rdx
	movq	%rdi, %r12
	movq	%rsi, %rbx
	subq	%r13, %rdx
	cmpq	%rbp, %r13
	je	.L1490
	leaq	(%rax,%rax), %rcx
	cmpq	%rax, %rcx
	jb	.L1467
	testq	%rcx, %rcx
	jne	.L1491
	movl	$40, %edi
	xorl	%r14d, %r14d
	xorl	%eax, %eax
.L1434:
	movq	(%r15), %rsi
	leaq	(%rax,%rdx), %rcx
	leaq	16(%rax,%rdx), %r8
	leaq	16(%r15), %rdx
	movq	8(%r15), %r11
	movq	%r8, (%rcx)
	cmpq	%rdx, %rsi
	je	.L1492
	movq	%rsi, (%rcx)
	movq	16(%r15), %rsi
	movq	%rsi, 16(%rcx)
.L1442:
	movq	%rdx, (%r15)
	movq	32(%r15), %rdx
	movq	%r11, 8(%rcx)
	movq	$0, 8(%r15)
	movb	$0, 16(%r15)
	movq	%rdx, 32(%rcx)
	cmpq	%r13, %rbx
	je	.L1443
	movq	%r13, %rdx
	movq	%rax, %rcx
	jmp	.L1453
	.p2align 4
	.p2align 3
.L1444:
	movq	%rsi, (%rcx)
	movq	16(%rdx), %rsi
	movq	%rsi, 16(%rcx)
	movq	8(%rdx), %rsi
	movq	%rsi, 8(%rcx)
.L1487:
	movq	32(%rdx), %rsi
	addq	$40, %rdx
	addq	$40, %rcx
	movq	%rsi, -8(%rcx)
	cmpq	%rdx, %rbx
	je	.L1493
.L1453:
	leaq	16(%rcx), %rdi
	leaq	16(%rdx), %r8
	movq	%rdi, (%rcx)
	movq	(%rdx), %rsi
	cmpq	%r8, %rsi
	jne	.L1444
	movq	8(%rdx), %r9
	leaq	1(%r9), %r8
	cmpl	$8, %r8d
	jnb	.L1445
	testb	$4, %r8b
	jne	.L1494
	testl	%r8d, %r8d
	je	.L1446
	movzbl	(%rsi), %r9d
	movb	%r9b, (%rdi)
	testb	$2, %r8b
	jne	.L1484
.L1488:
	movq	8(%rdx), %r9
.L1446:
	movq	%r9, 8(%rcx)
	jmp	.L1487
	.p2align 4
	.p2align 3
.L1467:
	movabsq	$9223372036854775800, %r14
.L1433:
	movq	%r14, %rdi
	movq	%rdx, (%rsp)
	call	_Znwm@PLT
	movq	(%rsp), %rdx
	addq	%rax, %r14
	leaq	40(%rax), %rdi
	jmp	.L1434
	.p2align 4
	.p2align 3
.L1493:
	leaq	-40(%rbx), %rdx
	movabsq	$922337203685477581, %rcx
	subq	%r13, %rdx
	shrq	$3, %rdx
	imulq	%rcx, %rdx
	movabsq	$2305843009213693951, %rcx
	andq	%rcx, %rdx
	leaq	(%rdx,%rdx,4), %rdx
	leaq	80(%rax,%rdx,8), %rdi
.L1443:
	cmpq	%rbp, %rbx
	je	.L1454
	movq	%rbx, %rdx
	movq	%rdi, %rcx
	.p2align 4
	.p2align 3
.L1464:
	movq	(%rdx), %rsi
	leaq	16(%rcx), %r8
	leaq	16(%rdx), %r10
	movq	8(%rdx), %r9
	movq	%r8, (%rcx)
	cmpq	%r10, %rsi
	je	.L1495
	movq	%rsi, (%rcx)
	movq	16(%rdx), %rsi
	addq	$40, %rdx
	movq	%r9, 8(%rcx)
	addq	$40, %rcx
	movq	%rsi, -24(%rcx)
	movq	-8(%rdx), %rsi
	movq	%rsi, -8(%rcx)
	cmpq	%rbp, %rdx
	jne	.L1464
.L1463:
	subq	%rbx, %rbp
	movabsq	$922337203685477581, %rcx
	leaq	-40(%rbp), %rdx
	shrq	$3, %rdx
	imulq	%rcx, %rdx
	movabsq	$2305843009213693951, %rcx
	andq	%rcx, %rdx
	leaq	5(%rdx,%rdx,4), %rdx
	leaq	(%rdi,%rdx,8), %rdi
.L1454:
	vmovq	%rax, %xmm1
	vpinsrq	$1, %rdi, %xmm1, %xmm0
	testq	%r13, %r13
	je	.L1465
	movq	16(%r12), %rsi
	movq	%r13, %rdi
	vmovdqa	%xmm0, (%rsp)
	subq	%r13, %rsi
	call	_ZdlPvm@PLT
	vmovdqa	(%rsp), %xmm0
.L1465:
	vmovdqu	%xmm0, (%r12)
	movq	%r14, 16(%r12)
	addq	$24, %rsp
	.cfi_remember_state
	.cfi_def_cfa_offset 56
	popq	%rbx
	.cfi_def_cfa_offset 48
	popq	%rbp
	.cfi_def_cfa_offset 40
	popq	%r12
	.cfi_def_cfa_offset 32
	popq	%r13
	.cfi_def_cfa_offset 24
	popq	%r14
	.cfi_def_cfa_offset 16
	popq	%r15
	.cfi_def_cfa_offset 8
	ret
	.p2align 4
	.p2align 3
.L1495:
	.cfi_restore_state
	leaq	1(%r9), %r10
	cmpl	$8, %r10d
	jnb	.L1456
	testb	$4, %r10b
	jne	.L1496
	testl	%r10d, %r10d
	je	.L1457
	movzbl	(%rsi), %r11d
	movb	%r11b, (%r8)
	testb	$2, %r10b
	jne	.L1497
.L1457:
	movq	32(%rdx), %rsi
	addq	$40, %rdx
	movq	%r9, 8(%rcx)
	addq	$40, %rcx
	movq	%rsi, -8(%rcx)
	cmpq	%rdx, %rbp
	jne	.L1464
	jmp	.L1463
	.p2align 4
	.p2align 3
.L1456:
	movq	(%rsi), %r11
	movq	%r11, (%r8)
	movl	%r10d, %r11d
	movq	-8(%rsi,%r11), %r15
	movq	%r15, -8(%r8,%r11)
	leaq	24(%rcx), %r11
	andq	$-8, %r11
	subq	%r11, %r8
	addl	%r8d, %r10d
	subq	%r8, %rsi
	andl	$-8, %r10d
	cmpl	$8, %r10d
	jb	.L1457
	andl	$-8, %r10d
	xorl	%r8d, %r8d
	vmovq	%rax, %xmm2
.L1460:
	movl	%r8d, %r15d
	addl	$8, %r8d
	movq	(%rsi,%r15), %rax
	movq	%rax, (%r11,%r15)
	cmpl	%r10d, %r8d
	jb	.L1460
	vmovq	%xmm2, %rax
	jmp	.L1457
	.p2align 4
	.p2align 3
.L1445:
	movq	(%rsi), %r9
	movq	%r9, (%rdi)
	movl	%r8d, %r9d
	movq	-8(%rsi,%r9), %r10
	movq	%r10, -8(%rdi,%r9)
	leaq	24(%rcx), %r9
	andq	$-8, %r9
	subq	%r9, %rdi
	addl	%edi, %r8d
	subq	%rdi, %rsi
	andl	$-8, %r8d
	cmpl	$8, %r8d
	jb	.L1488
	andl	$-8, %r8d
	xorl	%edi, %edi
.L1449:
	movl	%edi, %r10d
	addl	$8, %edi
	movq	(%rsi,%r10), %r11
	movq	%r11, (%r9,%r10)
	cmpl	%r8d, %edi
	jb	.L1449
	jmp	.L1488
	.p2align 4
	.p2align 3
.L1490:
	addq	$1, %rax
	jc	.L1467
	movabsq	$230584300921369395, %rcx
	cmpq	%rcx, %rax
	cmova	%rcx, %rax
	leaq	(%rax,%rax,4), %r14
	salq	$3, %r14
	jmp	.L1433
	.p2align 4
	.p2align 3
.L1492:
	leaq	1(%r11), %rsi
	cmpl	$8, %esi
	jnb	.L1436
	testb	$4, %sil
	jne	.L1498
	testl	%esi, %esi
	je	.L1442
	movzbl	16(%r15), %r9d
	movb	%r9b, 16(%rcx)
	testb	$2, %sil
	je	.L1442
	movl	%esi, %esi
	movzwl	-2(%rdx,%rsi), %r9d
	movw	%r9w, -2(%r8,%rsi)
	jmp	.L1442
	.p2align 4
	.p2align 3
.L1436:
	movq	16(%r15), %r9
	movq	%r9, 16(%rcx)
	movl	%esi, %r9d
	movq	-8(%rdx,%r9), %r10
	movq	%r10, -8(%r8,%r9)
	leaq	24(%rcx), %r9
	movq	%rdx, %r10
	andq	$-8, %r9
	subq	%r9, %r8
	addl	%r8d, %esi
	subq	%r8, %r10
	andl	$-8, %esi
	cmpl	$8, %esi
	jb	.L1442
	andl	$-8, %esi
	movq	%r15, (%rsp)
	xorl	%r8d, %r8d
	movq	%rbx, %r15
	vmovq	%rax, %xmm3
	movq	%rdx, %rbx
	movl	%esi, %edx
.L1440:
	movl	%r8d, %esi
	addl	$8, %r8d
	movq	(%r10,%rsi), %rax
	movq	%rax, (%r9,%rsi)
	cmpl	%edx, %r8d
	jb	.L1440
	movq	%rbx, %rdx
	vmovq	%xmm3, %rax
	movq	%r15, %rbx
	movq	(%rsp), %r15
	jmp	.L1442
.L1496:
	movl	(%rsi), %r11d
	movl	%r10d, %r10d
	movl	%r11d, (%r8)
	movl	-4(%rsi,%r10), %esi
	movl	%esi, -4(%r8,%r10)
	jmp	.L1457
.L1494:
	movl	(%rsi), %r9d
	movl	%r8d, %r8d
	movl	%r9d, (%rdi)
	movl	-4(%rsi,%r8), %esi
	movl	%esi, -4(%rdi,%r8)
	movq	8(%rdx), %r9
	jmp	.L1446
.L1484:
	movl	%r8d, %r8d
	movzwl	-2(%rsi,%r8), %esi
	movw	%si, -2(%rdi,%r8)
	movq	8(%rdx), %r9
	jmp	.L1446
.L1497:
	movl	%r10d, %r10d
	movzwl	-2(%rsi,%r10), %esi
	movw	%si, -2(%r8,%r10)
	jmp	.L1457
.L1498:
	movl	16(%r15), %r9d
	movl	%esi, %esi
	movl	%r9d, 16(%rcx)
	movl	-4(%rdx,%rsi), %r9d
	movl	%r9d, -4(%r8,%rsi)
	jmp	.L1442
.L1491:
	movabsq	$230584300921369395, %rax
	cmpq	%rax, %rcx
	cmova	%rax, %rcx
	leaq	(%rcx,%rcx,4), %r14
	salq	$3, %r14
	jmp	.L1433
.L1489:
	leaq	.LC85(%rip), %rdi
	call	_ZSt20__throw_length_errorPKc@PLT
	.cfi_endproc
.LFE11344:
	.size	_ZNSt6vectorISt4pairINSt7__cxx1112basic_stringIcSt11char_traitsIcESaIcEEEPFvdPyPiEESaISB_EE17_M_realloc_insertIJSB_EEEvN9__gnu_cxx17__normal_iteratorIPSB_SD_EEDpOT_, .-_ZNSt6vectorISt4pairINSt7__cxx1112basic_stringIcSt11char_traitsIcESaIcEEEPFvdPyPiEESaISB_EE17_M_realloc_insertIJSB_EEEvN9__gnu_cxx17__normal_iteratorIPSB_SD_EEDpOT_
	.section	.rodata.str1.1
.LC86:
	.string	"generate random data finish"
.LC88:
	.string	"init : cost %lf second\n"
	.section	.text.unlikely
.LCOLDB89:
	.text
.LHOTB89:
	.p2align 4
	.globl	_Z11init_doublev
	.type	_Z11init_doublev, @function
_Z11init_doublev:
.LFB10585:
	.cfi_startproc
	.cfi_personality 0x9b,DW.ref.__gxx_personality_v0
	.cfi_lsda 0x1b,.LLSDA10585
	endbr64
	pushq	%r15
	.cfi_def_cfa_offset 16
	.cfi_offset 15, -16
	pushq	%r14
	.cfi_def_cfa_offset 24
	.cfi_offset 14, -24
	pushq	%r13
	.cfi_def_cfa_offset 32
	.cfi_offset 13, -32
	movabsq	$8202884508482404352, %r15
	pushq	%r12
	.cfi_def_cfa_offset 40
	.cfi_offset 12, -40
	pushq	%rbp
	.cfi_def_cfa_offset 48
	.cfi_offset 6, -48
	pushq	%rbx
	.cfi_def_cfa_offset 56
	.cfi_offset 3, -56
	leaq	gen(%rip), %rbp
	subq	$104, %rsp
	.cfi_def_cfa_offset 160
	movabsq	$6148914691236517205, %r12
	movabsq	$-2270628950310912, %r14
	movabsq	$9223372036854775807, %r13
	movq	%fs:40, %rax
	movq	%rax, 88(%rsp)
	xorl	%eax, %eax
	call	_ZNSt6chrono3_V212system_clock3nowEv@PLT
	movl	$800000000, %edi
	movq	%rax, 8(%rsp)
	call	malloc@PLT
	movl	$800000000, %edi
	movq	%rax, %rbx
	movq	%rax, data(%rip)
	call	malloc@PLT
	movl	$400000000, %edi
	movq	%rax, dec(%rip)
	call	malloc@PLT
	movq	2496+gen(%rip), %rdx
	movq	%rax, e10(%rip)
	leaq	800000000(%rbx), %rax
	movq	%rax, (%rsp)
	jmp	.L1501
	.p2align 4
	.p2align 3
.L1500:
	leaq	1(%rax), %rdx
	movq	0(%rbp,%rax,8), %rax
	movq	%rdx, 2496+gen(%rip)
	movq	%rax, %rdi
	shrq	$29, %rdi
	andq	%r12, %rdi
	xorq	%rdi, %rax
	movq	%rax, %rdi
	salq	$17, %rdi
	andq	%r15, %rdi
	xorq	%rdi, %rax
	movq	%rax, %rdi
	salq	$37, %rdi
	andq	%r14, %rdi
	xorq	%rdi, %rax
	movq	%rax, %rdi
	shrq	$43, %rdi
	xorq	%rdi, %rax
	movabsq	$9218868437227405311, %rdi
	andq	%r13, %rax
	cmpq	%rax, %rdi
	jnb	.L1587
.L1501:
	movq	%rdx, %rax
	cmpq	$311, %rdx
	jbe	.L1500
	movq	%rbp, %rdi
	call	_ZNSt23mersenne_twister_engineImLm64ELm312ELm156ELm31ELm13043109905998158313ELm29ELm6148914691236517205ELm17ELm8202884508482404352ELm37ELm18444473444759240704ELm43ELm6364136223846793005EE11_M_gen_randEv
	movq	2496+gen(%rip), %rax
	jmp	.L1500
	.p2align 4
	.p2align 3
.L1587:
	movq	%rax, (%rbx)
	movq	(%rsp), %rax
	addq	$8, %rbx
	cmpq	%rax, %rbx
	jne	.L1501
	leaq	.LC86(%rip), %rdi
.LEHB6:
	call	puts@PLT
	movq	dec(%rip), %rdi
	movl	$800000000, %edx
	xorl	%esi, %esi
	call	memset@PLT
	movq	e10(%rip), %rdi
	movl	$400000000, %edx
	xorl	%esi, %esi
	call	memset@PLT
	movq	_Z13algorithm_setB5cxx11(%rip), %r13
	movq	8+_Z13algorithm_setB5cxx11(%rip), %rbp
	cmpq	%rbp, %r13
	je	.L1503
	movq	%r13, %rbx
.L1507:
	movq	(%rbx), %rdi
	leaq	16(%rbx), %rax
	cmpq	%rax, %rdi
	je	.L1504
	movq	16(%rbx), %rax
	addq	$40, %rbx
	leaq	1(%rax), %rsi
	call	_ZdlPvm@PLT
	cmpq	%rbx, %rbp
	jne	.L1507
.L1506:
	movq	%r13, %rbp
	movq	%r13, 8+_Z13algorithm_setB5cxx11(%rip)
.L1503:
	movabsq	$7161117455558402931, %rax
	movb	$0, 43(%rsp)
	cmpq	%rbp, 16+_Z13algorithm_setB5cxx11(%rip)
	leaq	32(%rsp), %r14
	movq	%rax, 32(%rsp)
	movl	$875980899, 39(%rsp)
	movq	32(%rsp), %rax
	leaq	64(%rsp), %rbx
	leaq	48(%rsp), %r13
	leaq	_Z13algorithm_setB5cxx11(%rip), %r15
	movq	%rbx, 48(%rsp)
	movq	$11, 56(%rsp)
	movq	%r14, 16(%rsp)
	movq	$0, 24(%rsp)
	movb	$0, 32(%rsp)
	movq	%rax, 64(%rsp)
	movl	40(%rsp), %eax
	movl	%eax, 72(%rsp)
	leaq	_Z20schubfach_f64_to_decdPyPi(%rip), %rax
	movq	%rax, 80(%rsp)
	je	.L1508
	leaq	16(%rbp), %rax
	movq	%rax, 0(%rbp)
	movq	48(%rsp), %rdx
	cmpq	%rbx, %rdx
	je	.L1509
	movq	%rdx, 0(%rbp)
	movq	64(%rsp), %rax
	movq	%rax, 16(%rbp)
.L1510:
	movq	80(%rsp), %rax
	movq	$11, 8(%rbp)
	addq	$40, %rbp
	movq	%rax, -8(%rbp)
	movq	%rbp, 8+_Z13algorithm_setB5cxx11(%rip)
.L1511:
	movq	16(%rsp), %rdi
	cmpq	%r14, %rdi
	je	.L1512
	movq	32(%rsp), %rax
	leaq	1(%rax), %rsi
	call	_ZdlPvm@PLT
.L1512:
	movabsq	$7161117455558402931, %rax
	movq	8+_Z13algorithm_setB5cxx11(%rip), %rsi
	movb	$0, 47(%rsp)
	movq	%rbx, 48(%rsp)
	movq	%rax, 32(%rsp)
	movabsq	$7091612913541474403, %rax
	cmpq	16+_Z13algorithm_setB5cxx11(%rip), %rsi
	movq	$15, 56(%rsp)
	movq	%rax, 39(%rsp)
	vmovdqa	32(%rsp), %xmm1
	leaq	_Z24schubfach_xjb_f64_to_decdPyPi(%rip), %rax
	movq	%r14, 16(%rsp)
	movq	$0, 24(%rsp)
	movb	$0, 32(%rsp)
	movq	%rax, 80(%rsp)
	vmovdqa	%xmm1, 64(%rsp)
	je	.L1513
	leaq	16(%rsi), %rax
	movq	%rax, (%rsi)
	movq	48(%rsp), %rax
	cmpq	%rbx, %rax
	je	.L1514
	movq	%rax, (%rsi)
	movq	64(%rsp), %rax
	movq	%rax, 16(%rsi)
.L1515:
	movq	80(%rsp), %rax
	movq	$15, 8(%rsi)
	addq	$40, %rsi
	movq	%rax, -8(%rsi)
	movq	%rsi, 8+_Z13algorithm_setB5cxx11(%rip)
.L1516:
	movq	16(%rsp), %rdi
	cmpq	%r14, %rdi
	je	.L1517
	movq	32(%rsp), %rax
	leaq	1(%rax), %rsi
	call	_ZdlPvm@PLT
.L1517:
	movabsq	$8026098910682509924, %rax
	movq	8+_Z13algorithm_setB5cxx11(%rip), %rsi
	movb	$120, 40(%rsp)
	movb	$0, 41(%rsp)
	movq	%rax, 32(%rsp)
	movq	%rax, 64(%rsp)
	movzwl	40(%rsp), %eax
