	.text
	.file	"main.cpp"
                                        # Start of file scope inline assembly
	.globl	_ZSt21ios_base_library_initv

                                        # End of file scope inline assembly
	.section	.rodata.cst32,"aM",@progbits,32
	.p2align	5, 0x0                          # -- Begin function _ZN9schubfach4DtoaEPcd
.LCPI0_0:
	.zero	32,48
	.section	.rodata,"a",@progbits
.LCPI0_1:
	.byte	48                              # 0x30
	.text
	.globl	_ZN9schubfach4DtoaEPcd
	.p2align	4, 0x90
	.type	_ZN9schubfach4DtoaEPcd,@function
_ZN9schubfach4DtoaEPcd:                 # @_ZN9schubfach4DtoaEPcd
	.cfi_startproc
# %bb.0:
	pushq	%rbp
	.cfi_def_cfa_offset 16
	pushq	%r15
	.cfi_def_cfa_offset 24
	pushq	%r14
	.cfi_def_cfa_offset 32
	pushq	%r12
	.cfi_def_cfa_offset 40
	pushq	%rbx
	.cfi_def_cfa_offset 48
	.cfi_offset %rbx, -48
	.cfi_offset %r12, -40
	.cfi_offset %r14, -32
	.cfi_offset %r15, -24
	.cfi_offset %rbp, -16
	vmovq	%xmm0, %rbx
	movb	$52, %al
	movl	$2868, %ecx                     # imm = 0xB34
	bzhiq	%rax, %rbx, %rax
	bextrq	%rcx, %rbx, %rsi
	cmpq	$2047, %rsi                     # imm = 0x7FF
	jne	.LBB0_1
# %bb.75:
	testq	%rax, %rax
	je	.LBB0_76
# %bb.77:
	movl	$544104814, (%rdi)              # imm = 0x206E616E
	addq	$3, %rdi
	jmp	.LBB0_78
.LBB0_1:
	shrq	$63, %rbx
	movq	%rsi, %rcx
	movb	$45, (%rdi)
	addq	%rdi, %rbx
	orq	%rax, %rcx
	je	.LBB0_74
# %bb.2:
	movq	%rax, %rdi
	callq	_Z11ToDecimal64mm
                                        # kill: def $edx killed $edx def $rdx
	testq	%rax, %rax
	je	.LBB0_79
# %bb.3:
	movabsq	$100000000000000000, %rcx       # imm = 0x16345785D8A0000
	cmpq	%rcx, %rax
	jae	.LBB0_80
# %bb.4:
	cmpl	$-1000, %edx                    # imm = 0xFC18
	jle	.LBB0_81
# %bb.5:
	cmpl	$1000, %edx                     # imm = 0x3E8
	jge	.LBB0_82
# %bb.6:
	movq	%rax, %rcx
	shrq	$32, %rcx
	jne	.LBB0_7
# %bb.14:
	movl	$10, %ecx
	cmpl	$999999999, %eax                # imm = 0x3B9AC9FF
	ja	.LBB0_24
# %bb.15:
	movl	$9, %ecx
	cmpl	$99999999, %eax                 # imm = 0x5F5E0FF
	ja	.LBB0_24
# %bb.16:
	movl	$8, %ecx
	cmpl	$9999999, %eax                  # imm = 0x98967F
	ja	.LBB0_24
# %bb.17:
	movl	$7, %ecx
	cmpl	$999999, %eax                   # imm = 0xF423F
	ja	.LBB0_24
# %bb.18:
	movl	$6, %ecx
	cmpl	$99999, %eax                    # imm = 0x1869F
	ja	.LBB0_24
# %bb.19:
	movl	$5, %ecx
	cmpl	$9999, %eax                     # imm = 0x270F
	ja	.LBB0_24
# %bb.20:
	movl	$4, %ecx
	cmpl	$999, %eax                      # imm = 0x3E7
	ja	.LBB0_24
# %bb.21:
	movl	$3, %ecx
	cmpl	$99, %eax
	ja	.LBB0_24
# %bb.22:
	cmpl	$10, %eax
	movl	$1, %ecx
	jmp	.LBB0_23
.LBB0_76:
	shrq	$63, %rbx
	movb	$45, (%rdi)
	movl	$543583849, (%rdi,%rbx)         # imm = 0x20666E69
	leaq	3(%rdi,%rbx), %rdi
	jmp	.LBB0_78
.LBB0_74:
	movl	$540028464, (%rbx)              # imm = 0x20302E30
	addq	$3, %rbx
	movq	%rbx, %rdi
	jmp	.LBB0_78
.LBB0_7:
	movl	$17, %ecx
	movabsq	$9999999999999999, %rsi         # imm = 0x2386F26FC0FFFF
	cmpq	%rsi, %rax
	ja	.LBB0_24
# %bb.8:
	movl	$16, %ecx
	movabsq	$999999999999999, %rsi          # imm = 0x38D7EA4C67FFF
	cmpq	%rsi, %rax
	ja	.LBB0_24
# %bb.9:
	movl	$15, %ecx
	movabsq	$99999999999999, %rsi           # imm = 0x5AF3107A3FFF
	cmpq	%rsi, %rax
	ja	.LBB0_24
# %bb.10:
	movq	%rax, %rsi
	shrq	$13, %rsi
	movl	$14, %ecx
	cmpq	$1220703124, %rsi               # imm = 0x48C27394
	ja	.LBB0_24
# %bb.11:
	movq	%rax, %rsi
	shrq	$12, %rsi
	movl	$13, %ecx
	cmpq	$244140624, %rsi                # imm = 0xE8D4A50
	ja	.LBB0_24
# %bb.12:
	movq	%rax, %rsi
	shrq	$11, %rsi
	movl	$12, %ecx
	cmpq	$48828124, %rsi                 # imm = 0x2E90EDC
	ja	.LBB0_24
# %bb.13:
	movq	%rax, %rcx
	shrq	$10, %rcx
	cmpq	$9765625, %rcx                  # imm = 0x9502F9
	movl	$10, %ecx
.LBB0_23:
	sbbl	$-1, %ecx
.LBB0_24:
	vpbroadcastb	.LCPI0_1(%rip), %ymm0   # ymm0 = [48,48,48,48,48,48,48,48,48,48,48,48,48,48,48,48,48,48,48,48,48,48,48,48,48,48,48,48,48,48,48,48]
	leal	6(%rcx,%rdx), %r8d
	leal	(%rcx,%rdx), %esi
	movl	$1, %edx
	vmovdqu	%ymm0, (%rbx)
	cmpl	$23, %r8d
	ja	.LBB0_28
# %bb.25:
	testl	%esi, %esi
	jle	.LBB0_27
# %bb.26:
	xorl	%edx, %edx
	jmp	.LBB0_28
.LBB0_27:
	movl	$2, %edx
	subl	%esi, %edx
.LBB0_28:
	movl	%ecx, %edi
	addq	%rdx, %rdi
	xorl	%edx, %edx
	addq	%rbx, %rdi
	cmpq	$100000000, %rax                # imm = 0x5F5E100
	jb	.LBB0_29
# %bb.30:
	movabsq	$-6067343680855748867, %r9      # imm = 0xABCC77118461CEFD
	movq	%rax, %rdx
	leaq	-8(%rdi), %r10
	mulxq	%r9, %r11, %r11
	shrq	$26, %r11
	imull	$100000000, %r11d, %edx         # imm = 0x5F5E100
	subl	%edx, %eax
	movl	$8, %edx
	je	.LBB0_31
# %bb.32:
	movl	$3518437209, %r14d              # imm = 0xD1B71759
	movl	%eax, %r9d
	imulq	%r9, %r14
	imulq	$1125899907, %r9, %r9           # imm = 0x431BDE83
	shrq	$45, %r14
	shrq	$50, %r9
	movzwl	%r14w, %r15d
	imull	$10000, %r14d, %ebp             # imm = 0x2710
	shrl	$2, %r15d
	imull	$5243, %r15d, %r15d             # imm = 0x147B
	shrl	$17, %r15d
	imull	$100, %r15d, %r15d
	subl	%r15d, %r14d
	subl	%ebp, %eax
	movzwl	%r14w, %r15d
	leaq	_ZL11digit_table(%rip), %r14
	movzwl	(%r14,%r9,2), %ebp
	movw	%bp, -8(%rdi)
	movzwl	(%r14,%r15,2), %ebp
	movw	%bp, -6(%rdi)
	je	.LBB0_33
# %bb.34:
	movzwl	%ax, %r9d
	shrl	$2, %r9d
	imull	$5243, %r9d, %r9d               # imm = 0x147B
	shrl	$17, %r9d
	imull	$100, %r9d, %ebp
	subl	%ebp, %eax
	movzwl	(%r14,%r9,2), %ebp
	movzwl	%ax, %eax
	movw	%bp, -4(%rdi)
	movzwl	(%r14,%rax,2), %ebp
	xorl	%r14d, %r14d
	testw	%ax, %ax
	cmovnel	%eax, %r9d
	leaq	_ZZN14dragonbox_warpL21TrailingZeros_2DigitsEjE16TrailingZeros100(%rip), %rax
	sete	%r14b
	movw	%bp, -2(%rdi)
	movsbl	(%r9,%rax), %eax
	leal	(%rax,%r14,2), %r9d
	testl	%r9d, %r9d
	js	.LBB0_83
.LBB0_36:
	cmpl	$8, %r9d
	jb	.LBB0_37
# %bb.84:
	leaq	.L.str.53(%rip), %rdi
	leaq	.L.str.43(%rip), %rsi
	leaq	.L__PRETTY_FUNCTION__._ZL27PrintDecimalDigitsBackwardsPcm(%rip), %rcx
	movl	$1045, %edx                     # imm = 0x415
	vzeroupper
	callq	__assert_fail@PLT
.LBB0_29:
	xorl	%r9d, %r9d
	movq	%rax, %r11
	movq	%rdi, %r10
.LBB0_37:
	cmpl	$10000, %r11d                   # imm = 0x2710
	jb	.LBB0_38
.LBB0_39:
	movl	$3518437209, %r14d              # imm = 0xD1B71759
	movl	%r11d, %eax
	imulq	%rax, %r14
	leaq	-4(%r10), %rax
	shrq	$45, %r14
	imull	$10000, %r14d, %ebp             # imm = 0x2710
	subl	%ebp, %r11d
	je	.LBB0_42
# %bb.40:
	movzwl	%r11w, %ebp
	leaq	_ZL11digit_table(%rip), %r12
	shrl	$2, %ebp
	imull	$5243, %ebp, %r15d              # imm = 0x147B
	shrl	$17, %r15d
	imull	$100, %r15d, %ebp
	subl	%ebp, %r11d
	movzwl	(%r12,%r15,2), %ebp
	movzwl	%r11w, %r11d
	movw	%bp, -4(%r10)
	movzwl	(%r12,%r11,2), %ebp
	movw	%bp, -2(%r10)
	cmpl	%edx, %r9d
	jne	.LBB0_45
# %bb.41:
	xorl	%r9d, %r9d
	testl	%r11d, %r11d
	leaq	_ZZN14dragonbox_warpL21TrailingZeros_2DigitsEjE16TrailingZeros100(%rip), %r10
	cmovnel	%r11d, %r15d
	sete	%r9b
	movsbl	(%r15,%r10), %r10d
	leal	(%rdx,%r9,2), %r9d
	addl	%r10d, %r9d
	jmp	.LBB0_45
.LBB0_31:
	movl	$8, %r9d
	cmpl	$10000, %r11d                   # imm = 0x2710
	jae	.LBB0_39
.LBB0_38:
	movl	%r11d, %r14d
	movq	%r10, %rax
	cmpl	$100, %r14d
	jae	.LBB0_48
.LBB0_47:
	movl	%r14d, %r10d
	cmpl	$10, %r10d
	jb	.LBB0_53
.LBB0_57:
	leaq	_ZL11digit_table(%rip), %r11
	movl	%r10d, %r10d
	movzwl	(%r11,%r10,2), %r11d
	movw	%r11w, -2(%rax)
	cmpl	%edx, %r9d
	jne	.LBB0_59
# %bb.58:
	leaq	_ZZN14dragonbox_warpL21TrailingZeros_2DigitsEjE16TrailingZeros100(%rip), %rax
	movsbl	(%r10,%rax), %eax
	addl	%eax, %edx
	movl	%edx, %r9d
	jmp	.LBB0_59
.LBB0_42:
	cmpl	%edx, %r9d
	jne	.LBB0_44
# %bb.43:
	movl	%edx, %r9d
	orl	$4, %r9d
	jmp	.LBB0_45
.LBB0_33:
	xorl	%eax, %eax
	testl	%r15d, %r15d
	leaq	_ZZN14dragonbox_warpL21TrailingZeros_2DigitsEjE16TrailingZeros100(%rip), %r14
	cmovnel	%r15d, %r9d
	sete	%al
	movsbl	(%r9,%r14), %r9d
	leal	4(%r9,%rax,2), %r9d
	testl	%r9d, %r9d
	jns	.LBB0_36
.LBB0_83:
	leaq	.L.str.52(%rip), %rdi
	leaq	.L.str.43(%rip), %rsi
	leaq	.L__PRETTY_FUNCTION__._ZL27PrintDecimalDigitsBackwardsPcm(%rip), %rcx
	movl	$1044, %edx                     # imm = 0x414
	vzeroupper
	callq	__assert_fail@PLT
.LBB0_44:
	movl	$808464432, (%rax)              # imm = 0x30303030
.LBB0_45:
	orl	$4, %edx
	cmpl	$100, %r14d
	jb	.LBB0_47
.LBB0_48:
	movl	%r14d, %r12d
	imulq	$1374389535, %r12, %r10         # imm = 0x51EB851F
	movl	%r14d, %r11d
	leaq	_ZL11digit_table(%rip), %r15
	shrq	$37, %r10
	imull	$100, %r10d, %ebp
	subl	%ebp, %r11d
	movzwl	(%r15,%r11,2), %ebp
	movw	%bp, -2(%rax)
	cmpl	%edx, %r9d
	jne	.LBB0_50
# %bb.49:
	movl	%r11d, %r9d
	leaq	_ZZN14dragonbox_warpL21TrailingZeros_2DigitsEjE16TrailingZeros100(%rip), %r11
	movsbl	(%r9,%r11), %r9d
	addl	%edx, %r9d
.LBB0_50:
	addl	$2, %edx
	cmpl	$10000, %r14d                   # imm = 0x2710
	jb	.LBB0_51
# %bb.54:
	movzwl	%r10w, %ebp
	movl	$3518437209, %r11d              # imm = 0xD1B71759
	shrl	$2, %ebp
	imulq	%r12, %r11
	imull	$5243, %ebp, %ebp               # imm = 0x147B
	shrq	$45, %r11
	shrl	$17, %ebp
	imull	$100, %ebp, %ebp
	subl	%ebp, %r10d
	movzwl	%r10w, %r10d
	movzwl	(%r15,%r10,2), %ebp
	movw	%bp, -4(%rax)
	addq	$-4, %rax
	cmpl	%edx, %r9d
	jne	.LBB0_56
# %bb.55:
	leaq	_ZZN14dragonbox_warpL21TrailingZeros_2DigitsEjE16TrailingZeros100(%rip), %rdx
	movsbl	(%r10,%rdx), %edx
	addl	%edx, %r9d
	jmp	.LBB0_56
.LBB0_51:
	addq	$-2, %rax
	cmpl	$10, %r10d
	jae	.LBB0_57
.LBB0_53:
	movl	%r10d, %r11d
.LBB0_56:
	orb	$48, %r11b
	movb	%r11b, -1(%rax)
.LBB0_59:
	movslq	%r9d, %rax
	subq	%rax, %rdi
	subl	%eax, %ecx
	cmpl	$23, %r8d
	ja	.LBB0_65
# %bb.60:
	testl	%esi, %esi
	jle	.LBB0_61
# %bb.62:
	movl	%esi, %eax
	addq	%rax, %rbx
	cmpl	%ecx, %esi
	jge	.LBB0_64
# %bb.63:
	vmovdqu	(%rbx), %xmm0
	incq	%rdi
	vmovdqu	%xmm0, 1(%rbx)
	movb	$46, (%rbx)
	jmp	.LBB0_73
.LBB0_65:
	movzbl	1(%rbx), %edx
	leaq	1(%rbx), %rax
	movb	%dl, (%rbx)
	cmpl	$1, %ecx
	jne	.LBB0_67
# %bb.66:
	movq	%rax, %rdi
	jmp	.LBB0_68
.LBB0_67:
	movb	$46, (%rax)
.LBB0_68:
	movl	$1, %eax
	xorl	%edx, %edx
	leal	-1(%rsi), %ecx
	subl	%esi, %eax
	testl	%esi, %esi
	setle	%dl
	cmovgl	%ecx, %eax
	shll	$9, %edx
	addl	$11109, %edx                    # imm = 0x2B65
	movw	%dx, (%rdi)
	cmpl	$9, %eax
	ja	.LBB0_70
# %bb.69:
	orb	$48, %al
	movb	%al, 2(%rdi)
	addq	$3, %rdi
	jmp	.LBB0_73
.LBB0_70:
	cmpl	$99, %eax
	ja	.LBB0_72
# %bb.71:
	leaq	_ZL11digit_table(%rip), %rcx
	movl	%eax, %eax
	movzwl	(%rcx,%rax,2), %eax
	movw	%ax, 2(%rdi)
	addq	$4, %rdi
	jmp	.LBB0_73
.LBB0_61:
	movb	$46, 1(%rbx)
	jmp	.LBB0_73
.LBB0_64:
	movw	$12334, (%rbx)                  # imm = 0x302E
	addq	$2, %rbx
	movq	%rbx, %rdi
	jmp	.LBB0_73
.LBB0_72:
	movl	%eax, %ecx
	imulq	$1374389535, %rcx, %rcx         # imm = 0x51EB851F
	shrq	$37, %rcx
	imull	$100, %ecx, %edx
	addb	$48, %cl
	movb	%cl, 2(%rdi)
	leaq	_ZL11digit_table(%rip), %rcx
	subl	%edx, %eax
	movzwl	(%rcx,%rax,2), %eax
	movw	%ax, 3(%rdi)
	addq	$5, %rdi
.LBB0_73:
	movb	$0, (%rdi)
	incq	%rdi
.LBB0_78:
	movq	%rdi, %rax
	popq	%rbx
	.cfi_def_cfa_offset 40
	popq	%r12
	.cfi_def_cfa_offset 32
	popq	%r14
	.cfi_def_cfa_offset 24
	popq	%r15
	.cfi_def_cfa_offset 16
	popq	%rbp
	.cfi_def_cfa_offset 8
	vzeroupper
	retq
.LBB0_79:
	.cfi_def_cfa_offset 48
	leaq	.L.str.42(%rip), %rdi
	leaq	.L.str.43(%rip), %rsi
	leaq	.L__PRETTY_FUNCTION__._ZL12FormatDigitsPcmib(%rip), %rcx
	movl	$1179, %edx                     # imm = 0x49B
	callq	__assert_fail@PLT
.LBB0_80:
	leaq	.L.str.44(%rip), %rdi
	leaq	.L.str.43(%rip), %rsi
	leaq	.L__PRETTY_FUNCTION__._ZL12FormatDigitsPcmib(%rip), %rcx
	movl	$1180, %edx                     # imm = 0x49C
	callq	__assert_fail@PLT
.LBB0_81:
	leaq	.L.str.45(%rip), %rdi
	leaq	.L.str.43(%rip), %rsi
	leaq	.L__PRETTY_FUNCTION__._ZL12FormatDigitsPcmib(%rip), %rcx
	movl	$1181, %edx                     # imm = 0x49D
	callq	__assert_fail@PLT
.LBB0_82:
	leaq	.L.str.46(%rip), %rdi
	leaq	.L.str.43(%rip), %rsi
	leaq	.L__PRETTY_FUNCTION__._ZL12FormatDigitsPcmib(%rip), %rcx
	movl	$1182, %edx                     # imm = 0x49E
	callq	__assert_fail@PLT
.Lfunc_end0:
	.size	_ZN9schubfach4DtoaEPcd, .Lfunc_end0-_ZN9schubfach4DtoaEPcd
	.cfi_endproc
                                        # -- End function
	.section	.rodata.cst32,"aM",@progbits,32
	.p2align	5, 0x0                          # -- Begin function _ZN12schubfach_324FtoaEPcf
.LCPI1_0:
	.zero	32,48
	.section	.rodata,"a",@progbits
.LCPI1_1:
	.byte	48                              # 0x30
	.text
	.globl	_ZN12schubfach_324FtoaEPcf
	.p2align	4, 0x90
	.type	_ZN12schubfach_324FtoaEPcf,@function
_ZN12schubfach_324FtoaEPcf:             # @_ZN12schubfach_324FtoaEPcf
	.cfi_startproc
# %bb.0:
	pushq	%rbp
	.cfi_def_cfa_offset 16
	pushq	%r15
	.cfi_def_cfa_offset 24
	pushq	%r14
	.cfi_def_cfa_offset 32
	pushq	%r12
	.cfi_def_cfa_offset 40
	pushq	%rbx
	.cfi_def_cfa_offset 48
	.cfi_offset %rbx, -48
	.cfi_offset %r12, -40
	.cfi_offset %r14, -32
	.cfi_offset %r15, -24
	.cfi_offset %rbp, -16
	vmovd	%xmm0, %ebx
	movl	$2071, %ecx                     # imm = 0x817
	movl	%ebx, %eax
	andl	$8388607, %eax                  # imm = 0x7FFFFF
	bextrl	%ecx, %ebx, %esi
	cmpl	$255, %esi
	jne	.LBB1_4
# %bb.1:
	testl	%eax, %eax
	je	.LBB1_20
# %bb.2:
	movl	$544104814, (%rdi)              # imm = 0x206E616E
.LBB1_3:
	addq	$3, %rdi
	jmp	.LBB1_53
.LBB1_4:
	shrl	$31, %ebx
	movl	%esi, %ecx
	movb	$45, (%rdi)
	addq	%rdi, %rbx
	orl	%eax, %ecx
	je	.LBB1_21
# %bb.5:
	movl	%eax, %edi
	callq	_ZN12schubfach_32L11ToDecimal32Ejj
	testl	%eax, %eax
	je	.LBB1_54
# %bb.6:
	cmpl	$1000000000, %eax               # imm = 0x3B9ACA00
	jae	.LBB1_55
# %bb.7:
	movq	%rax, %rsi
	shrq	$32, %rsi
	cmpl	$-100, %esi
	jle	.LBB1_56
# %bb.8:
	cmpl	$100, %esi
	jge	.LBB1_57
# %bb.9:
	movl	$9, %ecx
	cmpl	$99999999, %eax                 # imm = 0x5F5E0FF
	ja	.LBB1_17
# %bb.10:
	movl	$8, %ecx
	cmpl	$9999999, %eax                  # imm = 0x98967F
	ja	.LBB1_17
# %bb.11:
	movl	$7, %ecx
	cmpl	$999999, %eax                   # imm = 0xF423F
	ja	.LBB1_17
# %bb.12:
	movl	$6, %ecx
	cmpl	$99999, %eax                    # imm = 0x1869F
	ja	.LBB1_17
# %bb.13:
	movl	$5, %ecx
	cmpl	$9999, %eax                     # imm = 0x270F
	ja	.LBB1_17
# %bb.14:
	movl	$4, %ecx
	cmpl	$999, %eax                      # imm = 0x3E7
	ja	.LBB1_17
# %bb.15:
	movl	$3, %ecx
	cmpl	$99, %eax
	ja	.LBB1_17
# %bb.16:
	cmpl	$10, %eax
	movl	$1, %ecx
	sbbl	$-1, %ecx
.LBB1_17:
	vpbroadcastb	.LCPI1_1(%rip), %ymm0   # ymm0 = [48,48,48,48,48,48,48,48,48,48,48,48,48,48,48,48,48,48,48,48,48,48,48,48,48,48,48,48,48,48,48,48]
	leal	(%rcx,%rsi), %edx
	leal	4(%rcx,%rsi), %esi
	movl	$1, %r8d
	vmovdqu	%ymm0, (%rbx)
	cmpl	$13, %esi
	ja	.LBB1_23
# %bb.18:
	testl	%edx, %edx
	jle	.LBB1_22
# %bb.19:
	xorl	%r8d, %r8d
	jmp	.LBB1_23
.LBB1_20:
	shrl	$31, %ebx
	movb	$45, (%rdi)
	movl	$543583849, (%rdi,%rbx)         # imm = 0x20666E69
	leaq	3(%rdi,%rbx), %rdi
	jmp	.LBB1_53
.LBB1_21:
	movl	$540028464, (%rbx)              # imm = 0x20302E30
	incq	%rbx
	jmp	.LBB1_52
.LBB1_22:
	movl	$2, %r8d
	subl	%edx, %r8d
.LBB1_23:
	movl	%ecx, %edi
	addq	%r8, %rdi
	xorl	%r9d, %r9d
	addq	%rbx, %rdi
	cmpl	$10000, %eax                    # imm = 0x2710
	jb	.LBB1_26
# %bb.24:
	movl	$3518437209, %r11d              # imm = 0xD1B71759
	movl	%eax, %r8d
	imulq	%r8, %r11
	leaq	-4(%rdi), %r8
	shrq	$45, %r11
	imull	$10000, %r11d, %r9d             # imm = 0x2710
	subl	%r9d, %eax
	movl	$4, %r9d
	je	.LBB1_35
# %bb.25:
	movzwl	%ax, %r10d
	leaq	_ZL11digit_table(%rip), %r14
	shrl	$2, %r10d
	imull	$5243, %r10d, %r10d             # imm = 0x147B
	shrl	$17, %r10d
	imull	$100, %r10d, %ebp
	subl	%ebp, %eax
	movzwl	(%r14,%r10,2), %ebp
	movzwl	%ax, %eax
	movw	%bp, -4(%rdi)
	movzwl	(%r14,%rax,2), %ebp
	xorl	%r14d, %r14d
	testw	%ax, %ax
	cmovnel	%eax, %r10d
	leaq	_ZZN14dragonbox_warpL21TrailingZeros_2DigitsEjE16TrailingZeros100(%rip), %rax
	sete	%r14b
	movw	%bp, -2(%rdi)
	movsbl	(%r10,%rax), %eax
	leal	(%rax,%r14,2), %r10d
	cmpl	$100, %r11d
	jae	.LBB1_27
.LBB1_36:
	movl	%r11d, %eax
	cmpl	$10, %eax
	jb	.LBB1_33
.LBB1_37:
	cmpl	$100, %eax
	jae	.LBB1_58
# %bb.38:
	leaq	_ZL11digit_table(%rip), %r11
	movl	%eax, %eax
	movzwl	(%r11,%rax,2), %r11d
	movw	%r11w, -2(%r8)
	cmpl	%r9d, %r10d
	jne	.LBB1_40
# %bb.39:
	leaq	_ZZN14dragonbox_warpL21TrailingZeros_2DigitsEjE16TrailingZeros100(%rip), %r8
	movsbl	(%rax,%r8), %eax
	addl	%eax, %r9d
	movl	%r9d, %r10d
	jmp	.LBB1_40
.LBB1_26:
	xorl	%r10d, %r10d
	movl	%eax, %r11d
	movq	%rdi, %r8
	cmpl	$100, %r11d
	jb	.LBB1_36
.LBB1_27:
	movl	%r11d, %r15d
	imulq	$1374389535, %r15, %rax         # imm = 0x51EB851F
	movl	%r11d, %r12d
	leaq	_ZL11digit_table(%rip), %r14
	shrq	$37, %rax
	imull	$100, %eax, %ebp
	subl	%ebp, %r12d
	movzwl	(%r14,%r12,2), %ebp
	movw	%bp, -2(%r8)
	cmpl	%r9d, %r10d
	jne	.LBB1_29
# %bb.28:
	movl	%r12d, %r10d
	leaq	_ZZN14dragonbox_warpL21TrailingZeros_2DigitsEjE16TrailingZeros100(%rip), %r12
	movsbl	(%r10,%r12), %r10d
	addl	%r9d, %r10d
.LBB1_29:
	orl	$2, %r9d
	cmpl	$10000, %r11d                   # imm = 0x2710
	jb	.LBB1_32
# %bb.30:
	movzwl	%ax, %ebp
	movl	$3518437209, %r11d              # imm = 0xD1B71759
	shrl	$2, %ebp
	imulq	%r15, %r11
	imull	$5243, %ebp, %ebp               # imm = 0x147B
	shrq	$45, %r11
	shrl	$17, %ebp
	imull	$100, %ebp, %ebp
	subl	%ebp, %eax
	movzwl	%ax, %eax
	movzwl	(%r14,%rax,2), %ebp
	movw	%bp, -4(%r8)
	addq	$-4, %r8
	cmpl	%r9d, %r10d
	jne	.LBB1_34
# %bb.31:
	leaq	_ZZN14dragonbox_warpL21TrailingZeros_2DigitsEjE16TrailingZeros100(%rip), %r9
	movsbl	(%rax,%r9), %eax
	addl	%eax, %r10d
	jmp	.LBB1_34
.LBB1_32:
	addq	$-2, %r8
	cmpl	$10, %eax
	jae	.LBB1_37
.LBB1_33:
	movl	%eax, %r11d
.LBB1_34:
	orb	$48, %r11b
	movb	%r11b, -1(%r8)
.LBB1_40:
	movslq	%r10d, %rax
	subq	%rax, %rdi
	subl	%eax, %ecx
	cmpl	$13, %esi
	ja	.LBB1_44
# %bb.41:
	testl	%edx, %edx
	jle	.LBB1_51
# %bb.42:
	movl	%edx, %eax
	addq	%rax, %rbx
	cmpl	%ecx, %edx
	jge	.LBB1_52
# %bb.43:
	movq	(%rbx), %rax
	incq	%rdi
	movq	%rax, 1(%rbx)
	movb	$46, (%rbx)
	jmp	.LBB1_53
.LBB1_52:
	movq	%rbx, %rdi
	jmp	.LBB1_53
.LBB1_44:
	movzbl	1(%rbx), %esi
	leaq	1(%rbx), %rax
	movb	%sil, (%rbx)
	cmpl	$1, %ecx
	jne	.LBB1_46
# %bb.45:
	movq	%rax, %rdi
	jmp	.LBB1_47
.LBB1_46:
	movb	$46, (%rax)
.LBB1_47:
	movl	$1, %eax
	xorl	%esi, %esi
	leal	-1(%rdx), %ecx
	subl	%edx, %eax
	testl	%edx, %edx
	setle	%sil
	cmovgl	%ecx, %eax
	shll	$9, %esi
	addl	$11109, %esi                    # imm = 0x2B65
	movw	%si, (%rdi)
	cmpl	$9, %eax
	ja	.LBB1_49
# %bb.48:
	orb	$48, %al
	movb	%al, 2(%rdi)
	jmp	.LBB1_3
.LBB1_49:
	cmpl	$100, %eax
	jae	.LBB1_58
# %bb.50:
	leaq	_ZL11digit_table(%rip), %rcx
	movl	%eax, %eax
	movzwl	(%rcx,%rax,2), %eax
	movw	%ax, 2(%rdi)
	addq	$4, %rdi
	jmp	.LBB1_53
.LBB1_35:
	movl	$4, %r10d
	cmpl	$100, %r11d
	jae	.LBB1_27
	jmp	.LBB1_36
.LBB1_51:
	movb	$46, 1(%rbx)
.LBB1_53:
	movq	%rdi, %rax
	popq	%rbx
	.cfi_def_cfa_offset 40
	popq	%r12
	.cfi_def_cfa_offset 32
	popq	%r14
	.cfi_def_cfa_offset 24
	popq	%r15
	.cfi_def_cfa_offset 16
	popq	%rbp
	.cfi_def_cfa_offset 8
	vzeroupper
	retq
.LBB1_54:
	.cfi_def_cfa_offset 48
	leaq	.L.str.42(%rip), %rdi
	leaq	.L.str.61(%rip), %rsi
	leaq	.L__PRETTY_FUNCTION__._ZN12schubfach_32L12FormatDigitsEPcjib(%rip), %rcx
	movl	$2897, %edx                     # imm = 0xB51
	callq	__assert_fail@PLT
.LBB1_55:
	leaq	.L.str.62(%rip), %rdi
	leaq	.L.str.61(%rip), %rsi
	leaq	.L__PRETTY_FUNCTION__._ZN12schubfach_32L12FormatDigitsEPcjib(%rip), %rcx
	movl	$2898, %edx                     # imm = 0xB52
	callq	__assert_fail@PLT
.LBB1_56:
	leaq	.L.str.63(%rip), %rdi
	leaq	.L.str.61(%rip), %rsi
	leaq	.L__PRETTY_FUNCTION__._ZN12schubfach_32L12FormatDigitsEPcjib(%rip), %rcx
	movl	$2899, %edx                     # imm = 0xB53
	callq	__assert_fail@PLT
.LBB1_57:
	leaq	.L.str.64(%rip), %rdi
	leaq	.L.str.61(%rip), %rsi
	leaq	.L__PRETTY_FUNCTION__._ZN12schubfach_32L12FormatDigitsEPcjib(%rip), %rcx
	movl	$2900, %edx                     # imm = 0xB54
	callq	__assert_fail@PLT
.LBB1_58:
	leaq	.L.str.60(%rip), %rdi
	leaq	.L.str.61(%rip), %rsi
	leaq	.L__PRETTY_FUNCTION__._ZN12schubfach_32L12Utoa_2DigitsEPcj(%rip), %rcx
	movl	$2651, %edx                     # imm = 0xA5B
	vzeroupper
	callq	__assert_fail@PLT
.Lfunc_end1:
	.size	_ZN12schubfach_324FtoaEPcf, .Lfunc_end1-_ZN12schubfach_324FtoaEPcf
	.cfi_endproc
                                        # -- End function
	.globl	_Z20schubfach_f64_to_decdPyPi   # -- Begin function _Z20schubfach_f64_to_decdPyPi
	.p2align	4, 0x90
	.type	_Z20schubfach_f64_to_decdPyPi,@function
_Z20schubfach_f64_to_decdPyPi:          # @_Z20schubfach_f64_to_decdPyPi
	.cfi_startproc
# %bb.0:
	pushq	%r14
	.cfi_def_cfa_offset 16
	pushq	%rbx
	.cfi_def_cfa_offset 24
	pushq	%rax
	.cfi_def_cfa_offset 32
	.cfi_offset %rbx, -24
	.cfi_offset %r14, -16
	vmovq	%xmm0, %rax
	movb	$52, %cl
	movq	%rdi, %r14
	movq	%rsi, %rbx
	bzhiq	%rcx, %rax, %rdi
	movl	$2868, %ecx                     # imm = 0xB34
	bextrq	%rcx, %rax, %rsi
	callq	_Z11ToDecimal64mm
	movq	%rax, (%r14)
	movl	%edx, (%rbx)
	addq	$8, %rsp
	.cfi_def_cfa_offset 24
	popq	%rbx
	.cfi_def_cfa_offset 16
	popq	%r14
	.cfi_def_cfa_offset 8
	retq
.Lfunc_end2:
	.size	_Z20schubfach_f64_to_decdPyPi, .Lfunc_end2-_Z20schubfach_f64_to_decdPyPi
	.cfi_endproc
                                        # -- End function
	.p2align	4, 0x90                         # -- Begin function _Z11ToDecimal64mm
	.type	_Z11ToDecimal64mm,@function
_Z11ToDecimal64mm:                      # @_Z11ToDecimal64mm
	.cfi_startproc
# %bb.0:
	pushq	%r14
	.cfi_def_cfa_offset 16
	pushq	%rbx
	.cfi_def_cfa_offset 24
	pushq	%rax
	.cfi_def_cfa_offset 32
	.cfi_offset %rbx, -24
	.cfi_offset %r14, -16
	testq	%rsi, %rsi
	je	.LBB3_1
# %bb.2:
	movabsq	$4503599627370496, %r8          # imm = 0x10000000000000
	addl	$-1075, %esi                    # imm = 0xFBCD
	orq	%rdi, %r8
.LBB3_3:
	imull	$1262611, %esi, %r9d            # imm = 0x134413
	xorl	%eax, %eax
	testq	%rdi, %rdi
	sete	%dl
	leal	-524031(%r9), %ecx
	cmovnel	%r9d, %ecx
	sarl	$22, %ecx
	cmpl	$293, %ecx                      # imm = 0x125
	jge	.LBB3_13
# %bb.4:
	cmpl	$-325, %ecx                     # imm = 0xFEBB
	jle	.LBB3_14
# %bb.5:
	movb	%dl, %al
	leaq	_ZZL19ComputePow10_DoubleiE1g(%rip), %r9
	leaq	(,%r8,4), %rdi
	leaq	2(,%r8,4), %r11
	leaq	-2(%rax,%r8,4), %rdx
	imull	$-1741647, %ecx, %eax           # imm = 0xFFE56CB1
                                        # kill: def $r8d killed $r8d killed $r8 def $r8
	andl	$1, %r8d
	sarl	$19, %eax
	leal	1(%rsi,%rax), %ebx
	movl	$292, %eax                      # imm = 0x124
	subl	%ecx, %eax
	shlq	$4, %rax
	shlxq	%rbx, %rdi, %rdi
	shlxq	%rbx, %r11, %r11
	movq	(%rax,%r9), %rsi
	movq	8(%rax,%r9), %rax
	shlxq	%rbx, %rdx, %r9
	movq	%rax, %rdx
	mulxq	%r9, %r10, %r10
	movq	%rsi, %rdx
	mulxq	%r9, %rdx, %r14
	addq	%r10, %rdx
	adcq	$0, %r14
	xorl	%r9d, %r9d
	testq	$-2, %rdx
	movq	%rax, %rdx
	mulxq	%rdi, %r10, %r10
	movq	%rsi, %rdx
	mulxq	%rdi, %rdx, %rdi
	setne	%r9b
	orq	%r14, %r9
	addq	%r10, %rdx
	adcq	$0, %rdi
	xorl	%r10d, %r10d
	testq	$-2, %rdx
	movq	%rax, %rdx
	mulxq	%r11, %rax, %rax
	movq	%rsi, %rdx
	mulxq	%r11, %rdx, %r11
	setne	%r10b
	orq	%rdi, %r10
	addq	%rax, %rdx
	adcq	$0, %r11
	xorl	%esi, %esi
	testq	$-2, %rdx
	setne	%sil
	addq	%r8, %r9
	orq	%r11, %rsi
	subq	%r8, %rsi
	cmpq	$40, %r10
	jb	.LBB3_8
# %bb.6:
	movabsq	$-3689348814741910323, %rax     # imm = 0xCCCCCCCCCCCCCCCD
	movq	%rdi, %rdx
	mulxq	%rax, %rax, %rax
	shrq	$5, %rax
	leaq	(,%rax,8), %rdx
	leaq	40(%rdx,%rdx,4), %r8
	leaq	(%rdx,%rdx,4), %r11
	xorl	%edx, %edx
	cmpq	%rsi, %r8
	setbe	%r8b
	cmpq	%r11, %r9
	seta	%r11b
	cmpb	%r8b, %r11b
	je	.LBB3_7
.LBB3_8:
	movq	%rdi, %rdx
	andq	$-4, %rdx
	movq	%rdi, %rax
	shrq	$2, %rax
	leaq	4(%rdx), %r8
	cmpq	%rsi, %r8
	setbe	%sil
	cmpq	%rdx, %r9
	seta	%r8b
	cmpb	%sil, %r8b
	je	.LBB3_11
# %bb.9:
	orq	$2, %rdx
	movb	$1, %sil
	cmpq	%rdx, %r10
	ja	.LBB3_11
# %bb.10:
	sete	%dl
	shrb	$2, %dil
	andb	%dl, %dil
	movl	%edi, %esi
.LBB3_11:
	movzbl	%sil, %edx
	addq	%rdx, %rax
	jmp	.LBB3_12
.LBB3_7:
	movb	%r8b, %dl
	addq	%rdx, %rax
	addq	%rax, %rax
	leaq	(%rax,%rax,4), %rax
.LBB3_12:
	movl	%ecx, %edx
	addq	$8, %rsp
	.cfi_def_cfa_offset 24
	popq	%rbx
	.cfi_def_cfa_offset 16
	popq	%r14
	.cfi_def_cfa_offset 8
	retq
.LBB3_1:
	.cfi_def_cfa_offset 32
	movl	$-1074, %esi                    # imm = 0xFBCE
	movq	%rdi, %r8
	jmp	.LBB3_3
.LBB3_13:
	leaq	.L.str.68(%rip), %rdi
	leaq	.L.str.43(%rip), %rsi
	leaq	.L__PRETTY_FUNCTION__._ZL19ComputePow10_Doublei(%rip), %rcx
	movl	$786, %edx                      # imm = 0x312
	callq	__assert_fail@PLT
.LBB3_14:
	leaq	.L.str.69(%rip), %rdi
	leaq	.L.str.43(%rip), %rsi
	leaq	.L__PRETTY_FUNCTION__._ZL19ComputePow10_Doublei(%rip), %rcx
	movl	$787, %edx                      # imm = 0x313
	callq	__assert_fail@PLT
.Lfunc_end3:
	.size	_Z11ToDecimal64mm, .Lfunc_end3-_Z11ToDecimal64mm
	.cfi_endproc
                                        # -- End function
	.globl	_Z20schubfach_f32_to_decfPjPi   # -- Begin function _Z20schubfach_f32_to_decfPjPi
	.p2align	4, 0x90
	.type	_Z20schubfach_f32_to_decfPjPi,@function
_Z20schubfach_f32_to_decfPjPi:          # @_Z20schubfach_f32_to_decfPjPi
	.cfi_startproc
# %bb.0:
	pushq	%r14
	.cfi_def_cfa_offset 16
	pushq	%rbx
	.cfi_def_cfa_offset 24
	pushq	%rax
	.cfi_def_cfa_offset 32
	.cfi_offset %rbx, -24
	.cfi_offset %r14, -16
	movq	%rsi, %rbx
	vmovd	%xmm0, %esi
	movq	%rdi, %r14
	movl	%esi, %edi
	andl	$2139095040, %esi               # imm = 0x7F800000
	andl	$8388607, %edi                  # imm = 0x7FFFFF
	shrl	$23, %esi
	callq	_ZN12schubfach_32L11ToDecimal32Ejj
	movl	%eax, (%r14)
	shrq	$32, %rax
	movl	%eax, (%rbx)
	addq	$8, %rsp
	.cfi_def_cfa_offset 24
	popq	%rbx
	.cfi_def_cfa_offset 16
	popq	%r14
	.cfi_def_cfa_offset 8
	retq
.Lfunc_end4:
	.size	_Z20schubfach_f32_to_decfPjPi, .Lfunc_end4-_Z20schubfach_f32_to_decfPjPi
	.cfi_endproc
                                        # -- End function
	.p2align	4, 0x90                         # -- Begin function _ZN12schubfach_32L11ToDecimal32Ejj
	.type	_ZN12schubfach_32L11ToDecimal32Ejj,@function
_ZN12schubfach_32L11ToDecimal32Ejj:     # @_ZN12schubfach_32L11ToDecimal32Ejj
	.cfi_startproc
# %bb.0:
	movl	%edi, %ecx
                                        # kill: def $esi killed $esi def $rsi
	orl	$8388608, %ecx                  # imm = 0x800000
	testl	%esi, %esi
	leal	-150(%rsi), %eax
	movl	$-149, %edx
	cmovel	%edi, %ecx
	cmovnel	%eax, %edx
	movl	%ecx, %eax
	andl	$1, %eax
	testl	%edi, %edi
	leal	2(,%rcx,4), %r9d
	sete	%dil
	cmpl	$2, %esi
	setae	%sil
	imull	$1262611, %edx, %r10d           # imm = 0x134413
	andb	%dil, %sil
	movzbl	%sil, %edi
	movl	%ecx, %esi
	shll	$2, %esi
	leal	-2(%rdi,%rcx,4), %r8d
	testb	%dil, %dil
	leal	-524031(%r10), %ecx
	leaq	_ZZN15schubfach_xjb32L19ComputePow10_SingleEiE1g(%rip), %rdi
	cmovel	%r10d, %ecx
	sarl	$22, %ecx
	imull	$-1741647, %ecx, %r10d          # imm = 0xFFE56CB1
	shrl	$19, %r10d
	addl	%edx, %r10d
	movl	$31, %edx
	subl	%ecx, %edx
	incb	%r10b
	movq	(%rdi,%rdx,8), %rdx
	shlxl	%r10d, %r8d, %edi
	shlxl	%r10d, %esi, %esi
	shlxl	%r10d, %r9d, %r9d
	mulxq	%rdi, %r11, %r8
	xorl	%edi, %edi
	mulxq	%r9, %r10, %r9
	shrq	$33, %r11
	mulxq	%rsi, %r11, %rsi
	setne	%dil
	orl	%r8d, %edi
	xorl	%r8d, %r8d
	shrq	$33, %r11
	setne	%r8b
	xorl	%edx, %edx
	orl	%esi, %r8d
	shrq	$33, %r10
	setne	%dl
	addl	%eax, %edi
	orl	%r9d, %edx
	subl	%eax, %edx
	cmpl	$40, %r8d
	jb	.LBB5_3
# %bb.1:
	movl	$3435973837, %eax               # imm = 0xCCCCCCCD
	movl	%esi, %r9d
	imulq	%r9, %rax
	shrq	$37, %rax
	leal	(,%rax,8), %r9d
	leal	40(%r9,%r9,4), %r10d
	leal	(%r9,%r9,4), %r11d
	xorl	%r9d, %r9d
	cmpl	%edx, %r10d
	setbe	%r10b
	cmpl	%r11d, %edi
	seta	%r11b
	cmpb	%r10b, %r11b
	je	.LBB5_2
.LBB5_3:
	movl	%esi, %r9d
	andl	$-4, %r9d
	movl	%esi, %eax
	shrl	$2, %eax
	leal	4(%r9), %r10d
	cmpl	%edx, %r10d
	setbe	%dl
	cmpl	%r9d, %edi
	seta	%dil
	cmpb	%dl, %dil
	je	.LBB5_6
# %bb.4:
	orl	$2, %r9d
	movb	$1, %dl
	cmpl	%r9d, %r8d
	ja	.LBB5_6
# %bb.5:
	sete	%dl
	shrb	$2, %sil
	andb	%dl, %sil
	movl	%esi, %edx
.LBB5_6:
	movzbl	%dl, %edx
	addl	%edx, %eax
	shlq	$32, %rcx
	movl	%eax, %eax
	orq	%rcx, %rax
	retq
.LBB5_2:
	movb	%r10b, %r9b
	addl	%r9d, %eax
	addl	%eax, %eax
	leal	(%rax,%rax,4), %eax
	shlq	$32, %rcx
	movl	%eax, %eax
	orq	%rcx, %rax
	retq
.Lfunc_end5:
	.size	_ZN12schubfach_32L11ToDecimal32Ejj, .Lfunc_end5-_ZN12schubfach_32L11ToDecimal32Ejj
	.cfi_endproc
                                        # -- End function
	.section	.rodata.cst32,"aM",@progbits,32
	.p2align	5, 0x0                          # -- Begin function _ZN15schubfach_xjb324FtoaEPcf
.LCPI6_0:
	.zero	32,48
	.section	.rodata,"a",@progbits
.LCPI6_1:
	.byte	48                              # 0x30
	.text
	.globl	_ZN15schubfach_xjb324FtoaEPcf
	.p2align	4, 0x90
	.type	_ZN15schubfach_xjb324FtoaEPcf,@function
_ZN15schubfach_xjb324FtoaEPcf:          # @_ZN15schubfach_xjb324FtoaEPcf
	.cfi_startproc
# %bb.0:
	pushq	%rbp
	.cfi_def_cfa_offset 16
	pushq	%r15
	.cfi_def_cfa_offset 24
	pushq	%r14
	.cfi_def_cfa_offset 32
	pushq	%r12
	.cfi_def_cfa_offset 40
	pushq	%rbx
	.cfi_def_cfa_offset 48
	.cfi_offset %rbx, -48
	.cfi_offset %r12, -40
	.cfi_offset %r14, -32
	.cfi_offset %r15, -24
	.cfi_offset %rbp, -16
	vmovd	%xmm0, %eax
	movl	$2071, %ecx                     # imm = 0x817
	movl	%eax, %esi
	andl	$8388607, %esi                  # imm = 0x7FFFFF
	bextrl	%ecx, %eax, %r8d
	cmpl	$255, %r8d
	jne	.LBB6_4
# %bb.1:
	testl	%esi, %esi
	je	.LBB6_24
# %bb.2:
	movl	$544104814, (%rdi)              # imm = 0x206E616E
.LBB6_3:
	addq	$3, %rdi
	jmp	.LBB6_59
.LBB6_4:
	shrl	$31, %eax
	movl	%r8d, %ecx
	movb	$45, (%rdi)
	addq	%rdi, %rax
	orl	%esi, %ecx
	je	.LBB6_25
# %bb.5:
	leal	8388608(%rsi), %ecx
	testl	%r8d, %r8d
	leal	-150(%r8), %edi
	movl	$-149, %edx
	cmovnel	%edi, %edx
	cmovel	%esi, %ecx
	testl	%esi, %esi
	sete	%sil
	cmpl	$2, %r8d
	setae	%dil
	imull	$1262611, %edx, %r8d            # imm = 0x134413
	andb	%sil, %dil
	testb	%dil, %dil
	leal	-524031(%r8), %esi
	cmovel	%r8d, %esi
	sarl	$22, %esi
	imull	$-1741647, %esi, %r8d           # imm = 0xFFE56CB1
	sarl	$19, %r8d
	movl	%r8d, %r9d
	addl	%edx, %r9d
	js	.LBB6_60
# %bb.6:
	cmpl	$4, %r9d
	jae	.LBB6_61
# %bb.7:
	movzbl	%dil, %edi
	movl	%ecx, %r9d
	movl	%ecx, %ebx
	leal	2(,%rcx,4), %r10d
	leal	1(%r8,%rdx), %r11d
	leaq	_ZZN15schubfach_xjb32L19ComputePow10_SingleEiE1g(%rip), %rdx
	andl	$1, %r9d
	shll	$2, %ebx
	leal	-2(%rdi,%rcx,4), %edi
	movl	$31, %ecx
	subl	%esi, %ecx
	shlxl	%r11d, %r10d, %r10d
	movq	(%rdx,%rcx,8), %rdx
	shlxl	%r11d, %edi, %ecx
	xorl	%edi, %edi
	mulxq	%rcx, %r8, %rcx
	shrq	$33, %r8
	setne	%dil
	xorl	%r8d, %r8d
	orl	%ecx, %edi
	shlxl	%r11d, %ebx, %ecx
	mulxq	%r10, %r11, %r10
	mulxq	%rcx, %rbx, %rcx
	shrq	$33, %rbx
	setne	%r8b
	xorl	%edx, %edx
	orl	%ecx, %r8d
	shrq	$33, %r11
	setne	%dl
	addl	%r9d, %edi
	orl	%r10d, %edx
	subl	%r9d, %edx
	cmpl	$40, %r8d
	jb	.LBB6_9
# %bb.8:
	movl	$3435973837, %r9d               # imm = 0xCCCCCCCD
	movl	%ecx, %r10d
	imulq	%r10, %r9
	shrq	$37, %r9
	leal	(,%r9,8), %r10d
	leal	40(%r10,%r10,4), %r11d
	leal	(%r10,%r10,4), %ebx
	xorl	%r10d, %r10d
	cmpl	%edx, %r11d
	setbe	%r11b
	cmpl	%ebx, %edi
	seta	%bl
	cmpb	%r11b, %bl
	je	.LBB6_26
.LBB6_9:
	movl	%ecx, %r10d
	andl	$2147483644, %r10d              # imm = 0x7FFFFFFC
	movl	%ecx, %r9d
	shrl	$2, %r9d
	leal	4(%r10), %r11d
	cmpl	%edx, %r11d
	setbe	%dl
	cmpl	%r10d, %edi
	seta	%dil
	cmpb	%dl, %dil
	je	.LBB6_12
# %bb.10:
	orl	$2, %r10d
	movb	$1, %dl
	cmpl	%r10d, %r8d
	ja	.LBB6_12
# %bb.11:
	sete	%dl
	shrb	$2, %cl
	andb	%dl, %cl
	movl	%ecx, %edx
.LBB6_12:
	movzbl	%dl, %ecx
	addl	%ecx, %r9d
	testl	%r9d, %r9d
	je	.LBB6_27
.LBB6_13:
	movl	$9, %ecx
	cmpl	$99999999, %r9d                 # imm = 0x5F5E0FF
	ja	.LBB6_21
# %bb.14:
	movl	$8, %ecx
	cmpl	$9999999, %r9d                  # imm = 0x98967F
	ja	.LBB6_21
# %bb.15:
	movl	$7, %ecx
	cmpl	$999999, %r9d                   # imm = 0xF423F
	ja	.LBB6_21
# %bb.16:
	movl	$6, %ecx
	cmpl	$99999, %r9d                    # imm = 0x1869F
	ja	.LBB6_21
# %bb.17:
	movl	$5, %ecx
	cmpl	$9999, %r9d                     # imm = 0x270F
	ja	.LBB6_21
# %bb.18:
	movl	$4, %ecx
	cmpl	$999, %r9d                      # imm = 0x3E7
	ja	.LBB6_21
# %bb.19:
	movl	$3, %ecx
	cmpl	$99, %r9d
	ja	.LBB6_21
# %bb.20:
	cmpl	$10, %r9d
	movl	$1, %ecx
	sbbl	$-1, %ecx
.LBB6_21:
	vpbroadcastb	.LCPI6_1(%rip), %ymm0   # ymm0 = [48,48,48,48,48,48,48,48,48,48,48,48,48,48,48,48,48,48,48,48,48,48,48,48,48,48,48,48,48,48,48,48]
	leal	(%rcx,%rsi), %edx
	leal	4(%rcx,%rsi), %esi
	movl	$1, %r8d
	vmovdqu	%ymm0, (%rax)
	cmpl	$13, %esi
	ja	.LBB6_29
# %bb.22:
	testl	%edx, %edx
	jle	.LBB6_28
# %bb.23:
	xorl	%r8d, %r8d
	jmp	.LBB6_29
.LBB6_24:
	shrl	$31, %eax
	movb	$45, (%rdi)
	movl	$543583849, (%rdi,%rax)         # imm = 0x20666E69
	leaq	3(%rdi,%rax), %rdi
	jmp	.LBB6_59
.LBB6_25:
	movl	$540028464, (%rax)              # imm = 0x20302E30
	incq	%rax
	jmp	.LBB6_58
.LBB6_26:
	movb	%r11b, %r10b
	addl	%r10d, %r9d
	addl	%r9d, %r9d
	leal	(%r9,%r9,4), %r9d
	testl	%r9d, %r9d
	jne	.LBB6_13
.LBB6_27:
	leaq	.L.str.42(%rip), %rdi
	leaq	.L.str.71(%rip), %rsi
	leaq	.L__PRETTY_FUNCTION__._ZN15schubfach_xjb32L12FormatDigitsEPcjib(%rip), %rcx
	movl	$2897, %edx                     # imm = 0xB51
	callq	__assert_fail@PLT
.LBB6_28:
	movl	$2, %r8d
	subl	%edx, %r8d
.LBB6_29:
	movl	%ecx, %edi
	addq	%r8, %rdi
	xorl	%r10d, %r10d
	addq	%rax, %rdi
	cmpl	$10000, %r9d                    # imm = 0x2710
	jb	.LBB6_32
# %bb.30:
	movl	$3518437209, %ebx               # imm = 0xD1B71759
	movl	%r9d, %r8d
	imulq	%r8, %rbx
	leaq	-4(%rdi), %r8
	shrq	$45, %rbx
	imull	$10000, %ebx, %r10d             # imm = 0x2710
	subl	%r10d, %r9d
	movl	$4, %r10d
	je	.LBB6_41
# %bb.31:
	movzwl	%r9w, %r11d
	leaq	_ZL11digit_table(%rip), %r14
	shrl	$2, %r11d
	imull	$5243, %r11d, %r11d             # imm = 0x147B
	shrl	$17, %r11d
	imull	$100, %r11d, %ebp
	subl	%ebp, %r9d
	movzwl	(%r14,%r11,2), %ebp
	movzwl	%r9w, %r9d
	movw	%bp, -4(%rdi)
	movzwl	(%r14,%r9,2), %ebp
	xorl	%r14d, %r14d
	testw	%r9w, %r9w
	cmovnel	%r9d, %r11d
	leaq	_ZZN14dragonbox_warpL21TrailingZeros_2DigitsEjE16TrailingZeros100(%rip), %r9
	sete	%r14b
	movw	%bp, -2(%rdi)
	movsbl	(%r11,%r9), %r9d
	leal	(%r9,%r14,2), %r11d
	cmpl	$100, %ebx
	jae	.LBB6_33
.LBB6_42:
	movl	%ebx, %r9d
	cmpl	$10, %r9d
	jb	.LBB6_39
.LBB6_43:
	cmpl	$100, %r9d
	jae	.LBB6_62
# %bb.44:
	leaq	_ZL11digit_table(%rip), %rbx
	movl	%r9d, %r9d
	movzwl	(%rbx,%r9,2), %ebx
	movw	%bx, -2(%r8)
	cmpl	%r10d, %r11d
	jne	.LBB6_46
# %bb.45:
	leaq	_ZZN14dragonbox_warpL21TrailingZeros_2DigitsEjE16TrailingZeros100(%rip), %r8
	movsbl	(%r9,%r8), %r8d
	addl	%r8d, %r10d
	movl	%r10d, %r11d
	jmp	.LBB6_46
.LBB6_32:
	xorl	%r11d, %r11d
	movl	%r9d, %ebx
	movq	%rdi, %r8
	cmpl	$100, %ebx
	jb	.LBB6_42
.LBB6_33:
	movzwl	%bx, %ebp
	movl	%ebx, %r15d
	movl	%ebp, %r9d
	shrl	$2, %r9d
	imull	$5243, %r9d, %r9d               # imm = 0x147B
	shrl	$17, %r9d
	imull	$100, %r9d, %r14d
	subl	%r14d, %r15d
	leaq	_ZL11digit_table(%rip), %r14
	movzwl	%r15w, %r15d
	movzwl	(%r14,%r15,2), %r12d
	movw	%r12w, -2(%r8)
	cmpl	%r10d, %r11d
	jne	.LBB6_35
# %bb.34:
	leaq	_ZZN14dragonbox_warpL21TrailingZeros_2DigitsEjE16TrailingZeros100(%rip), %r11
	movsbl	(%r15,%r11), %r11d
	addl	%r10d, %r11d
.LBB6_35:
	orl	$2, %r10d
	cmpl	$10000, %ebx                    # imm = 0x2710
	jb	.LBB6_38
# %bb.36:
	shrl	$4, %ebp
	imull	$839, %ebp, %ebx                # imm = 0x347
	imull	$656, %r9d, %ebp                # imm = 0x290
	shrl	$16, %ebp
	shrl	$19, %ebx
	imull	$100, %ebp, %ebp
	subl	%ebp, %r9d
	movzwl	%r9w, %r9d
	movzwl	(%r14,%r9,2), %ebp
	movw	%bp, -4(%r8)
	addq	$-4, %r8
	cmpl	%r10d, %r11d
	jne	.LBB6_40
# %bb.37:
	leaq	_ZZN14dragonbox_warpL21TrailingZeros_2DigitsEjE16TrailingZeros100(%rip), %r10
	movsbl	(%r9,%r10), %r9d
	addl	%r9d, %r11d
	jmp	.LBB6_40
.LBB6_38:
	addq	$-2, %r8
	cmpl	$10, %r9d
	jae	.LBB6_43
.LBB6_39:
	movl	%r9d, %ebx
.LBB6_40:
	orb	$48, %bl
	movb	%bl, -1(%r8)
.LBB6_46:
	movslq	%r11d, %r8
	subq	%r8, %rdi
	subl	%r8d, %ecx
	cmpl	$13, %esi
	ja	.LBB6_50
# %bb.47:
	testl	%edx, %edx
	jle	.LBB6_57
# %bb.48:
	movl	%edx, %esi
	addq	%rsi, %rax
	cmpl	%ecx, %edx
	jge	.LBB6_58
# %bb.49:
	movq	(%rax), %rcx
	incq	%rdi
	movq	%rcx, 1(%rax)
	movb	$46, (%rax)
	jmp	.LBB6_59
.LBB6_58:
	movq	%rax, %rdi
	jmp	.LBB6_59
.LBB6_50:
	movzbl	1(%rax), %r8d
	leaq	1(%rax), %rsi
	movb	%r8b, (%rax)
	cmpl	$1, %ecx
	jne	.LBB6_52
# %bb.51:
	movq	%rsi, %rdi
	jmp	.LBB6_53
.LBB6_52:
	movb	$46, (%rsi)
.LBB6_53:
	movl	$1, %eax
	xorl	%esi, %esi
	leal	-1(%rdx), %ecx
	subl	%edx, %eax
	testl	%edx, %edx
	setle	%sil
	cmovgl	%ecx, %eax
	shll	$9, %esi
	addl	$11109, %esi                    # imm = 0x2B65
	movw	%si, (%rdi)
	cmpl	$9, %eax
	ja	.LBB6_55
# %bb.54:
	orb	$48, %al
	movb	%al, 2(%rdi)
	jmp	.LBB6_3
.LBB6_55:
	cmpl	$100, %eax
	jae	.LBB6_62
# %bb.56:
	leaq	_ZL11digit_table(%rip), %rcx
	movl	%eax, %eax
	movzwl	(%rcx,%rax,2), %eax
	movw	%ax, 2(%rdi)
	addq	$4, %rdi
	jmp	.LBB6_59
.LBB6_41:
	movl	$4, %r11d
	cmpl	$100, %ebx
	jae	.LBB6_33
	jmp	.LBB6_42
.LBB6_57:
	movb	$46, 1(%rax)
.LBB6_59:
	movq	%rdi, %rax
	popq	%rbx
	.cfi_def_cfa_offset 40
	popq	%r12
	.cfi_def_cfa_offset 32
	popq	%r14
	.cfi_def_cfa_offset 24
	popq	%r15
	.cfi_def_cfa_offset 16
	popq	%rbp
	.cfi_def_cfa_offset 8
	vzeroupper
	retq
.LBB6_60:
	.cfi_def_cfa_offset 48
	leaq	.L.str.73(%rip), %rdi
	leaq	.L.str.71(%rip), %rsi
	leaq	.L__PRETTY_FUNCTION__._ZN15schubfach_xjb32L11ToDecimal32Ejj(%rip), %rcx
	movl	$455, %edx                      # imm = 0x1C7
	callq	__assert_fail@PLT
.LBB6_61:
	leaq	.L.str.74(%rip), %rdi
	leaq	.L.str.71(%rip), %rsi
	leaq	.L__PRETTY_FUNCTION__._ZN15schubfach_xjb32L11ToDecimal32Ejj(%rip), %rcx
	movl	$456, %edx                      # imm = 0x1C8
	callq	__assert_fail@PLT
.LBB6_62:
	leaq	.L.str.60(%rip), %rdi
	leaq	.L.str.71(%rip), %rsi
	leaq	.L__PRETTY_FUNCTION__._ZN15schubfach_xjb32L12Utoa_2DigitsEPcj(%rip), %rcx
	movl	$2651, %edx                     # imm = 0xA5B
	vzeroupper
	callq	__assert_fail@PLT
.Lfunc_end6:
	.size	_ZN15schubfach_xjb324FtoaEPcf, .Lfunc_end6-_ZN15schubfach_xjb324FtoaEPcf
	.cfi_endproc
                                        # -- End function
	.section	.rodata.cst32,"aM",@progbits,32
	.p2align	5, 0x0                          # -- Begin function _Z24schubfach_xjb_f64_to_decdPyPi
.LCPI7_0:
	.short	64467                           # 0xfbd3
	.short	64477                           # 0xfbdd
	.short	64527                           # 0xfc0f
	.short	64693                           # 0xfcb5
	.short	64696                           # 0xfcb8
	.short	64706                           # 0xfcc2
	.short	64789                           # 0xfd15
	.short	64995                           # 0xfde3
	.short	65118                           # 0xfe5e
	.short	65188                           # 0xfea4
	.short	65344                           # 0xff40
	.short	65387                           # 0xff6b
	.short	65407                           # 0xff7f
	.short	37                              # 0x25
	.short	130                             # 0x82
	.short	223                             # 0xdf
	.section	.rodata.cst16,"aM",@progbits,16
	.p2align	4, 0x0
.LCPI7_1:
	.short	253                             # 0xfd
	.short	293                             # 0x125
	.short	326                             # 0x146
	.short	346                             # 0x15a
	.short	353                             # 0x161
	.short	429                             # 0x1ad
	.short	522                             # 0x20a
	.short	542                             # 0x21e
	.text
	.globl	_Z24schubfach_xjb_f64_to_decdPyPi
	.p2align	4, 0x90
	.type	_Z24schubfach_xjb_f64_to_decdPyPi,@function
_Z24schubfach_xjb_f64_to_decdPyPi:      # @_Z24schubfach_xjb_f64_to_decdPyPi
	.cfi_startproc
# %bb.0:
	movabsq	$4503599627370496, %rax         # imm = 0x10000000000000
	vmovq	%xmm0, %rcx
	movl	$2868, %edx                     # imm = 0xB34
	leaq	-1(%rax), %r8
	bextrq	%rdx, %rcx, %r9
	andq	%rcx, %r8
	leal	-1075(%r9), %ecx
	movl	%ecx, %edx
	andl	$-65536, %edx                   # imm = 0xFFFF0000
	testq	%r9, %r9
	je	.LBB7_1
# %bb.2:
	orq	%r8, %rax
.LBB7_3:
	pushq	%rbp
	.cfi_def_cfa_offset 16
	pushq	%r15
	.cfi_def_cfa_offset 24
	pushq	%r14
	.cfi_def_cfa_offset 32
	pushq	%r13
	.cfi_def_cfa_offset 40
	pushq	%r12
	.cfi_def_cfa_offset 48
	pushq	%rbx
	.cfi_def_cfa_offset 56
	.cfi_offset %rbx, -56
	.cfi_offset %r12, -48
	.cfi_offset %r13, -40
	.cfi_offset %r14, -32
	.cfi_offset %r15, -24
	.cfi_offset %rbp, -16
	movzwl	%cx, %ebp
	movl	%edx, %ecx
	leaq	(,%rax,4), %r9
	orl	%ebp, %ecx
	imull	$1262611, %ecx, %ecx            # imm = 0x134413
	testq	%r8, %r8
	je	.LBB7_4
.LBB7_5:
	sarl	$22, %ecx
	addl	%ebp, %edx
	leaq	_ZZN3xjbL19ComputePow10_DoubleEiE1g(%rip), %rbx
	imull	$-1741647, %ecx, %r10d          # imm = 0xFFE56CB1
	sarl	$19, %r10d
	leal	1(%r10,%rdx), %r10d
	movl	$292, %edx                      # imm = 0x124
	subl	%ecx, %edx
	shlq	$4, %rdx
	movq	(%rdx,%rbx), %r11
	movq	8(%rdx,%rbx), %rbx
	shlxq	%r10, %r9, %rdx
	mulxq	%rbx, %r14, %r14
	mulxq	%r11, %r15, %rdx
	addq	%r14, %r15
	adcq	$0, %rdx
	xorl	%r14d, %r14d
	testq	$-2, %r15
	movl	$200, %r15d
	setne	%r14b
	orl	%edx, %r14d
	shrq	$2, %rdx
	andl	$7, %r14d
	btl	%r14d, %r15d
	movq	%rdx, %r14
	adcq	$0, %r14
	testq	%r8, %r8
	je	.LBB7_6
.LBB7_7:
	movabsq	$1844674407370955162, %r15      # imm = 0x199999999999999A
	movq	%r9, %r12
	orq	$2, %r12
	mulxq	%r15, %r15, %r15
	shlxq	%r10, %r12, %rdx
	mulxq	%rbx, %r12, %r12
	mulxq	%r11, %rdx, %r13
	addq	%r12, %rdx
	adcq	$0, %r13
	xorl	%r12d, %r12d
	testq	$-2, %rdx
	setne	%r12b
	andl	$1, %eax
	orq	%r13, %r12
	cmpq	$1, %r8
	leaq	(%r15,%r15), %r8
	adcq	$-2, %r9
	shlxq	%r10, %r9, %rdx
	mulxq	%rbx, %r9, %r9
	mulxq	%r11, %rdx, %r10
	addq	%r9, %rdx
	adcq	$0, %r10
	xorl	%r9d, %r9d
	testq	$-2, %rdx
	leaq	(%r8,%r8,4), %rdx
	setne	%r9b
	shlq	$3, %r15
	orq	%r10, %r9
	leaq	(%r15,%r15,4), %r11
	addq	%rax, %r9
	cmpq	%r11, %r9
	leaq	10(%r8,%r8,4), %r9
	cmovaq	%r14, %rdx
	subq	%rax, %r12
	leaq	37(%r15,%r15,4), %rax
	addq	$-3, %r12
	cmpq	%r12, %rax
	cmovaq	%rdx, %r9
	movq	%r9, (%rdi)
	movl	%ecx, (%rsi)
	popq	%rbx
	.cfi_def_cfa_offset 48
	popq	%r12
	.cfi_def_cfa_offset 40
	popq	%r13
	.cfi_def_cfa_offset 32
	popq	%r14
	.cfi_def_cfa_offset 24
	popq	%r15
	.cfi_def_cfa_offset 16
	popq	%rbp
	.cfi_def_cfa_offset 8
	vzeroupper
	retq
.LBB7_1:
	.cfi_restore %rbx
	.cfi_restore %rbp
	.cfi_restore %r12
	.cfi_restore %r13
	.cfi_restore %r14
	.cfi_restore %r15
	movw	$-1074, %cx                     # imm = 0xFBCE
	movq	%r8, %rax
	jmp	.LBB7_3
.LBB7_4:
	.cfi_def_cfa_offset 56
	.cfi_offset %rbx, -56
	.cfi_offset %rbp, -16
	.cfi_offset %r12, -48
	.cfi_offset %r13, -40
	.cfi_offset %r14, -32
	.cfi_offset %r15, -24
	addl	$-524031, %ecx                  # imm = 0xFFF80101
	jmp	.LBB7_5
.LBB7_6:
	vpbroadcastw	%ebp, %ymm0
	vpcmpeqw	.LCPI7_0(%rip), %ymm0, %k1
	vpcmpeqw	.LCPI7_1(%rip), %xmm0, %k0
	xorl	%r15d, %r15d
	cmpl	$811, %ebp                      # imm = 0x32B
	sete	%r15b
	xorl	%r12d, %r12d
	cmpl	$924, %ebp                      # imm = 0x39C
	sete	%r12b
	addq	%r12, %r14
	kmovw	%k1, %r13d
	popcntq	%r13, %r13
	addq	%r15, %r13
	kmovb	%k0, %r15d
	popcntq	%r15, %r15
	addq	%r13, %r15
	addq	%r15, %r14
	jmp	.LBB7_7
.Lfunc_end7:
	.size	_Z24schubfach_xjb_f64_to_decdPyPi, .Lfunc_end7-_Z24schubfach_xjb_f64_to_decdPyPi
	.cfi_endproc
                                        # -- End function
	.globl	_Z24schubfach_xjb_f32_to_decfPjPi # -- Begin function _Z24schubfach_xjb_f32_to_decfPjPi
	.p2align	4, 0x90
	.type	_Z24schubfach_xjb_f32_to_decfPjPi,@function
_Z24schubfach_xjb_f32_to_decfPjPi:      # @_Z24schubfach_xjb_f32_to_decfPjPi
	.cfi_startproc
# %bb.0:
	pushq	%rbp
	.cfi_def_cfa_offset 16
	pushq	%r15
	.cfi_def_cfa_offset 24
	pushq	%r14
	.cfi_def_cfa_offset 32
	pushq	%r13
	.cfi_def_cfa_offset 40
	pushq	%r12
	.cfi_def_cfa_offset 48
	pushq	%rbx
	.cfi_def_cfa_offset 56
	.cfi_offset %rbx, -56
	.cfi_offset %r12, -48
	.cfi_offset %r13, -40
	.cfi_offset %r14, -32
	.cfi_offset %r15, -24
	.cfi_offset %rbp, -16
	vmovd	%xmm0, %eax
	movl	%eax, %r8d
	andl	$2147483647, %eax               # imm = 0x7FFFFFFF
	andl	$8388607, %r8d                  # imm = 0x7FFFFF
	movl	%eax, %ebx
	shrl	$23, %ebx
	cmpl	$8388608, %eax                  # imm = 0x800000
	jb	.LBB8_1
# %bb.2:
	leal	8388608(%r8), %eax
	leal	-150(%rbx), %edx
	imull	$1262611, %edx, %ecx            # imm = 0x134413
	leal	(,%rax,4), %r9d
	testl	%r8d, %r8d
	je	.LBB8_4
.LBB8_5:
	sarl	$22, %ecx
	leaq	_ZZN15schubfach_xjb32L19ComputePow10_SingleEiE1g(%rip), %r11
	xorl	%ebp, %ebp
	imull	$-1741647, %ecx, %r10d          # imm = 0xFFE56CB1
	sarl	$19, %r10d
	leal	1(%rdx,%r10), %r10d
	movl	$31, %edx
	subl	%ecx, %edx
	movq	(%r11,%rdx,8), %r11
	shlxl	%r10d, %r9d, %edx
	mulxq	%r11, %rdx, %r14
	shrq	$33, %rdx
	setne	%bpl
	movl	%r14d, %edx
	andl	$7, %r14d
	shrl	$2, %edx
	orl	%ebp, %r14d
	movl	$200, %ebp
	btl	%r14d, %ebp
	movl	%edx, %ebp
	adcl	$0, %ebp
	testl	%r8d, %r8d
	je	.LBB8_6
.LBB8_7:
	movl	%edx, %edx
	imulq	$1717986919, %rdx, %r15         # imm = 0x66666667
	movl	%r9d, %edx
	orl	$2, %edx
	xorl	%r13d, %r13d
	shlxl	%r10d, %edx, %edx
	mulxq	%r11, %rdx, %r12
	shrq	$34, %r15
	leal	(%r15,%r15), %ebx
	shrq	$33, %rdx
	leal	(%rbx,%rbx,4), %r14d
	setne	%r13b
	andl	$1, %eax
	orl	%r13d, %r12d
	cmpl	$1, %r8d
	adcl	$-2, %r9d
	shlxl	%r10d, %r9d, %edx
	xorl	%r9d, %r9d
	mulxq	%r11, %r8, %rdx
	shrq	$33, %r8
	setne	%r9b
	shll	$3, %r15d
	orl	%r9d, %edx
	leal	(%r15,%r15,4), %r8d
	addl	%eax, %edx
	cmpl	%r8d, %edx
	leal	37(%r15,%r15,4), %edx
	cmoval	%ebp, %r14d
	subl	%eax, %r12d
	leal	10(%rbx,%rbx,4), %eax
	addl	$-3, %r12d
	cmpl	%r12d, %edx
	cmoval	%r14d, %eax
	movl	%eax, (%rdi)
	movl	%ecx, (%rsi)
	popq	%rbx
	.cfi_def_cfa_offset 48
	popq	%r12
	.cfi_def_cfa_offset 40
	popq	%r13
	.cfi_def_cfa_offset 32
	popq	%r14
	.cfi_def_cfa_offset 24
	popq	%r15
	.cfi_def_cfa_offset 16
	popq	%rbp
	.cfi_def_cfa_offset 8
	retq
.LBB8_1:
	.cfi_def_cfa_offset 56
	movl	$-149, %edx
	movl	%r8d, %eax
	imull	$1262611, %edx, %ecx            # imm = 0x134413
	leal	(,%rax,4), %r9d
	testl	%r8d, %r8d
	jne	.LBB8_5
.LBB8_4:
	addl	$-524031, %ecx                  # imm = 0xFFF80101
	jmp	.LBB8_5
.LBB8_6:
	cmpl	$31, %ebx
	sete	%r14b
	cmpl	$214, %ebx
	sete	%r15b
	orb	%r14b, %r15b
	cmpl	$217, %ebx
	sete	%bl
	orb	%r15b, %bl
	movzbl	%bl, %ebx
	addl	%ebx, %ebp
	jmp	.LBB8_7
.Lfunc_end8:
	.size	_Z24schubfach_xjb_f32_to_decfPjPi, .Lfunc_end8-_Z24schubfach_xjb_f32_to_decfPjPi
	.cfi_endproc
                                        # -- End function
	.section	.rodata.cst32,"aM",@progbits,32
	.p2align	5, 0x0                          # -- Begin function _ZN9dragonbox4DtoaEPcd
.LCPI9_0:
	.zero	32,48
	.section	.rodata,"a",@progbits
.LCPI9_1:
	.byte	48                              # 0x30
	.text
	.globl	_ZN9dragonbox4DtoaEPcd
	.p2align	4, 0x90
	.type	_ZN9dragonbox4DtoaEPcd,@function
_ZN9dragonbox4DtoaEPcd:                 # @_ZN9dragonbox4DtoaEPcd
	.cfi_startproc
# %bb.0:
	pushq	%rbp
	.cfi_def_cfa_offset 16
	pushq	%r15
	.cfi_def_cfa_offset 24
	pushq	%r14
	.cfi_def_cfa_offset 32
	pushq	%r12
	.cfi_def_cfa_offset 40
	pushq	%rbx
	.cfi_def_cfa_offset 48
	.cfi_offset %rbx, -48
	.cfi_offset %r12, -40
	.cfi_offset %r14, -32
	.cfi_offset %r15, -24
	.cfi_offset %rbp, -16
	vmovq	%xmm0, %rbx
	movb	$52, %cl
	movq	%rdi, %rax
	bzhiq	%rcx, %rbx, %rdi
	movl	$2868, %ecx                     # imm = 0xB34
	bextrq	%rcx, %rbx, %rsi
	cmpq	$2047, %rsi                     # imm = 0x7FF
	jne	.LBB9_1
# %bb.68:
	testq	%rdi, %rdi
	je	.LBB9_69
# %bb.70:
	movl	$544104814, (%rax)              # imm = 0x206E616E
.LBB9_71:
	addq	$3, %rax
	jmp	.LBB9_72
.LBB9_1:
	shrq	$63, %rbx
	movb	$45, (%rax)
	addq	%rax, %rbx
	movq	%rsi, %rax
	orq	%rdi, %rax
	je	.LBB9_67
# %bb.2:
	callq	_ZN14dragonbox_warpL11ToDecimal64Emm
	movq	%rax, %rcx
	shrq	$32, %rax
                                        # kill: def $edx killed $edx def $rdx
	jne	.LBB9_3
# %bb.10:
	movl	$10, %esi
	cmpl	$999999999, %ecx                # imm = 0x3B9AC9FF
	ja	.LBB9_20
# %bb.11:
	movl	$9, %esi
	cmpl	$99999999, %ecx                 # imm = 0x5F5E0FF
	ja	.LBB9_20
# %bb.12:
	movl	$8, %esi
	cmpl	$9999999, %ecx                  # imm = 0x98967F
	ja	.LBB9_20
# %bb.13:
	movl	$7, %esi
	cmpl	$999999, %ecx                   # imm = 0xF423F
	ja	.LBB9_20
# %bb.14:
	movl	$6, %esi
	cmpl	$99999, %ecx                    # imm = 0x1869F
	ja	.LBB9_20
# %bb.15:
	movl	$5, %esi
	cmpl	$9999, %ecx                     # imm = 0x270F
	ja	.LBB9_20
# %bb.16:
	movl	$4, %esi
	cmpl	$999, %ecx                      # imm = 0x3E7
	ja	.LBB9_20
# %bb.17:
	movl	$3, %esi
	cmpl	$99, %ecx
	ja	.LBB9_20
# %bb.18:
	cmpl	$10, %ecx
	movl	$1, %esi
	jmp	.LBB9_19
.LBB9_69:
	shrq	$63, %rbx
	movb	$45, (%rax)
	movl	$543583849, (%rax,%rbx)         # imm = 0x20666E69
	leaq	3(%rax,%rbx), %rax
	jmp	.LBB9_72
.LBB9_67:
	movl	$540028464, (%rbx)              # imm = 0x20302E30
	addq	$3, %rbx
	movq	%rbx, %rax
	jmp	.LBB9_72
.LBB9_3:
	movl	$17, %esi
	movabsq	$9999999999999999, %rax         # imm = 0x2386F26FC0FFFF
	cmpq	%rax, %rcx
	ja	.LBB9_20
# %bb.4:
	movl	$16, %esi
	movabsq	$999999999999999, %rax          # imm = 0x38D7EA4C67FFF
	cmpq	%rax, %rcx
	ja	.LBB9_20
# %bb.5:
	movl	$15, %esi
	movabsq	$99999999999999, %rax           # imm = 0x5AF3107A3FFF
	cmpq	%rax, %rcx
	ja	.LBB9_20
# %bb.6:
	movq	%rcx, %rax
	shrq	$13, %rax
	movl	$14, %esi
	cmpq	$1220703124, %rax               # imm = 0x48C27394
	ja	.LBB9_20
# %bb.7:
	movq	%rcx, %rax
	shrq	$12, %rax
	movl	$13, %esi
	cmpq	$244140624, %rax                # imm = 0xE8D4A50
	ja	.LBB9_20
# %bb.8:
	movq	%rcx, %rax
	shrq	$11, %rax
	movl	$12, %esi
	cmpq	$48828124, %rax                 # imm = 0x2E90EDC
	ja	.LBB9_20
# %bb.9:
	movq	%rcx, %rax
	shrq	$10, %rax
	movl	$10, %esi
	cmpq	$9765625, %rax                  # imm = 0x9502F9
.LBB9_19:
	sbbl	$-1, %esi
.LBB9_20:
	vpbroadcastb	.LCPI9_1(%rip), %ymm0   # ymm0 = [48,48,48,48,48,48,48,48,48,48,48,48,48,48,48,48,48,48,48,48,48,48,48,48,48,48,48,48,48,48,48,48]
	leal	6(%rsi,%rdx), %r8d
	leal	(%rsi,%rdx), %edi
	movl	$1, %edx
	vmovdqu	%ymm0, (%rbx)
	cmpl	$23, %r8d
	ja	.LBB9_24
# %bb.21:
	testl	%edi, %edi
	jle	.LBB9_23
# %bb.22:
	xorl	%edx, %edx
	jmp	.LBB9_24
.LBB9_23:
	movl	$2, %edx
	subl	%edi, %edx
.LBB9_24:
	movl	%esi, %eax
	addq	%rdx, %rax
	xorl	%edx, %edx
	addq	%rbx, %rax
	cmpq	$100000000, %rcx                # imm = 0x5F5E100
	jb	.LBB9_25
# %bb.26:
	movabsq	$-6067343680855748867, %r9      # imm = 0xABCC77118461CEFD
	movq	%rcx, %rdx
	leaq	-8(%rax), %r10
	mulxq	%r9, %r11, %r11
	shrq	$26, %r11
	imull	$100000000, %r11d, %edx         # imm = 0x5F5E100
	subl	%edx, %ecx
	movl	$8, %edx
	je	.LBB9_27
# %bb.28:
	movl	$3518437209, %r14d              # imm = 0xD1B71759
	movl	%ecx, %r9d
	imulq	%r9, %r14
	imulq	$1125899907, %r9, %r9           # imm = 0x431BDE83
	shrq	$45, %r14
	shrq	$50, %r9
	movzwl	%r14w, %r15d
	imull	$10000, %r14d, %ebp             # imm = 0x2710
	shrl	$2, %r15d
	imull	$5243, %r15d, %r15d             # imm = 0x147B
	shrl	$17, %r15d
	imull	$100, %r15d, %r15d
	subl	%r15d, %r14d
	subl	%ebp, %ecx
	movzwl	%r14w, %r15d
	leaq	_ZL11digit_table(%rip), %r14
	movzwl	(%r14,%r9,2), %ebp
	movw	%bp, -8(%rax)
	movzwl	(%r14,%r15,2), %ebp
	movw	%bp, -6(%rax)
	je	.LBB9_29
# %bb.30:
	movzwl	%cx, %r9d
	shrl	$2, %r9d
	imull	$5243, %r9d, %r9d               # imm = 0x147B
	shrl	$17, %r9d
	imull	$100, %r9d, %ebp
	subl	%ebp, %ecx
	movzwl	(%r14,%r9,2), %ebp
	movzwl	%cx, %ecx
	movw	%bp, -4(%rax)
	movzwl	(%r14,%rcx,2), %ebp
	xorl	%r14d, %r14d
	testw	%cx, %cx
	cmovnel	%ecx, %r9d
	leaq	_ZZN14dragonbox_warpL21TrailingZeros_2DigitsEjE16TrailingZeros100(%rip), %rcx
	sete	%r14b
	movw	%bp, -2(%rax)
	movsbl	(%r9,%rcx), %ecx
	leal	(%rcx,%r14,2), %r9d
	cmpl	$10000, %r11d                   # imm = 0x2710
	jae	.LBB9_33
	jmp	.LBB9_32
.LBB9_25:
	xorl	%r9d, %r9d
	movq	%rcx, %r11
	movq	%rax, %r10
	cmpl	$10000, %r11d                   # imm = 0x2710
	jae	.LBB9_33
	jmp	.LBB9_32
.LBB9_27:
	movl	$8, %r9d
	cmpl	$10000, %r11d                   # imm = 0x2710
	jb	.LBB9_32
.LBB9_33:
	movl	$3518437209, %r14d              # imm = 0xD1B71759
	movl	%r11d, %ecx
	imulq	%rcx, %r14
	leaq	-4(%r10), %rcx
	shrq	$45, %r14
	imull	$10000, %r14d, %ebp             # imm = 0x2710
	subl	%ebp, %r11d
	je	.LBB9_36
# %bb.34:
	movzwl	%r11w, %ebp
	leaq	_ZL11digit_table(%rip), %r12
	shrl	$2, %ebp
	imull	$5243, %ebp, %r15d              # imm = 0x147B
	shrl	$17, %r15d
	imull	$100, %r15d, %ebp
	subl	%ebp, %r11d
	movzwl	(%r12,%r15,2), %ebp
	movzwl	%r11w, %r11d
	movw	%bp, -4(%r10)
	movzwl	(%r12,%r11,2), %ebp
	movw	%bp, -2(%r10)
	cmpl	%edx, %r9d
	jne	.LBB9_39
# %bb.35:
	xorl	%r9d, %r9d
	testl	%r11d, %r11d
	leaq	_ZZN14dragonbox_warpL21TrailingZeros_2DigitsEjE16TrailingZeros100(%rip), %r10
	cmovnel	%r11d, %r15d
	sete	%r9b
	movsbl	(%r15,%r10), %r10d
	leal	(%rdx,%r9,2), %r9d
	addl	%r10d, %r9d
	jmp	.LBB9_39
.LBB9_36:
	cmpl	%edx, %r9d
	jne	.LBB9_38
# %bb.37:
	movl	%edx, %r9d
	orl	$4, %r9d
	jmp	.LBB9_39
.LBB9_29:
	xorl	%ecx, %ecx
	testl	%r15d, %r15d
	leaq	_ZZN14dragonbox_warpL21TrailingZeros_2DigitsEjE16TrailingZeros100(%rip), %r14
	cmovnel	%r15d, %r9d
	sete	%cl
	movsbl	(%r9,%r14), %r9d
	leal	4(%r9,%rcx,2), %r9d
	cmpl	$10000, %r11d                   # imm = 0x2710
	jae	.LBB9_33
.LBB9_32:
	movl	%r11d, %r14d
	movq	%r10, %rcx
	cmpl	$100, %r14d
	jae	.LBB9_41
	jmp	.LBB9_48
.LBB9_38:
	movl	$808464432, (%rcx)              # imm = 0x30303030
.LBB9_39:
	orl	$4, %edx
	cmpl	$100, %r14d
	jb	.LBB9_48
.LBB9_41:
	movl	%r14d, %r12d
	imulq	$1374389535, %r12, %r10         # imm = 0x51EB851F
	movl	%r14d, %r11d
	leaq	_ZL11digit_table(%rip), %r15
	shrq	$37, %r10
	imull	$100, %r10d, %ebp
	subl	%ebp, %r11d
	movzwl	(%r15,%r11,2), %ebp
	movw	%bp, -2(%rcx)
	cmpl	%edx, %r9d
	jne	.LBB9_43
# %bb.42:
	movl	%r11d, %r9d
	leaq	_ZZN14dragonbox_warpL21TrailingZeros_2DigitsEjE16TrailingZeros100(%rip), %r11
	movsbl	(%r9,%r11), %r9d
	addl	%edx, %r9d
.LBB9_43:
	leal	2(%rdx), %r11d
	cmpl	$10000, %r14d                   # imm = 0x2710
	jb	.LBB9_44
# %bb.45:
	movzwl	%r10w, %ebp
	movl	$3518437209, %r14d              # imm = 0xD1B71759
	shrl	$2, %ebp
	imulq	%r12, %r14
	imull	$5243, %ebp, %ebp               # imm = 0x147B
	shrq	$45, %r14
	shrl	$17, %ebp
	imull	$100, %ebp, %ebp
	subl	%ebp, %r10d
	movzwl	%r10w, %r10d
	movzwl	(%r15,%r10,2), %ebp
	movw	%bp, -4(%rcx)
	cmpl	%r11d, %r9d
	jne	.LBB9_47
# %bb.46:
	leaq	_ZZN14dragonbox_warpL21TrailingZeros_2DigitsEjE16TrailingZeros100(%rip), %r11
	movsbl	(%r10,%r11), %r10d
	addl	%r10d, %r9d
.LBB9_47:
	addq	$-4, %rcx
	addl	$4, %edx
.LBB9_48:
	movl	%r14d, %r10d
	movl	%edx, %r11d
	cmpl	$10, %r10d
	jb	.LBB9_52
.LBB9_50:
	movl	%r10d, %edx
	leaq	_ZL11digit_table(%rip), %r10
	movzwl	(%r10,%rdx,2), %r10d
	movw	%r10w, -2(%rcx)
	cmpl	%r11d, %r9d
	jne	.LBB9_53
# %bb.51:
	leaq	_ZZN14dragonbox_warpL21TrailingZeros_2DigitsEjE16TrailingZeros100(%rip), %rcx
	movsbl	(%rdx,%rcx), %ecx
	addl	%ecx, %r11d
	movl	%r11d, %r9d
	jmp	.LBB9_53
.LBB9_44:
	addq	$-2, %rcx
	cmpl	$10, %r10d
	jae	.LBB9_50
.LBB9_52:
	orb	$48, %r10b
	movb	%r10b, -1(%rcx)
.LBB9_53:
	movslq	%r9d, %rcx
	subq	%rcx, %rax
	subl	%ecx, %esi
	cmpl	$23, %r8d
	ja	.LBB9_59
# %bb.54:
	testl	%edi, %edi
	jle	.LBB9_55
# %bb.56:
	movl	%edi, %ecx
	addq	%rcx, %rbx
	cmpl	%esi, %edi
	jge	.LBB9_58
# %bb.57:
	vmovdqu	(%rbx), %xmm0
	incq	%rax
	vmovdqu	%xmm0, 1(%rbx)
	movb	$46, (%rbx)
	jmp	.LBB9_72
.LBB9_59:
	movzbl	1(%rbx), %edx
	leaq	1(%rbx), %rcx
	movb	%dl, (%rbx)
	cmpl	$1, %esi
	jne	.LBB9_61
# %bb.60:
	movq	%rcx, %rax
	jmp	.LBB9_62
.LBB9_61:
	movb	$46, (%rcx)
.LBB9_62:
	movl	$1, %ecx
	xorl	%esi, %esi
	leal	-1(%rdi), %edx
	subl	%edi, %ecx
	testl	%edi, %edi
	setle	%sil
	cmovgl	%edx, %ecx
	shll	$9, %esi
	addl	$11109, %esi                    # imm = 0x2B65
	movw	%si, (%rax)
	cmpl	$9, %ecx
	ja	.LBB9_64
# %bb.63:
	orb	$48, %cl
	movb	%cl, 2(%rax)
	jmp	.LBB9_71
.LBB9_64:
	cmpl	$99, %ecx
	ja	.LBB9_66
# %bb.65:
	leaq	_ZL11digit_table(%rip), %rdx
	movl	%ecx, %ecx
	movzwl	(%rdx,%rcx,2), %ecx
	movw	%cx, 2(%rax)
	addq	$4, %rax
	jmp	.LBB9_72
.LBB9_55:
	movb	$46, 1(%rbx)
	jmp	.LBB9_72
.LBB9_58:
	movw	$12334, (%rbx)                  # imm = 0x302E
	addq	$2, %rbx
	movq	%rbx, %rax
	jmp	.LBB9_72
.LBB9_66:
	movl	%ecx, %edx
	imulq	$1374389535, %rdx, %rdx         # imm = 0x51EB851F
	shrq	$37, %rdx
	imull	$100, %edx, %esi
	addb	$48, %dl
	movb	%dl, 2(%rax)
	leaq	_ZL11digit_table(%rip), %rdx
	subl	%esi, %ecx
	movzwl	(%rdx,%rcx,2), %ecx
	movw	%cx, 3(%rax)
	addq	$5, %rax
.LBB9_72:
	popq	%rbx
	.cfi_def_cfa_offset 40
	popq	%r12
	.cfi_def_cfa_offset 32
	popq	%r14
	.cfi_def_cfa_offset 24
	popq	%r15
	.cfi_def_cfa_offset 16
	popq	%rbp
	.cfi_def_cfa_offset 8
	vzeroupper
	retq
.Lfunc_end9:
	.size	_ZN9dragonbox4DtoaEPcd, .Lfunc_end9-_ZN9dragonbox4DtoaEPcd
	.cfi_endproc
                                        # -- End function
	.globl	_Z20dragonbox_f64_to_decdPyPi   # -- Begin function _Z20dragonbox_f64_to_decdPyPi
	.p2align	4, 0x90
	.type	_Z20dragonbox_f64_to_decdPyPi,@function
_Z20dragonbox_f64_to_decdPyPi:          # @_Z20dragonbox_f64_to_decdPyPi
	.cfi_startproc
# %bb.0:
	pushq	%r14
	.cfi_def_cfa_offset 16
	pushq	%rbx
	.cfi_def_cfa_offset 24
	pushq	%rax
	.cfi_def_cfa_offset 32
	.cfi_offset %rbx, -24
	.cfi_offset %r14, -16
	vmovq	%xmm0, %rax
	movb	$52, %cl
	movq	%rdi, %r14
	movq	%rsi, %rbx
	bzhiq	%rcx, %rax, %rdi
	movl	$2868, %ecx                     # imm = 0xB34
	bextrq	%rcx, %rax, %rsi
	callq	_ZN14dragonbox_warpL11ToDecimal64Emm
	movq	%rax, (%r14)
	movl	%edx, (%rbx)
	addq	$8, %rsp
	.cfi_def_cfa_offset 24
	popq	%rbx
	.cfi_def_cfa_offset 16
	popq	%r14
	.cfi_def_cfa_offset 8
	retq
.Lfunc_end10:
	.size	_Z20dragonbox_f64_to_decdPyPi, .Lfunc_end10-_Z20dragonbox_f64_to_decdPyPi
	.cfi_endproc
                                        # -- End function
	.p2align	4, 0x90                         # -- Begin function _ZN14dragonbox_warpL11ToDecimal64Emm
	.type	_ZN14dragonbox_warpL11ToDecimal64Emm,@function
_ZN14dragonbox_warpL11ToDecimal64Emm:   # @_ZN14dragonbox_warpL11ToDecimal64Emm
	.cfi_startproc
# %bb.0:
	testq	%rsi, %rsi
	je	.LBB11_38
# %bb.1:
	movabsq	$4503599627370496, %rax         # imm = 0x10000000000000
	leal	-1075(%rsi), %r8d
	orq	%rdi, %rax
	testq	%rdi, %rdi
	jne	.LBB11_7
# %bb.2:
	cmpq	$1, %rsi
	je	.LBB11_7
# %bb.3:
	imull	$1262611, %r8d, %ecx            # imm = 0x134413
	movl	$292, %eax                      # imm = 0x124
	leaq	_ZZN14dragonbox_warpL19ComputePow10_DoubleEiE5Pow10(%rip), %rdx
	xorl	%r9d, %r9d
	addl	$-524031, %ecx                  # imm = 0xFFF80101
	sarl	$22, %ecx
	subl	%ecx, %eax
	imull	$-1741647, %ecx, %esi           # imm = 0xFFE56CB1
	shlq	$4, %rax
	movq	(%rax,%rdx), %rdi
	sarl	$19, %esi
	addl	%r8d, %esi
	movq	%rdi, %rax
	shrq	$54, %rax
	movq	%rdi, %rdx
	movq	%rdi, %r11
	shrq	$53, %r11
	subq	%rax, %rdx
	movb	$11, %al
	addq	%rdi, %r11
	subb	%sil, %al
	shrxq	%rax, %rdx, %r10
	shrxq	%rax, %r11, %rdx
	movl	%r8d, %eax
	andl	$-2, %eax
	cmpl	$2, %eax
	movabsq	$-3689348814741910323, %rax     # imm = 0xCCCCCCCCCCCCCCCD
	mulxq	%rax, %rax, %rax
	setne	%r9b
	addq	%r10, %r9
	shrq	$3, %rax
	leaq	(%rax,%rax), %rdx
	leaq	(%rdx,%rdx,4), %rdx
	cmpq	%r9, %rdx
	jae	.LBB11_27
# %bb.4:
	movb	$10, %al
	subb	%sil, %al
	shrxq	%rax, %rdi, %rax
	incq	%rax
	movq	%rax, %rdx
	shrq	%rdx
	cmpl	$-77, %r8d
	jne	.LBB11_28
# %bb.5:
	shlq	$62, %rax
	sarq	$63, %rax
	addq	%rdx, %rax
	movl	%ecx, %edx
	retq
.LBB11_7:
	movq	%rax, %rdi
.LBB11_8:
	pushq	%rbp
	.cfi_def_cfa_offset 16
	pushq	%r15
	.cfi_def_cfa_offset 24
	pushq	%r14
	.cfi_def_cfa_offset 32
	pushq	%r12
	.cfi_def_cfa_offset 40
	pushq	%rbx
	.cfi_def_cfa_offset 48
	.cfi_offset %rbx, -48
	.cfi_offset %r12, -40
	.cfi_offset %r14, -32
	.cfi_offset %r15, -24
	.cfi_offset %rbp, -16
	imull	$1262611, %r8d, %ecx            # imm = 0x134413
	movl	$2, %eax
	leaq	_ZZN14dragonbox_warpL19ComputePow10_DoubleEiE5Pow10(%rip), %rdx
	leaq	1(%rdi,%rdi), %r15
	sarl	$22, %ecx
	subl	%ecx, %eax
	leal	-2(%rcx), %r9d
	imull	$1741647, %eax, %r10d           # imm = 0x1A934F
	movl	$294, %eax                      # imm = 0x126
	subl	%ecx, %eax
	shlq	$4, %rax
	movq	(%rax,%rdx), %r11
	movq	8(%rax,%rdx), %rsi
	sarl	$19, %r10d
	addl	%r8d, %r10d
	movl	%r10d, %eax
	shlxq	%r10, %r15, %rdx
	notb	%al
	shrxq	%rax, %r11, %rbx
	mulxq	%r11, %rax, %r12
	mulxq	%rsi, %rdx, %rdx
	addq	%rax, %rdx
	movabsq	$2361183241434822607, %rax      # imm = 0x20C49BA5E353F7CF
	adcq	$0, %r12
	movq	%r12, %rdx
	shrq	$3, %rdx
	mulxq	%rax, %rax, %rax
	shrq	$4, %rax
	imull	$-1000, %eax, %r14d             # imm = 0xFC18
	addl	%r12d, %r14d
	cmpl	%ebx, %r14d
	jae	.LBB11_14
# %bb.9:
	testb	$1, %dil
	je	.LBB11_31
# %bb.10:
	cmpl	$-2, %r8d
	jl	.LBB11_31
# %bb.11:
	testl	%r14d, %r14d
	jne	.LBB11_31
# %bb.12:
	cmpl	$10, %r8d
	jge	.LBB11_29
.LBB11_13:
	decq	%rax
	movl	$1000, %r14d                    # imm = 0x3E8
	jmp	.LBB11_22
.LBB11_14:
	jne	.LBB11_22
# %bb.15:
	leaq	-1(%rdi,%rdi), %r14
	cmpl	$-2, %r8d
	jl	.LBB11_20
# %bb.16:
	movl	%edi, %edx
	andl	$1, %edx
	jne	.LBB11_20
# %bb.17:
	cmpl	$10, %r8d
	jl	.LBB11_31
# %bb.18:
	cmpl	$86, %r8d
	ja	.LBB11_20
# %bb.19:
	movl	%r9d, %edx
	shlq	$4, %rdx
	leaq	_ZZN14dragonbox_warpL14MultipleOfPow5EmiE4Mod5(%rip), %r15
	movq	(%rdx,%r15), %r12
	imulq	%r14, %r12
	cmpq	8(%rdx,%r15), %r12
	jbe	.LBB11_31
.LBB11_20:
	movq	%r14, %r15
	movq	%rsi, %rdx
	mulxq	%r14, %rdx, %rdx
	imulq	%r11, %r15
	movb	$64, %bpl
	subb	%r10b, %bpl
	movzbl	%bpl, %r14d
	addq	%r15, %rdx
	btq	%r14, %rdx
	jb	.LBB11_31
# %bb.21:
	movl	%ebx, %r14d
.LBB11_22:
	shrl	%ebx
	leaq	(%rax,%rax,4), %rax
	subl	%ebx, %r14d
	leal	50(%r14), %edx
	imulq	$1374389535, %rdx, %rbx         # imm = 0x51EB851F
	shrq	$37, %rbx
	imull	$100, %ebx, %ebp
	leaq	(%rbx,%rax,2), %rax
	cmpl	%ebp, %edx
	jne	.LBB11_32
# %bb.23:
	addq	%rdi, %rdi
	movq	%rsi, %rdx
	movb	$64, %sil
	imulq	%rdi, %r11
	mulxq	%rdi, %rdx, %rdx
	subb	%r10b, %sil
	movzbl	%sil, %esi
	addq	%r11, %rdx
	btq	%rsi, %rdx
	setb	%dl
	testb	$1, %r14b
	sete	%sil
	xorb	%dl, %sil
	je	.LBB11_33
# %bb.24:
	testb	$1, %bl
	je	.LBB11_32
# %bb.25:
	cmpl	$-5, %r8d
	jg	.LBB11_34
# %bb.26:
	subl	%r8d, %r9d
	cmpl	$63, %r9d
	setl	%dl
	incb	%r9b
	bzhiq	%r9, %rdi, %rsi
	sete	%sil
	testb	%sil, %dl
	je	.LBB11_32
	jmp	.LBB11_33
.LBB11_27:
	.cfi_def_cfa_offset 8
	.cfi_restore %rbx
	.cfi_restore %rbp
	.cfi_restore %r12
	.cfi_restore %r14
	.cfi_restore %r15
	incl	%ecx
	movl	%ecx, %edx
	retq
.LBB11_28:
	cmpq	%r9, %rdx
	adcq	$0, %rdx
	movq	%rdx, %rax
	movl	%ecx, %edx
	retq
.LBB11_29:
	.cfi_def_cfa_offset 48
	.cfi_offset %rbx, -48
	.cfi_offset %rbp, -16
	.cfi_offset %r12, -40
	.cfi_offset %r14, -32
	.cfi_offset %r15, -24
	cmpl	$86, %r8d
	ja	.LBB11_31
# %bb.30:
	movl	%r9d, %edx
	shlq	$4, %rdx
	leaq	_ZZN14dragonbox_warpL14MultipleOfPow5EmiE4Mod5(%rip), %r14
	imulq	(%rdx,%r14), %r15
	cmpq	8(%rdx,%r14), %r15
	jbe	.LBB11_13
.LBB11_31:
	incl	%ecx
	jmp	.LBB11_32
.LBB11_34:
	cmpl	$10, %r8d
	jge	.LBB11_36
.LBB11_33:
	decq	%rax
.LBB11_32:
	popq	%rbx
	.cfi_def_cfa_offset 40
	popq	%r12
	.cfi_def_cfa_offset 32
	popq	%r14
	.cfi_def_cfa_offset 24
	popq	%r15
	.cfi_def_cfa_offset 16
	popq	%rbp
	.cfi_def_cfa_offset 8
	.cfi_restore %rbx
	.cfi_restore %r12
	.cfi_restore %r14
	.cfi_restore %r15
	.cfi_restore %rbp
	movl	%ecx, %edx
	retq
.LBB11_36:
	.cfi_def_cfa_offset 48
	.cfi_offset %rbx, -48
	.cfi_offset %rbp, -16
	.cfi_offset %r12, -40
	.cfi_offset %r14, -32
	.cfi_offset %r15, -24
	cmpl	$86, %r8d
	ja	.LBB11_32
# %bb.37:
	movl	%r9d, %edx
	shlq	$4, %rdx
	leaq	_ZZN14dragonbox_warpL14MultipleOfPow5EmiE4Mod5(%rip), %rsi
	imulq	(%rdx,%rsi), %rdi
	cmpq	8(%rdx,%rsi), %rdi
	ja	.LBB11_32
	jmp	.LBB11_33
.LBB11_38:
	.cfi_def_cfa_offset 8
	.cfi_restore %rbx
	.cfi_restore %rbp
	.cfi_restore %r12
	.cfi_restore %r14
	.cfi_restore %r15
	movl	$-1074, %r8d                    # imm = 0xFBCE
	jmp	.LBB11_8
.Lfunc_end11:
	.size	_ZN14dragonbox_warpL11ToDecimal64Emm, .Lfunc_end11-_ZN14dragonbox_warpL11ToDecimal64Emm
	.cfi_endproc
                                        # -- End function
	.globl	d2s_buffered_n                  # -- Begin function d2s_buffered_n
	.p2align	4, 0x90
	.type	d2s_buffered_n,@function
d2s_buffered_n:                         # @d2s_buffered_n
	.cfi_startproc
# %bb.0:
	pushq	%rbp
	.cfi_def_cfa_offset 16
	pushq	%r15
	.cfi_def_cfa_offset 24
	pushq	%r14
	.cfi_def_cfa_offset 32
	pushq	%r13
	.cfi_def_cfa_offset 40
	pushq	%r12
	.cfi_def_cfa_offset 48
	pushq	%rbx
	.cfi_def_cfa_offset 56
	pushq	%rax
	.cfi_def_cfa_offset 64
	.cfi_offset %rbx, -56
	.cfi_offset %r12, -48
	.cfi_offset %r13, -40
	.cfi_offset %r14, -32
	.cfi_offset %r15, -24
	.cfi_offset %rbp, -16
	vmovq	%xmm0, %rbx
	movb	$52, %al
	movq	%rbx, %rsi
	shrq	$52, %rsi
	bzhiq	%rax, %rbx, %rax
	andl	$2047, %esi                     # imm = 0x7FF
	cmpl	$2047, %esi                     # imm = 0x7FF
	jne	.LBB12_1
# %bb.7:
	testq	%rax, %rax
	je	.LBB12_3
# %bb.8:
	movb	$78, 2(%rdi)
	movw	$24910, (%rdi)                  # imm = 0x614E
	movl	$3, %ebx
	jmp	.LBB12_55
.LBB12_1:
	testq	%rax, %rax
	jne	.LBB12_10
# %bb.2:
	testl	%esi, %esi
	jne	.LBB12_10
.LBB12_3:
	testq	%rbx, %rbx
	js	.LBB12_4
# %bb.5:
	shrq	$63, %rbx
	addq	%rbx, %rdi
	cmpl	$2047, %esi                     # imm = 0x7FF
	jne	.LBB12_9
.LBB12_6:
	movabsq	$8751735898823355977, %rax      # imm = 0x7974696E69666E49
	orl	$8, %ebx
	movq	%rax, (%rdi)
	jmp	.LBB12_55
.LBB12_10:
	leal	-1076(%rsi), %ecx
	cmpl	$-53, %ecx
	jb	.LBB12_14
# %bb.11:
	movabsq	$4503599627370495, %rcx         # imm = 0xFFFFFFFFFFFFF
	movl	$1075, %edx                     # imm = 0x433
	leaq	1(%rcx,%rax), %rcx
	subl	%esi, %edx
	bzhiq	%rdx, %rcx, %r8
	je	.LBB12_12
.LBB12_14:
	movq	%rdi, %r14
	movq	%rax, %rdi
                                        # kill: def $esi killed $esi killed $rsi
	callq	_ZL3d2dmj
	movq	%rax, %rcx
	movq	%r14, %rdi
	movl	%edx, %eax
.LBB12_15:
	xorl	%esi, %esi
	testq	%rbx, %rbx
	jns	.LBB12_17
# %bb.16:
	movl	$1, %esi
	movb	$45, (%rdi)
.LBB12_17:
	movabsq	$100000000000000000, %rdx       # imm = 0x16345785D8A0000
	cmpq	%rdx, %rcx
	jae	.LBB12_56
# %bb.18:
	movl	$17, %r9d
	movabsq	$9999999999999999, %rdx         # imm = 0x2386F26FC0FFFF
	movq	%rsi, (%rsp)                    # 8-byte Spill
	movl	%esi, %esi
	cmpq	%rdx, %rcx
	ja	.LBB12_35
# %bb.19:
	movl	$16, %r9d
	movabsq	$999999999999999, %rdx          # imm = 0x38D7EA4C67FFF
	cmpq	%rdx, %rcx
	ja	.LBB12_35
# %bb.20:
	movl	$15, %r9d
	movabsq	$99999999999999, %rdx           # imm = 0x5AF3107A3FFF
	cmpq	%rdx, %rcx
	ja	.LBB12_35
# %bb.21:
	movq	%rcx, %rdx
	shrq	$13, %rdx
	movl	$14, %r9d
	cmpq	$1220703124, %rdx               # imm = 0x48C27394
	ja	.LBB12_35
# %bb.22:
	movq	%rcx, %rdx
	shrq	$12, %rdx
	movl	$13, %r9d
	cmpq	$244140624, %rdx                # imm = 0xE8D4A50
	ja	.LBB12_35
# %bb.23:
	movq	%rcx, %rdx
	shrq	$11, %rdx
	movl	$12, %r9d
	cmpq	$48828124, %rdx                 # imm = 0x2E90EDC
	ja	.LBB12_35
# %bb.24:
	movq	%rcx, %rdx
	shrq	$10, %rdx
	movl	$11, %r9d
	cmpq	$9765624, %rdx                  # imm = 0x9502F8
	jbe	.LBB12_25
.LBB12_35:
	movabsq	$-6067343680855748867, %r10     # imm = 0xABCC77118461CEFD
	movq	%rcx, %rdx
	leaq	_ZL11digit_table(%rip), %r12
	leaq	(%rdi,%rsi), %r14
	movl	%r9d, %r15d
	mulxq	%r10, %r10, %r10
	shrq	$26, %r10
	imull	$-100000000, %r10d, %edx        # imm = 0xFA0A1F00
	addl	%ecx, %edx
	movl	$3518437209, %ecx               # imm = 0xD1B71759
	imulq	%rdx, %rcx
	shrq	$45, %rcx
	imull	$10000, %ecx, %r11d             # imm = 0x2710
	subl	%r11d, %edx
	imulq	$429497, %rcx, %r11             # imm = 0x68DB9
	shrq	$32, %r11
	imull	$10000, %r11d, %r11d            # imm = 0x2710
	subl	%r11d, %ecx
	imull	$5243, %edx, %r11d              # imm = 0x147B
	shrl	$19, %r11d
	imull	$100, %r11d, %ebx
	subl	%ebx, %edx
	imull	$5243, %ecx, %ebx               # imm = 0x147B
	movzwl	%dx, %edx
	movzwl	(%r12,%rdx,2), %edx
	shrl	$19, %ebx
	imull	$100, %ebx, %ebp
	movw	%dx, -1(%r15,%r14)
	subl	%ebp, %ecx
	movzwl	(%r12,%r11,2), %edx
	movzwl	%cx, %ecx
	movw	%dx, -3(%r15,%r14)
	movl	$8, %edx
	movzwl	(%r12,%rcx,2), %ecx
	movw	%cx, -5(%r15,%r14)
	movzwl	(%r12,%rbx,2), %ecx
	movw	%cx, -7(%r15,%r14)
	movq	%r10, %rcx
.LBB12_36:
	movl	%r9d, %r10d
	cmpl	$10000, %ecx                    # imm = 0x2710
	jb	.LBB12_37
# %bb.38:
	leaq	(%rdi,%rsi), %r11
	movl	$3518437209, %r14d              # imm = 0xD1B71759
	leaq	_ZL11digit_table(%rip), %r15
	leaq	(%r10,%r11), %r8
	.p2align	4, 0x90
.LBB12_39:                              # =>This Inner Loop Header: Depth=1
	movl	%ecx, %r11d
	imulq	%r14, %r11
	movq	%r8, %rbx
	shrq	$45, %r11
	imull	$-10000, %r11d, %r12d           # imm = 0xD8F0
	addl	%ecx, %r12d
	imulq	$1374389535, %r12, %r13         # imm = 0x51EB851F
	shrq	$37, %r13
	imull	$100, %r13d, %ebp
	subl	%ebp, %r12d
	movl	%edx, %ebp
	subq	%rbp, %rbx
	addl	$4, %edx
	movzwl	(%r15,%r12,2), %ebp
	movw	%bp, -1(%rbx)
	movzwl	(%r15,%r13,2), %ebp
	movw	%bp, -3(%rbx)
	cmpl	$99999999, %ecx                 # imm = 0x5F5E0FF
	movl	%r11d, %ecx
	ja	.LBB12_39
# %bb.40:
	cmpl	$100, %r11d
	jb	.LBB12_42
.LBB12_41:
	movzwl	%r11w, %ecx
	leaq	_ZL11digit_table(%rip), %rbx
	shrl	$2, %ecx
	imull	$5243, %ecx, %ecx               # imm = 0x147B
	shrl	$17, %ecx
	imull	$100, %ecx, %r8d
	subl	%r8d, %r11d
	movzwl	%r11w, %r8d
	movzwl	(%rbx,%r8,2), %r8d
	addq	%rdi, %r10
	addq	%rsi, %r10
	movl	%edx, %r11d
	notq	%r11
	orl	$2, %edx
	movw	%r8w, (%r11,%r10)
	movl	%ecx, %r11d
.LBB12_42:
	cmpl	$10, %r11d
	jb	.LBB12_44
# %bb.43:
	movl	%r11d, %ecx
	movq	(%rsp), %r11                    # 8-byte Reload
	leaq	(%rcx,%rcx), %r8
	leaq	_ZL11digit_table(%rip), %r10
	movl	%r8d, %r8d
	movzbl	1(%r8,%r10), %r8d
	addl	%r9d, %r11d
	subl	%edx, %r11d
	movb	%r8b, (%rdi,%r11)
	movzbl	(%r10,%rcx,2), %r11d
	movl	$1, %ecx
	movb	%r11b, (%rdi,%rsi)
	cmpl	$2, %r9d
	jae	.LBB12_46
	jmp	.LBB12_47
.LBB12_4:
	movb	$45, (%rdi)
	shrq	$63, %rbx
	addq	%rbx, %rdi
	cmpl	$2047, %esi                     # imm = 0x7FF
	je	.LBB12_6
.LBB12_9:
	movb	$48, 2(%rdi)
	movw	$17712, (%rdi)                  # imm = 0x4530
	addl	$3, %ebx
	jmp	.LBB12_55
.LBB12_37:
	movl	%ecx, %r11d
	cmpl	$100, %r11d
	jae	.LBB12_41
	jmp	.LBB12_42
.LBB12_44:
	orb	$48, %r11b
	movl	$1, %ecx
	movb	%r11b, (%rdi,%rsi)
	cmpl	$2, %r9d
	jb	.LBB12_47
.LBB12_46:
	leal	1(%r9), %ecx
	movb	$46, 1(%rdi,%rsi)
.LBB12_47:
	movl	%ecx, %ecx
	addq	%rcx, %rsi
	leal	(%r9,%rax), %ecx
	movl	%esi, %ebx
	incq	%rbx
	movb	$69, (%rdi,%rsi)
	testl	%ecx, %ecx
	jle	.LBB12_49
# %bb.48:
	leal	-1(%r9,%rax), %eax
	cmpl	$100, %eax
	jb	.LBB12_52
.LBB12_51:
	movl	$3435973837, %esi               # imm = 0xCCCCCCCD
	movl	%eax, %edx
	movl	%ebx, %ecx
	addl	$3, %ebx
	imulq	%rdx, %rsi
	shrq	$35, %rsi
	addl	%esi, %esi
	leal	(%rsi,%rsi,4), %edx
	subl	%edx, %eax
	leaq	_ZL11digit_table(%rip), %rdx
	movzwl	(%rsi,%rdx), %edx
	orb	$48, %al
	movw	%dx, (%rdi,%rcx)
	movb	%al, 2(%rdi,%rcx)
	jmp	.LBB12_55
.LBB12_49:
	movl	$1, %eax
	leal	2(%rsi), %edx
	movb	$45, (%rdi,%rbx)
	subl	%ecx, %eax
	movl	%edx, %ebx
	cmpl	$100, %eax
	jae	.LBB12_51
.LBB12_52:
	cmpl	$10, %eax
	jb	.LBB12_54
# %bb.53:
	leaq	_ZL11digit_table(%rip), %rdx
	movl	%eax, %eax
	movl	%ebx, %ecx
	addl	$2, %ebx
	movzwl	(%rdx,%rax,2), %eax
	movw	%ax, (%rdi,%rcx)
	jmp	.LBB12_55
.LBB12_54:
	movl	%ebx, %ecx
	orb	$48, %al
	incl	%ebx
	movb	%al, (%rdi,%rcx)
.LBB12_55:
	movl	%ebx, %eax
	addq	$8, %rsp
	.cfi_def_cfa_offset 56
	popq	%rbx
	.cfi_def_cfa_offset 48
	popq	%r12
	.cfi_def_cfa_offset 40
	popq	%r13
	.cfi_def_cfa_offset 32
	popq	%r14
	.cfi_def_cfa_offset 24
	popq	%r15
	.cfi_def_cfa_offset 16
	popq	%rbp
	.cfi_def_cfa_offset 8
	retq
.LBB12_12:
	.cfi_def_cfa_offset 64
	shrxq	%rdx, %rcx, %rdx
	movl	$-1, %eax
	movabsq	$-3689348814741910323, %rsi     # imm = 0xCCCCCCCCCCCCCCCD
	.p2align	4, 0x90
.LBB12_13:                              # =>This Inner Loop Header: Depth=1
	movq	%rdx, %rcx
	mulxq	%rsi, %rdx, %rdx
	incl	%eax
	shrq	$3, %rdx
	leal	(%rdx,%rdx), %r8d
	leal	(%r8,%r8,4), %r8d
	cmpl	%ecx, %r8d
	je	.LBB12_13
	jmp	.LBB12_15
.LBB12_25:
	xorl	%edx, %edx
	cmpq	$999999999, %rcx                # imm = 0x3B9AC9FF
	jbe	.LBB12_26
# %bb.34:
	movq	%rcx, %r9
	shrq	$32, %r9
	movl	$10, %r9d
	jne	.LBB12_35
	jmp	.LBB12_36
.LBB12_26:
	movl	$9, %r9d
	cmpq	$99999999, %rcx                 # imm = 0x5F5E0FF
	ja	.LBB12_36
# %bb.27:
	movl	$8, %r9d
	cmpq	$9999999, %rcx                  # imm = 0x98967F
	ja	.LBB12_36
# %bb.28:
	movl	$7, %r9d
	cmpq	$999999, %rcx                   # imm = 0xF423F
	ja	.LBB12_36
# %bb.29:
	movl	$6, %r9d
	cmpq	$99999, %rcx                    # imm = 0x1869F
	ja	.LBB12_36
# %bb.30:
	movl	$5, %r9d
	cmpq	$9999, %rcx                     # imm = 0x270F
	ja	.LBB12_36
# %bb.31:
	movl	$4, %r9d
	cmpq	$999, %rcx                      # imm = 0x3E7
	ja	.LBB12_36
# %bb.32:
	movl	$3, %r9d
	cmpq	$99, %rcx
	ja	.LBB12_36
# %bb.33:
	cmpq	$10, %rcx
	movl	$1, %r9d
	sbbl	$-1, %r9d
	jmp	.LBB12_36
.LBB12_56:
	leaq	.L.str.85(%rip), %rdi
	leaq	.L.str.86(%rip), %rsi
	leaq	.L__PRETTY_FUNCTION__._ZL15decimalLength17m(%rip), %rcx
	movl	$69, %edx
	callq	__assert_fail@PLT
.Lfunc_end12:
	.size	d2s_buffered_n, .Lfunc_end12-d2s_buffered_n
	.cfi_endproc
                                        # -- End function
	.p2align	4, 0x90                         # -- Begin function _ZL3d2dmj
	.type	_ZL3d2dmj,@function
_ZL3d2dmj:                              # @_ZL3d2dmj
	.cfi_startproc
# %bb.0:
	pushq	%rbp
	.cfi_def_cfa_offset 16
	pushq	%r15
	.cfi_def_cfa_offset 24
	pushq	%r14
	.cfi_def_cfa_offset 32
	pushq	%r13
	.cfi_def_cfa_offset 40
	pushq	%r12
	.cfi_def_cfa_offset 48
	pushq	%rbx
	.cfi_def_cfa_offset 56
	pushq	%rax
	.cfi_def_cfa_offset 64
	.cfi_offset %rbx, -56
	.cfi_offset %r12, -48
	.cfi_offset %r13, -40
	.cfi_offset %r14, -32
	.cfi_offset %r15, -24
	.cfi_offset %rbp, -16
	movabsq	$4503599627370496, %rbx         # imm = 0x10000000000000
                                        # kill: def $esi killed $esi def $rsi
	leal	-1077(%rsi), %eax
	movl	$-1076, %r14d                   # imm = 0xFBCC
	orq	%rdi, %rbx
	testl	%esi, %esi
	cmoveq	%rdi, %rbx
	cmovnel	%eax, %r14d
	testq	%rdi, %rdi
	setne	%al
	cmpl	$2, %esi
	leaq	(,%rbx,4), %r8
	setb	%r10b
	orb	%al, %r10b
	testl	%r14d, %r14d
	js	.LBB13_19
# %bb.1:
	imull	$78913, %r14d, %ecx             # imm = 0x13441
	xorl	%eax, %eax
	shrl	$18, %ecx
	cmpl	$4, %r14d
	setae	%al
	subl	%eax, %ecx
	js	.LBB13_47
# %bb.2:
	cmpl	$3529, %ecx                     # imm = 0xDC9
	jae	.LBB13_48
# %bb.3:
	movl	%ecx, %eax
	shlq	$4, %rax
	leaq	_ZL21DOUBLE_POW5_INV_SPLIT(%rip), %rdx
	movq	%r8, %r9
	orq	$2, %r9
	imull	$1217359, %ecx, %esi            # imm = 0x12934F
	movzbl	%r10b, %r10d
	movq	(%rax,%rdx), %rdi
	movq	8(%rax,%rdx), %rax
	shrl	$19, %esi
	movq	%rdi, %rdx
	mulxq	%r9, %r11, %r11
	movq	%rax, %rdx
	mulxq	%r9, %rdx, %r12
	addq	%r11, %rdx
	movl	%ecx, %r11d
	adcq	$0, %r12
	subl	%r14d, %r11d
	addl	%esi, %r11d
	leaq	(%r12,%r12), %rsi
	addb	$61, %r11b
	movl	%r11d, %r15d
	shrxq	%r11, %rdx, %rdx
	notb	%r15b
	shlxq	%r15, %rsi, %r14
	shrxq	%r11, %r12, %rsi
	movq	%r10, %r12
	notq	%r12
	addq	%r8, %r12
	orq	%rdx, %r14
	movq	%rdi, %rdx
	mulxq	%r12, %r13, %r13
	movq	%rax, %rdx
	mulxq	%r12, %rdx, %r12
	addq	%r13, %rdx
	adcq	$0, %r12
	shrxq	%r11, %rdx, %rdx
	leaq	(%r12,%r12), %r13
	shlxq	%r15, %r13, %r13
	orq	%rdx, %r13
	movq	%rdi, %rdx
	mulxq	%r8, %rdi, %rdi
	movq	%rax, %rdx
	mulxq	%r8, %rax, %rdx
	addq	%rdi, %rax
	adcq	$0, %rdx
	shrxq	%r11, %rax, %rax
	leaq	(%rdx,%rdx), %rdi
	shlxq	%r15, %rdi, %r15
	shrxq	%r11, %r12, %rdi
	orq	%rax, %r15
	testb	$64, %r11b
	shrxq	%r11, %rdx, %r11
	cmoveq	%r14, %rsi
	cmoveq	%r13, %rdi
	cmoveq	%r15, %r11
	cmpl	$21, %ecx
	ja	.LBB13_4
# %bb.5:
	movabsq	$-3689348814741910323, %rax     # imm = 0xCCCCCCCCCCCCCCCD
	movq	%r8, %rdx
	mulxq	%rax, %rdx, %rdx
	shrq	$2, %rdx
	leal	(%rdx,%rdx,4), %edx
	cmpl	%r8d, %edx
	jne	.LBB13_10
# %bb.6:
	movl	$-1, %r9d
	.p2align	4, 0x90
.LBB13_7:                               # =>This Inner Loop Header: Depth=1
	testq	%r8, %r8
	je	.LBB13_49
# %bb.8:                                #   in Loop: Header=BB13_7 Depth=1
	movq	%r8, %rdx
	mulxq	%rax, %rdx, %rdx
	incl	%r9d
	shrq	$2, %rdx
	leal	(%rdx,%rdx,4), %r10d
	cmpl	%r8d, %r10d
	movq	%rdx, %r8
	je	.LBB13_7
# %bb.9:
	cmpl	%ecx, %r9d
	setae	%bpl
	xorl	%r10d, %r10d
	testb	%bpl, %bpl
	je	.LBB13_29
	jmp	.LBB13_30
.LBB13_19:
	imull	$-732923, %r14d, %r9d           # imm = 0xFFF4D105
	xorl	%eax, %eax
	shrl	$20, %r9d
	cmpl	$-1, %r14d
	setne	%al
	subl	%eax, %r9d
	addl	%r9d, %r14d
	movl	%r14d, %eax
	negl	%eax
	js	.LBB13_47
# %bb.20:
	cmpl	$3529, %eax                     # imm = 0xDC9
	jae	.LBB13_48
# %bb.21:
	movl	%eax, %eax
	shlq	$4, %rax
	leaq	_ZL17DOUBLE_POW5_SPLIT(%rip), %rdx
	movq	%r8, %rdi
	orq	$2, %rdi
	imull	$-1217359, %r14d, %esi          # imm = 0xFFED6CB1
	movq	(%rax,%rdx), %rcx
	movq	8(%rax,%rdx), %rax
	shrl	$19, %esi
	movq	%rcx, %rdx
	mulxq	%rdi, %r11, %r11
	movq	%rax, %rdx
	mulxq	%rdi, %rdx, %r12
	addq	%r11, %rdx
	movl	%r9d, %r11d
	adcq	$0, %r12
	subl	%esi, %r11d
	addb	$60, %r11b
	leaq	(%r12,%r12), %rsi
	movl	%r11d, %r15d
	shrxq	%r11, %rdx, %rdx
	notb	%r15b
	shlxq	%r15, %rsi, %rdi
	shrxq	%r11, %r12, %rsi
	movzbl	%r10b, %r12d
	notq	%r12
	orq	%rdx, %rdi
	movq	%rcx, %rdx
	addq	%r8, %r12
	mulxq	%r12, %r13, %r13
	movq	%rax, %rdx
	mulxq	%r12, %rdx, %r12
	addq	%r13, %rdx
	adcq	$0, %r12
	shrxq	%r11, %rdx, %rdx
	leaq	(%r12,%r12), %r13
	shlxq	%r15, %r13, %r13
	orq	%rdx, %r13
	movq	%rcx, %rdx
	mulxq	%r8, %rcx, %rcx
	movq	%rax, %rdx
	mulxq	%r8, %rax, %rdx
	addq	%rcx, %rax
	adcq	$0, %rdx
	shrxq	%r11, %rax, %rax
	leaq	(%rdx,%rdx), %rcx
	shlxq	%r15, %rcx, %rcx
	orq	%rax, %rcx
	testb	$64, %r11b
	cmoveq	%rdi, %rsi
	shrxq	%r11, %r12, %rdi
	shrxq	%r11, %rdx, %r11
	cmoveq	%r13, %rdi
	cmoveq	%rcx, %r11
	cmpl	$1, %r9d
	ja	.LBB13_23
# %bb.22:
	movl	%ebx, %eax
	andl	$1, %eax
	movb	$1, %bpl
	sete	%cl
	subq	%rax, %rsi
	andb	%cl, %r10b
	movl	%r14d, %ecx
	jmp	.LBB13_30
.LBB13_23:
	cmpl	$62, %r9d
	ja	.LBB13_24
# %bb.25:
	testq	%rbx, %rbx
	je	.LBB13_50
# %bb.26:
	bzhiq	%r9, %r8, %rax
	sete	%bpl
	jmp	.LBB13_27
.LBB13_10:
	testb	$1, %bl
	je	.LBB13_15
# %bb.11:
	movl	$-1, %r8d
	.p2align	4, 0x90
.LBB13_12:                              # =>This Inner Loop Header: Depth=1
	testq	%r9, %r9
	je	.LBB13_49
# %bb.13:                               #   in Loop: Header=BB13_12 Depth=1
	movq	%r9, %rdx
	mulxq	%rax, %rdx, %rdx
	incl	%r8d
	shrq	$2, %rdx
	leal	(%rdx,%rdx,4), %r10d
	cmpl	%r9d, %r10d
	movq	%rdx, %r9
	je	.LBB13_12
# %bb.14:
	cmpl	%ecx, %r8d
	adcq	$-1, %rsi
.LBB13_4:
	xorl	%ebp, %ebp
	xorl	%r10d, %r10d
	testb	%bpl, %bpl
	je	.LBB13_29
	jmp	.LBB13_30
.LBB13_24:
	xorl	%ebp, %ebp
.LBB13_27:
	xorl	%r10d, %r10d
	movl	%r14d, %ecx
	testb	%bpl, %bpl
	je	.LBB13_29
	jmp	.LBB13_30
.LBB13_15:
	notq	%r10
	addq	%r8, %r10
	movl	$-1, %r8d
	.p2align	4, 0x90
.LBB13_16:                              # =>This Inner Loop Header: Depth=1
	testq	%r10, %r10
	je	.LBB13_49
# %bb.17:                               #   in Loop: Header=BB13_16 Depth=1
	movq	%r10, %rdx
	mulxq	%rax, %rdx, %rdx
	incl	%r8d
	shrq	$2, %rdx
	leal	(%rdx,%rdx,4), %r9d
	cmpl	%r10d, %r9d
	movq	%rdx, %r10
	je	.LBB13_16
# %bb.18:
	cmpl	%ecx, %r8d
	setae	%r10b
	xorl	%ebp, %ebp
	testb	%bpl, %bpl
	jne	.LBB13_30
.LBB13_29:
	testb	%r10b, %r10b
	jne	.LBB13_30
# %bb.39:
	movq	%rsi, %rdx
	shrq	$2, %rdx
	movabsq	$2951479051793528259, %rax      # imm = 0x28F5C28F5C28F5C3
	xorl	%r10d, %r10d
	mulxq	%rax, %r9, %r9
	movq	%rdi, %rdx
	shrq	$2, %rdx
	mulxq	%rax, %r8, %r8
	shrq	$2, %r9
	shrq	$2, %r8
	cmpq	%r8, %r9
	jbe	.LBB13_40
# %bb.41:
	movq	%r11, %rdx
	shrq	$2, %rdx
	mulxq	%rax, %rdx, %rdx
	shrq	$2, %rdx
	imull	$-100, %edx, %eax
	addl	%r11d, %eax
	movq	%rdx, %r11
	cmpl	$50, %eax
	movl	$2, %eax
	setae	%r10b
	jmp	.LBB13_42
.LBB13_30:
	movabsq	$-3689348814741910323, %r14     # imm = 0xCCCCCCCCCCCCCCCD
	movq	%rsi, %rdx
	xorl	%r15d, %r15d
	mulxq	%r14, %r9, %r9
	movq	%rdi, %rdx
	mulxq	%r14, %rdx, %rdx
	shrq	$3, %r9
	shrq	$3, %rdx
	cmpq	%rdx, %r9
	jbe	.LBB13_31
# %bb.32:
	xorl	%eax, %eax
	xorl	%r12d, %r12d
	.p2align	4, 0x90
.LBB13_33:                              # =>This Inner Loop Header: Depth=1
	movq	%rdx, %rsi
	addl	%edx, %edx
	leal	(%rdx,%rdx,4), %r13d
	movq	%r11, %rdx
	mulxq	%r14, %r8, %r8
	shrq	$3, %r8
	leal	(%r8,%r8), %edx
	leal	(%rdx,%rdx,4), %r15d
	negl	%r15d
	addb	%r11b, %r15b
	cmpl	%edi, %r13d
	movq	%r8, %r11
	movq	%rsi, %rdi
	sete	%dl
	andb	%dl, %r10b
	testb	%r12b, %r12b
	movl	%r15d, %r12d
	sete	%dl
	incl	%eax
	andb	%dl, %bpl
	movq	%r9, %rdx
	mulxq	%r14, %r9, %r9
	movq	%rsi, %rdx
	mulxq	%r14, %rdx, %rdx
	shrq	$3, %r9
	shrq	$3, %rdx
	cmpq	%rdx, %r9
	ja	.LBB13_33
# %bb.34:
	xorb	$1, %r10b
	je	.LBB13_36
	jmp	.LBB13_35
.LBB13_31:
	movq	%rdi, %rsi
	xorl	%eax, %eax
	movq	%r11, %r8
	xorb	$1, %r10b
	jne	.LBB13_35
.LBB13_36:
	movq	%rsi, %rdx
	mulxq	%r14, %rdx, %rdx
	shrq	$3, %rdx
	leal	(%rdx,%rdx), %edi
	leal	(%rdi,%rdi,4), %edi
	cmpl	%esi, %edi
	jne	.LBB13_35
	.p2align	4, 0x90
.LBB13_37:                              # =>This Inner Loop Header: Depth=1
	movq	%rdx, %rsi
	movq	%r8, %rdx
	mulxq	%r14, %r11, %r11
	shrq	$3, %r11
	leal	(%r11,%r11), %edx
	leal	(%rdx,%rdx,4), %edi
	negl	%edi
	addb	%r8b, %dil
	testb	%r15b, %r15b
	sete	%dl
	incl	%eax
	movl	%edi, %r15d
	andb	%dl, %bpl
	movq	%rsi, %rdx
	mulxq	%r14, %rdx, %rdx
	shrq	$3, %rdx
	leal	(%rdx,%rdx), %r8d
	leal	(%r8,%r8,4), %r9d
	movq	%r11, %r8
	cmpl	%esi, %r9d
	je	.LBB13_37
	jmp	.LBB13_38
.LBB13_35:
	movl	%r15d, %edi
	movq	%r8, %r11
.LBB13_38:
	cmpb	$5, %dil
	notb	%bpl
	movl	%r11d, %edx
	setne	%dil
	setae	%r8b
	orb	%bpl, %dl
	orb	%dil, %dl
	cmpq	%rsi, %r11
	sete	%sil
	orb	%r10b, %bl
	andb	%r8b, %dl
	andb	%sil, %bl
	orb	%bl, %dl
	jmp	.LBB13_46
.LBB13_40:
	movq	%rsi, %r9
	movq	%rdi, %r8
	xorl	%eax, %eax
.LBB13_42:
	movabsq	$-3689348814741910323, %rbx     # imm = 0xCCCCCCCCCCCCCCCD
	movq	%r9, %rdx
	mulxq	%rbx, %rsi, %rsi
	movq	%r8, %rdx
	mulxq	%rbx, %r9, %r9
	shrq	$3, %rsi
	shrq	$3, %r9
	cmpq	%r9, %rsi
	jbe	.LBB13_45
	.p2align	4, 0x90
.LBB13_43:                              # =>This Inner Loop Header: Depth=1
	movq	%r11, %rdi
	movq	%r11, %rdx
	mulxq	%rbx, %r11, %r11
	movq	%rsi, %rdx
	mulxq	%rbx, %rsi, %rsi
	movq	%r9, %r8
	movq	%r9, %rdx
	mulxq	%rbx, %r9, %r9
	incl	%eax
	shrq	$3, %r11
	shrq	$3, %rsi
	shrq	$3, %r9
	cmpq	%r9, %rsi
	ja	.LBB13_43
# %bb.44:
	leal	(%r11,%r11), %edx
	leal	(%rdx,%rdx,4), %edx
	subl	%edx, %edi
	cmpl	$5, %edi
	setae	%r10b
.LBB13_45:
	cmpq	%r8, %r11
	sete	%dl
	orb	%r10b, %dl
.LBB13_46:
	addl	%eax, %ecx
	movzbl	%dl, %eax
	addq	%r11, %rax
	movl	%ecx, %edx
	addq	$8, %rsp
	.cfi_def_cfa_offset 56
	popq	%rbx
	.cfi_def_cfa_offset 48
	popq	%r12
	.cfi_def_cfa_offset 40
	popq	%r13
	.cfi_def_cfa_offset 32
	popq	%r14
	.cfi_def_cfa_offset 24
	popq	%r15
	.cfi_def_cfa_offset 16
	popq	%rbp
	.cfi_def_cfa_offset 8
	retq
.LBB13_49:
	.cfi_def_cfa_offset 64
	leaq	.L.str.82(%rip), %rdi
	leaq	.L.str.83(%rip), %rsi
	leaq	.L__PRETTY_FUNCTION__._ZL10pow5Factorm(%rip), %rcx
	movl	$193, %edx
	callq	__assert_fail@PLT
.LBB13_47:
	leaq	.L.str.78(%rip), %rdi
	leaq	.L.str.79(%rip), %rsi
	leaq	.L__PRETTY_FUNCTION__._ZL8pow5bitsi(%rip), %rcx
	movl	$77, %edx
	callq	__assert_fail@PLT
.LBB13_48:
	leaq	.L.str.81(%rip), %rdi
	leaq	.L.str.79(%rip), %rsi
	leaq	.L__PRETTY_FUNCTION__._ZL8pow5bitsi(%rip), %rcx
	movl	$78, %edx
	callq	__assert_fail@PLT
.LBB13_50:
	leaq	.L.str.82(%rip), %rdi
	leaq	.L.str.83(%rip), %rsi
	leaq	.L__PRETTY_FUNCTION__._ZL18multipleOfPowerOf2mj(%rip), %rcx
	movl	$213, %edx
	callq	__assert_fail@PLT
.Lfunc_end13:
	.size	_ZL3d2dmj, .Lfunc_end13-_ZL3d2dmj
	.cfi_endproc
                                        # -- End function
	.globl	d2s_buffered                    # -- Begin function d2s_buffered
	.p2align	4, 0x90
	.type	d2s_buffered,@function
d2s_buffered:                           # @d2s_buffered
	.cfi_startproc
# %bb.0:
	pushq	%rbx
	.cfi_def_cfa_offset 16
	.cfi_offset %rbx, -16
	movq	%rdi, %rbx
	callq	d2s_buffered_n
	cltq
	movb	$0, (%rbx,%rax)
	popq	%rbx
	.cfi_def_cfa_offset 8
	retq
.Lfunc_end14:
	.size	d2s_buffered, .Lfunc_end14-d2s_buffered
	.cfi_endproc
                                        # -- End function
	.globl	d2s                             # -- Begin function d2s
	.p2align	4, 0x90
	.type	d2s,@function
d2s:                                    # @d2s
	.cfi_startproc
# %bb.0:
	pushq	%rbx
	.cfi_def_cfa_offset 16
	subq	$16, %rsp
	.cfi_def_cfa_offset 32
	.cfi_offset %rbx, -16
	movl	$25, %edi
	vmovsd	%xmm0, 8(%rsp)                  # 8-byte Spill
	callq	malloc@PLT
	vmovsd	8(%rsp), %xmm0                  # 8-byte Reload
                                        # xmm0 = mem[0],zero
	movq	%rax, %rdi
	movq	%rax, %rbx
	callq	d2s_buffered_n
	cltq
	movb	$0, (%rbx,%rax)
	movq	%rbx, %rax
	addq	$16, %rsp
	.cfi_def_cfa_offset 16
	popq	%rbx
	.cfi_def_cfa_offset 8
	retq
.Lfunc_end15:
	.size	d2s, .Lfunc_end15-d2s
	.cfi_endproc
                                        # -- End function
	.globl	f2s_buffered_n                  # -- Begin function f2s_buffered_n
	.p2align	4, 0x90
	.type	f2s_buffered_n,@function
f2s_buffered_n:                         # @f2s_buffered_n
	.cfi_startproc
# %bb.0:
	pushq	%rbp
	.cfi_def_cfa_offset 16
	pushq	%r15
	.cfi_def_cfa_offset 24
	pushq	%r14
	.cfi_def_cfa_offset 32
	pushq	%r13
	.cfi_def_cfa_offset 40
	pushq	%r12
	.cfi_def_cfa_offset 48
	pushq	%rbx
	.cfi_def_cfa_offset 56
	pushq	%rax
	.cfi_def_cfa_offset 64
	.cfi_offset %rbx, -56
	.cfi_offset %r12, -48
	.cfi_offset %r13, -40
	.cfi_offset %r14, -32
	.cfi_offset %r15, -24
	.cfi_offset %rbp, -16
	vmovd	%xmm0, %r14d
	movl	$2071, %eax                     # imm = 0x817
	movq	%rdi, %rbx
	movl	%r14d, %edi
	andl	$8388607, %edi                  # imm = 0x7FFFFF
	bextrl	%eax, %r14d, %esi
	cmpl	$255, %esi
	je	.LBB16_2
# %bb.1:
	movl	%esi, %eax
	orl	%edi, %eax
	je	.LBB16_2
# %bb.9:
	callq	_ZL3f2djj
	xorl	%esi, %esi
	movl	%eax, %edi
	testl	%r14d, %r14d
	jns	.LBB16_11
# %bb.10:
	movl	$1, %esi
	movb	$45, (%rbx)
.LBB16_11:
	cmpl	$1000000000, %edi               # imm = 0x3B9ACA00
	jae	.LBB16_36
# %bb.12:
	movl	$9, %edx
	movl	%esi, %ecx
	cmpl	$99999999, %edi                 # imm = 0x5F5E0FF
	ja	.LBB16_20
# %bb.13:
	movl	$8, %edx
	cmpl	$9999999, %edi                  # imm = 0x98967F
	ja	.LBB16_20
# %bb.14:
	movl	$7, %edx
	cmpl	$999999, %edi                   # imm = 0xF423F
	ja	.LBB16_20
# %bb.15:
	movl	$6, %edx
	cmpl	$99999, %edi                    # imm = 0x1869F
	ja	.LBB16_20
# %bb.16:
	movl	$5, %edx
	cmpl	$9999, %edi                     # imm = 0x270F
	jbe	.LBB16_17
.LBB16_20:
	movl	%edx, %r9d
	movl	$3518437209, %r10d              # imm = 0xD1B71759
	leaq	_ZL11digit_table(%rip), %r11
	addq	%rbx, %r9
	addq	%rcx, %r9
	xorl	%r8d, %r8d
	.p2align	4, 0x90
.LBB16_21:                              # =>This Inner Loop Header: Depth=1
	movl	%edi, %ebp
	movl	%edi, %edi
	imulq	%r10, %rdi
	movq	%r9, %r13
	shrq	$45, %rdi
	imull	$-10000, %edi, %r14d            # imm = 0xD8F0
	addl	%ebp, %r14d
	imulq	$1374389535, %r14, %r15         # imm = 0x51EB851F
	shrq	$37, %r15
	imull	$100, %r15d, %r12d
	subl	%r12d, %r14d
	movl	%r8d, %r12d
	subq	%r12, %r13
	addl	$4, %r8d
	movzwl	(%r11,%r14,2), %r14d
	movw	%r14w, -1(%r13)
	movzwl	(%r11,%r15,2), %r14d
	movw	%r14w, -3(%r13)
	cmpl	$99999999, %ebp                 # imm = 0x5F5E0FF
	ja	.LBB16_21
# %bb.22:
	cmpl	$1000000, %ebp                  # imm = 0xF4240
	jb	.LBB16_24
.LBB16_23:
	movzwl	%di, %r9d
	leaq	_ZL11digit_table(%rip), %r14
	movl	%edx, %r11d
	shrl	$2, %r9d
	imull	$5243, %r9d, %r9d               # imm = 0x147B
	shrl	$17, %r9d
	imull	$100, %r9d, %r10d
	subl	%r10d, %edi
	movzwl	%di, %edi
	addq	%rbx, %r11
	addq	%rcx, %r11
	movl	%r8d, %r10d
	notq	%r10
	orl	$2, %r8d
	movzwl	(%r14,%rdi,2), %edi
	movw	%di, (%r10,%r11)
	movl	%r9d, %edi
.LBB16_24:
	shrq	$32, %rax
	cmpl	$10, %edi
	jb	.LBB16_26
.LBB16_25:
	movl	%edi, %edi
	leaq	(%rdi,%rdi), %r9
	leaq	_ZL11digit_table(%rip), %r10
	addl	%edx, %esi
	movl	%r9d, %r9d
	movzbl	1(%r9,%r10), %r9d
	subl	%r8d, %esi
	movb	%r9b, (%rbx,%rsi)
	movzbl	(%r10,%rdi,2), %edi
	movl	$1, %esi
	movb	%dil, (%rbx,%rcx)
	cmpl	$2, %edx
	jae	.LBB16_28
	jmp	.LBB16_29
.LBB16_2:
	testl	%edi, %edi
	je	.LBB16_4
# %bb.3:
	movb	$78, 2(%rbx)
	movw	$24910, (%rbx)                  # imm = 0x614E
	movl	$3, %r14d
	jmp	.LBB16_35
.LBB16_4:
	testl	%r14d, %r14d
	js	.LBB16_5
# %bb.6:
	shrl	$31, %r14d
	addq	%r14, %rbx
	testl	%esi, %esi
	je	.LBB16_8
.LBB16_7:
	movabsq	$8751735898823355977, %rax      # imm = 0x7974696E69666E49
	orl	$8, %r14d
	movq	%rax, (%rbx)
	jmp	.LBB16_35
.LBB16_5:
	movb	$45, (%rbx)
	shrl	$31, %r14d
	addq	%r14, %rbx
	testl	%esi, %esi
	jne	.LBB16_7
.LBB16_8:
	movb	$48, 2(%rbx)
	movw	$17712, (%rbx)                  # imm = 0x4530
	addl	$3, %r14d
	jmp	.LBB16_35
.LBB16_17:
	movl	$4, %edx
	xorl	%r8d, %r8d
	cmpl	$999, %edi                      # imm = 0x3E7
	ja	.LBB16_23
# %bb.18:
	movl	$3, %edx
	cmpl	$99, %edi
	ja	.LBB16_23
# %bb.19:
	cmpl	$10, %edi
	movl	$1, %edx
	sbbl	$-1, %edx
	xorl	%r8d, %r8d
	shrq	$32, %rax
	cmpl	$10, %edi
	jae	.LBB16_25
.LBB16_26:
	orb	$48, %dil
	movl	$1, %esi
	movb	%dil, (%rbx,%rcx)
	cmpl	$2, %edx
	jb	.LBB16_29
.LBB16_28:
	leal	1(%rdx), %esi
	movb	$46, 1(%rbx,%rcx)
.LBB16_29:
	movl	%esi, %esi
	addq	%rsi, %rcx
	leal	(%rdx,%rax), %esi
	movl	%ecx, %r14d
	incq	%r14
	movb	$69, (%rbx,%rcx)
	testl	%esi, %esi
	jle	.LBB16_31
# %bb.30:
	leal	-1(%rdx,%rax), %eax
	cmpl	$10, %eax
	jb	.LBB16_34
.LBB16_33:
	leaq	_ZL11digit_table(%rip), %rdx
	movl	%eax, %eax
	movl	%r14d, %ecx
	addl	$2, %r14d
	movzwl	(%rdx,%rax,2), %eax
	movw	%ax, (%rbx,%rcx)
	jmp	.LBB16_35
.LBB16_31:
	movl	$1, %eax
	addl	$2, %ecx
	movb	$45, (%rbx,%r14)
	subl	%esi, %eax
	movl	%ecx, %r14d
	cmpl	$10, %eax
	jae	.LBB16_33
.LBB16_34:
	movl	%r14d, %ecx
	orb	$48, %al
	incl	%r14d
	movb	%al, (%rbx,%rcx)
.LBB16_35:
	movl	%r14d, %eax
	addq	$8, %rsp
	.cfi_def_cfa_offset 56
	popq	%rbx
	.cfi_def_cfa_offset 48
	popq	%r12
	.cfi_def_cfa_offset 40
	popq	%r13
	.cfi_def_cfa_offset 32
	popq	%r14
	.cfi_def_cfa_offset 24
	popq	%r15
	.cfi_def_cfa_offset 16
	popq	%rbp
	.cfi_def_cfa_offset 8
	retq
.LBB16_36:
	.cfi_def_cfa_offset 64
	leaq	.L.str.90(%rip), %rdi
	leaq	.L.str.79(%rip), %rsi
	leaq	.L__PRETTY_FUNCTION__._ZL14decimalLength9j(%rip), %rcx
	movl	$34, %edx
	callq	__assert_fail@PLT
.Lfunc_end16:
	.size	f2s_buffered_n, .Lfunc_end16-f2s_buffered_n
	.cfi_endproc
                                        # -- End function
	.p2align	4, 0x90                         # -- Begin function _ZL3f2djj
	.type	_ZL3f2djj,@function
_ZL3f2djj:                              # @_ZL3f2djj
	.cfi_startproc
# %bb.0:
	pushq	%rbp
	.cfi_def_cfa_offset 16
	pushq	%r15
	.cfi_def_cfa_offset 24
	pushq	%r14
	.cfi_def_cfa_offset 32
	pushq	%r13
	.cfi_def_cfa_offset 40
	pushq	%r12
	.cfi_def_cfa_offset 48
	pushq	%rbx
	.cfi_def_cfa_offset 56
	pushq	%rax
	.cfi_def_cfa_offset 64
	.cfi_offset %rbx, -56
	.cfi_offset %r12, -48
	.cfi_offset %r13, -40
	.cfi_offset %r14, -32
	.cfi_offset %r15, -24
	.cfi_offset %rbp, -16
	movl	%edi, %eax
                                        # kill: def $esi killed $esi def $rsi
	orl	$8388608, %eax                  # imm = 0x800000
	testl	%esi, %esi
	leal	-152(%rsi), %edx
	movl	$-151, %ecx
	cmovel	%edi, %eax
	cmovnel	%edx, %ecx
	testl	%edi, %edi
	setne	%dl
	cmpl	$2, %esi
	leal	(,%rax,4), %r9d
	leal	2(,%rax,4), %r14d
	setb	%bpl
	orb	%dl, %bpl
	movzbl	%bpl, %edx
	notl	%edx
	leal	(%rdx,%rax,4), %ebx
	testl	%ecx, %ecx
	js	.LBB17_32
# %bb.1:
	cmpl	$11724, %ecx                    # imm = 0x2DCC
	jae	.LBB17_67
# %bb.2:
	imull	$78913, %ecx, %r11d             # imm = 0x13441
	shrl	$18, %r11d
	imull	$1217359, %r11d, %edx           # imm = 0x12934F
	movl	%r11d, %edi
	subl	%ecx, %edi
	shrl	$19, %edx
	leal	61(%rdi,%rdx), %esi
	cmpl	$32, %esi
	jle	.LBB17_68
# %bb.3:
	movl	%r11d, %edx
	shll	$4, %edx
	leaq	_ZL21DOUBLE_POW5_INV_SPLIT(%rip), %r15
	movl	%r9d, %r10d
	addl	$-32, %esi
	movq	8(%rdx,%r15), %r13
	incq	%r13
	movl	%r13d, %r12d
	movq	%r12, %rdx
	imulq	%r10, %rdx
	shrq	$32, %r13
	movq	%r13, %r8
	imulq	%r10, %r8
	shrq	$32, %rdx
	addq	%r8, %rdx
	shrxq	%rsi, %rdx, %rdx
	movq	%rdx, %r8
	shrq	$32, %r8
	jne	.LBB17_69
# %bb.4:
	movl	%r14d, %r8d
	movq	%r12, %rbp
	imulq	%r8, %rbp
	imulq	%r13, %r8
	shrq	$32, %rbp
	addq	%r8, %rbp
	shrxq	%rsi, %rbp, %r8
	movq	%r8, %rbp
	shrq	$32, %rbp
	jne	.LBB17_69
# %bb.5:
	movl	%ebx, %ebp
	imulq	%rbp, %r12
	imulq	%rbp, %r13
	shrq	$32, %r12
	addq	%r13, %r12
	shrxq	%rsi, %r12, %rsi
	movq	%rsi, %r12
	shrq	$32, %r12
	jne	.LBB17_69
# %bb.6:
	cmpl	$4, %ecx
	jae	.LBB17_14
# %bb.7:
	xorl	%edi, %edi
	jmp	.LBB17_8
.LBB17_32:
	imull	$-732923, %ecx, %r15d           # imm = 0xFFF4D105
	movl	%r15d, %r11d
	shrl	$20, %r11d
	addl	%r11d, %ecx
	movl	%ecx, %edx
	negl	%edx
	js	.LBB17_70
# %bb.33:
	cmpl	$3529, %edx                     # imm = 0xDC9
	jae	.LBB17_67
# %bb.34:
	imull	$-1217359, %ecx, %edi           # imm = 0xFFED6CB1
	movl	%r11d, %esi
	shrl	$19, %edi
	subl	%edi, %esi
	addl	$60, %esi
	cmpl	$32, %esi
	jle	.LBB17_68
# %bb.35:
	movl	%edx, %edx
	shlq	$4, %rdx
	leaq	_ZL17DOUBLE_POW5_SPLIT(%rip), %r10
	movl	%r9d, %edi
	addl	$-32, %esi
	movq	8(%rdx,%r10), %r13
	movl	%r13d, %r12d
	movq	%r12, %rdx
	imulq	%rdi, %rdx
	shrq	$32, %r13
	movq	%r13, %r8
	imulq	%rdi, %r8
	shrq	$32, %rdx
	addq	%r8, %rdx
	shrxq	%rsi, %rdx, %rdx
	movq	%rdx, %r8
	shrq	$32, %r8
	jne	.LBB17_69
# %bb.36:
	movl	%r14d, %r8d
	movq	%r12, %r14
	imulq	%r8, %r14
	imulq	%r13, %r8
	shrq	$32, %r14
	addq	%r8, %r14
	shrxq	%rsi, %r14, %r8
	movq	%r8, %r14
	shrq	$32, %r14
	jne	.LBB17_69
# %bb.37:
	movl	%ebx, %ebx
	imulq	%rbx, %r12
	imulq	%rbx, %r13
	shrq	$32, %r12
	addq	%r13, %r12
	shrxq	%rsi, %r12, %rsi
	movq	%rsi, %rbx
	shrq	$32, %rbx
	jne	.LBB17_69
# %bb.38:
	cmpl	$1048576, %r15d                 # imm = 0x100000
	jae	.LBB17_40
# %bb.39:
	xorl	%edi, %edi
	jmp	.LBB17_47
.LBB17_14:
	leal	-1(%r8), %r12d
	movl	$3435973837, %r13d              # imm = 0xCCCCCCCD
	movl	%esi, %ebp
	imulq	%r13, %r12
	imulq	%r13, %rbp
	shrq	$35, %r12
	shrq	$35, %rbp
	cmpl	%ebp, %r12d
	jbe	.LBB17_16
# %bb.15:
	xorl	%edi, %edi
	xorl	%r10d, %r10d
	cmpl	$33, %ecx
	jbe	.LBB17_8
	jmp	.LBB17_20
.LBB17_40:
	leal	-1(%r8), %ebx
	movl	$3435973837, %r14d              # imm = 0xCCCCCCCD
	movl	%esi, %r12d
	imulq	%r14, %rbx
	imulq	%r14, %r12
	shrq	$35, %rbx
	shrq	$35, %r12
	cmpl	%r12d, %ebx
	jbe	.LBB17_42
# %bb.41:
	xorl	%edi, %edi
	cmpl	$2097151, %r15d                 # imm = 0x1FFFFF
	ja	.LBB17_56
.LBB17_47:
	movl	%eax, %r9d
	andl	$1, %r9d
	sete	%r10b
	subl	%r9d, %r8d
	andb	%r10b, %bpl
	movb	$1, %r10b
	jmp	.LBB17_48
.LBB17_16:
	leal	-1(%r11), %ebp
	imull	$1217359, %ebp, %r12d           # imm = 0x12934F
	shrl	$19, %r12d
	leal	1(%rdi,%r12), %edi
	cmpl	$-27, %edi
	jle	.LBB17_68
# %bb.17:
	movl	%ebp, %r12d
	shlq	$4, %r12
	addb	$27, %dil
	movq	8(%r12,%r15), %r15
	incq	%r15
	movl	%r15d, %r12d
	shrq	$32, %r15
	imulq	%r10, %r12
	imulq	%r10, %r15
	shrq	$32, %r12
	addq	%r15, %r12
	shrxq	%rdi, %r12, %rdi
	movq	%rdi, %r10
	shrq	$32, %r10
	jne	.LBB17_69
# %bb.18:
	movl	$3435973837, %r15d              # imm = 0xCCCCCCCD
	movl	%edi, %r10d
	imulq	%r10, %r15
	shrq	$35, %r15
	addl	%r15d, %r15d
	leal	(%r15,%r15,4), %r10d
	subl	%r10d, %edi
	xorl	%r10d, %r10d
	cmpl	$33, %ecx
	ja	.LBB17_20
.LBB17_8:
	imull	$-858993459, %r9d, %ecx         # imm = 0xCCCCCCCD
	cmpl	$858993459, %ecx                # imm = 0x33333333
	jbe	.LBB17_9
# %bb.22:
	testb	$1, %al
	jne	.LBB17_23
# %bb.26:
	testl	%ebx, %ebx
	je	.LBB17_13
# %bb.27:
	movl	$3435973837, %r9d               # imm = 0xCCCCCCCD
	xorl	%ecx, %ecx
	.p2align	4, 0x90
.LBB17_28:                              # =>This Inner Loop Header: Depth=1
	imull	$-858993459, %ebx, %r10d        # imm = 0xCCCCCCCD
	cmpl	$858993459, %r10d               # imm = 0x33333333
	ja	.LBB17_30
# %bb.29:                               #   in Loop: Header=BB17_28 Depth=1
	movl	%ebx, %r10d
	imulq	%r9, %r10
	incl	%ecx
	shrq	$34, %r10
	cmpl	$5, %ebx
	movl	%r10d, %ebx
	jae	.LBB17_28
	jmp	.LBB17_13
.LBB17_9:
	testl	%eax, %eax
	je	.LBB17_13
# %bb.10:
	movl	$3435973837, %r10d              # imm = 0xCCCCCCCD
	xorl	%ecx, %ecx
	.p2align	4, 0x90
.LBB17_11:                              # =>This Inner Loop Header: Depth=1
	imull	$-858993459, %r9d, %ebx         # imm = 0xCCCCCCCD
	cmpl	$858993459, %ebx                # imm = 0x33333333
	ja	.LBB17_21
# %bb.12:                               #   in Loop: Header=BB17_11 Depth=1
	movl	%r9d, %ebx
	imulq	%r10, %rbx
	incl	%ecx
	shrq	$34, %rbx
	cmpl	$5, %r9d
	movl	%ebx, %r9d
	jae	.LBB17_11
	jmp	.LBB17_13
.LBB17_21:
	cmpl	%r11d, %ecx
	setae	%r10b
	jmp	.LBB17_20
.LBB17_23:
	movl	$3435973837, %r9d               # imm = 0xCCCCCCCD
	xorl	%ecx, %ecx
	.p2align	4, 0x90
.LBB17_24:                              # =>This Inner Loop Header: Depth=1
	imull	$-858993459, %r14d, %r10d       # imm = 0xCCCCCCCD
	cmpl	$858993459, %r10d               # imm = 0x33333333
	ja	.LBB17_31
# %bb.25:                               #   in Loop: Header=BB17_24 Depth=1
	movl	%r14d, %r10d
	imulq	%r9, %r10
	incl	%ecx
	shrq	$34, %r10
	cmpl	$5, %r14d
	movl	%r10d, %r14d
	jae	.LBB17_24
.LBB17_13:
	leaq	.L.str.82(%rip), %rdi
	leaq	.L.str.88(%rip), %rsi
	leaq	.L__PRETTY_FUNCTION__._ZL13pow5factor_32j(%rip), %rcx
	movl	$61, %edx
	callq	__assert_fail@PLT
.LBB17_31:
	cmpl	%r11d, %ecx
	adcl	$-1, %r8d
	xorl	%r10d, %r10d
.LBB17_20:
	xorl	%ebp, %ebp
	movl	%r11d, %ecx
	testb	%r10b, %r10b
	je	.LBB17_60
	jmp	.LBB17_48
.LBB17_30:
	cmpl	%r11d, %ecx
	movl	%r11d, %ecx
	setae	%bpl
	xorl	%r10d, %r10d
	testb	%r10b, %r10b
	je	.LBB17_60
	jmp	.LBB17_48
.LBB17_42:
	movl	$1, %r14d
	subl	%ecx, %r14d
	cmpl	$3529, %r14d                    # imm = 0xDC9
	jae	.LBB17_67
# %bb.43:
	imull	$1217359, %r14d, %ebx           # imm = 0x12934F
	shrl	$19, %ebx
	notl	%ebx
	addl	%r11d, %ebx
	cmpl	$-28, %ebx
	jle	.LBB17_68
# %bb.44:
	movl	%r14d, %r14d
	shlq	$4, %r14
	addb	$28, %bl
	movq	8(%r14,%r10), %r10
	movl	%r10d, %r14d
	shrq	$32, %r10
	imulq	%rdi, %r14
	imulq	%rdi, %r10
	shrq	$32, %r14
	addq	%r10, %r14
	shrxq	%rbx, %r14, %rdi
	movq	%rdi, %r10
	shrq	$32, %r10
	jne	.LBB17_69
# %bb.45:
	movl	$3435973837, %ebx               # imm = 0xCCCCCCCD
	movl	%edi, %r10d
	imulq	%r10, %rbx
	shrq	$35, %rbx
	addl	%ebx, %ebx
	leal	(%rbx,%rbx,4), %r10d
	subl	%r10d, %edi
	cmpl	$2097151, %r15d                 # imm = 0x1FFFFF
	jbe	.LBB17_47
.LBB17_56:
	xorl	%r10d, %r10d
	cmpl	$32505855, %r15d                # imm = 0x1EFFFFF
	ja	.LBB17_58
# %bb.57:
	decb	%r11b
	bzhil	%r11d, %r9d, %r9d
	sete	%r10b
.LBB17_58:
	xorl	%ebp, %ebp
	testb	%r10b, %r10b
	jne	.LBB17_48
.LBB17_60:
	testb	%bpl, %bpl
	jne	.LBB17_48
# %bb.61:
	movl	$3435973837, %r9d               # imm = 0xCCCCCCCD
	movl	%r8d, %eax
	movl	%esi, %r10d
	xorl	%r8d, %r8d
	imulq	%r9, %rax
	imulq	%r9, %r10
	shrq	$35, %rax
	shrq	$35, %r10
	cmpl	%r10d, %eax
	jbe	.LBB17_65
# %bb.62:
	xorl	%r8d, %r8d
	.p2align	4, 0x90
.LBB17_63:                              # =>This Inner Loop Header: Depth=1
	movl	%eax, %eax
	imulq	%r9, %rax
	movl	%edx, %edi
	movl	%edx, %edx
	imulq	%r9, %rdx
	movl	%r10d, %esi
	movl	%r10d, %r10d
	imulq	%r9, %r10
	incl	%r8d
	shrq	$35, %rdx
	shrq	$35, %rax
	shrq	$35, %r10
	cmpl	%r10d, %eax
	ja	.LBB17_63
# %bb.64:
	leal	(%rdx,%rdx), %eax
	leal	(%rax,%rax,4), %eax
	subl	%eax, %edi
.LBB17_65:
	cmpl	%esi, %edx
	sete	%sil
	cmpb	$5, %dil
	setae	%al
	orb	%sil, %al
	jmp	.LBB17_66
.LBB17_48:
	testb	%bpl, %bpl
	movl	$3435973837, %r11d              # imm = 0xCCCCCCCD
	movl	%r8d, %ebx
	movl	%esi, %r14d
	setne	%r9b
	imulq	%r11, %rbx
	imulq	%r11, %r14
	xorl	%r8d, %r8d
	shrq	$35, %rbx
	shrq	$35, %r14
	cmpl	%r14d, %ebx
	jbe	.LBB17_51
# %bb.49:
	testb	%r10b, %r10b
	setne	%r10b
	xorl	%r8d, %r8d
	.p2align	4, 0x90
.LBB17_50:                              # =>This Inner Loop Header: Depth=1
	movl	%esi, %ebp
	movl	%r14d, %esi
	leal	(%rsi,%rsi), %r14d
	movl	%ebx, %ebx
	leal	(%r14,%r14,4), %r14d
	cmpl	%ebp, %r14d
	sete	%bpl
	andb	%bpl, %r9b
	testb	%dil, %dil
	movl	%edx, %edi
	sete	%dl
	imulq	%r11, %rbx
	incl	%r8d
	andb	%dl, %r10b
	movl	%edi, %edx
	imulq	%r11, %rdx
	shrq	$35, %rbx
	shrq	$35, %rdx
	leal	(%rdx,%rdx), %r14d
	leal	(%r14,%r14,4), %ebp
	movl	%esi, %r14d
	imulq	%r11, %r14
	subl	%ebp, %edi
                                        # kill: def $dil killed $dil killed $edi def $rdi
	shrq	$35, %r14
	cmpl	%r14d, %ebx
	ja	.LBB17_50
.LBB17_51:
	testb	%r9b, %r9b
	je	.LBB17_55
# %bb.52:
	movl	%esi, %ebx
	imulq	%r11, %rbx
	shrq	$35, %rbx
	addl	%ebx, %ebx
	leal	(%rbx,%rbx,4), %r11d
	movl	%esi, %ebx
	subl	%r11d, %ebx
	jne	.LBB17_55
# %bb.53:
	testb	%r10b, %r10b
	movl	$3435973837, %r11d              # imm = 0xCCCCCCCD
	setne	%r10b
	.p2align	4, 0x90
.LBB17_54:                              # =>This Inner Loop Header: Depth=1
	testb	%dil, %dil
	movl	%edx, %edi
	movl	%esi, %esi
	sete	%dl
	imulq	%r11, %rsi
	incl	%r8d
	andb	%dl, %r10b
	movl	%edi, %edx
	imulq	%r11, %rdx
	shrq	$35, %rsi
	shrq	$35, %rdx
	leal	(%rdx,%rdx), %ebx
	leal	(%rbx,%rbx,4), %ebx
	subl	%ebx, %edi
	imull	$-858993459, %esi, %ebx         # imm = 0xCCCCCCCD
                                        # kill: def $dil killed $dil killed $edi def $rdi
	rorxl	$1, %ebx, %ebx
	cmpl	$429496730, %ebx                # imm = 0x1999999A
	jb	.LBB17_54
.LBB17_55:
	testb	%r10b, %r10b
	sete	%r10b
	cmpb	$5, %dil
	setne	%dil
	setae	%r11b
	cmpl	%esi, %edx
	sete	%sil
	xorb	$1, %r9b
	orb	%al, %r9b
	movl	%edx, %eax
	orb	%r10b, %al
	andb	%sil, %r9b
	orb	%dil, %al
	andb	%r11b, %al
	orb	%r9b, %al
.LBB17_66:
	movzbl	%al, %eax
	addl	%r8d, %ecx
	addl	%edx, %eax
	shlq	$32, %rcx
	orq	%rcx, %rax
	addq	$8, %rsp
	.cfi_def_cfa_offset 56
	popq	%rbx
	.cfi_def_cfa_offset 48
	popq	%r12
	.cfi_def_cfa_offset 40
	popq	%r13
	.cfi_def_cfa_offset 32
	popq	%r14
	.cfi_def_cfa_offset 24
	popq	%r15
	.cfi_def_cfa_offset 16
	popq	%rbp
	.cfi_def_cfa_offset 8
	retq
.LBB17_69:
	.cfi_def_cfa_offset 64
	leaq	.L.str.89(%rip), %rdi
	leaq	.L.str.88(%rip), %rsi
	leaq	.L__PRETTY_FUNCTION__._ZL10mulShift32jmi(%rip), %rcx
	movl	$112, %edx
	callq	__assert_fail@PLT
.LBB17_68:
	leaq	.L.str.87(%rip), %rdi
	leaq	.L.str.88(%rip), %rsi
	leaq	.L__PRETTY_FUNCTION__._ZL10mulShift32jmi(%rip), %rcx
	movl	$90, %edx
	callq	__assert_fail@PLT
.LBB17_67:
	leaq	.L.str.81(%rip), %rdi
	leaq	.L.str.79(%rip), %rsi
	leaq	.L__PRETTY_FUNCTION__._ZL8pow5bitsi(%rip), %rcx
	movl	$78, %edx
	callq	__assert_fail@PLT
.LBB17_70:
	leaq	.L.str.78(%rip), %rdi
	leaq	.L.str.79(%rip), %rsi
	leaq	.L__PRETTY_FUNCTION__._ZL8pow5bitsi(%rip), %rcx
	movl	$77, %edx
	callq	__assert_fail@PLT
.Lfunc_end17:
	.size	_ZL3f2djj, .Lfunc_end17-_ZL3f2djj
	.cfi_endproc
                                        # -- End function
	.globl	f2s_buffered                    # -- Begin function f2s_buffered
	.p2align	4, 0x90
	.type	f2s_buffered,@function
f2s_buffered:                           # @f2s_buffered
	.cfi_startproc
# %bb.0:
	pushq	%rbx
	.cfi_def_cfa_offset 16
	.cfi_offset %rbx, -16
	movq	%rdi, %rbx
	callq	f2s_buffered_n
	cltq
	movb	$0, (%rbx,%rax)
	popq	%rbx
	.cfi_def_cfa_offset 8
	retq
.Lfunc_end18:
	.size	f2s_buffered, .Lfunc_end18-f2s_buffered
	.cfi_endproc
                                        # -- End function
	.globl	f2s                             # -- Begin function f2s
	.p2align	4, 0x90
	.type	f2s,@function
f2s:                                    # @f2s
	.cfi_startproc
# %bb.0:
	pushq	%rbx
	.cfi_def_cfa_offset 16
	subq	$16, %rsp
	.cfi_def_cfa_offset 32
	.cfi_offset %rbx, -16
	movl	$16, %edi
	vmovss	%xmm0, 12(%rsp)                 # 4-byte Spill
	callq	malloc@PLT
	vmovss	12(%rsp), %xmm0                 # 4-byte Reload
                                        # xmm0 = mem[0],zero,zero,zero
	movq	%rax, %rdi
	movq	%rax, %rbx
	callq	f2s_buffered_n
	cltq
	movb	$0, (%rbx,%rax)
	movq	%rbx, %rax
	addq	$16, %rsp
	.cfi_def_cfa_offset 16
	popq	%rbx
	.cfi_def_cfa_offset 8
	retq
.Lfunc_end19:
	.size	f2s, .Lfunc_end19-f2s
	.cfi_endproc
                                        # -- End function
	.globl	_Z14ryu_f64_to_decdPyPi         # -- Begin function _Z14ryu_f64_to_decdPyPi
	.p2align	4, 0x90
	.type	_Z14ryu_f64_to_decdPyPi,@function
_Z14ryu_f64_to_decdPyPi:                # @_Z14ryu_f64_to_decdPyPi
	.cfi_startproc
# %bb.0:
	pushq	%r14
	.cfi_def_cfa_offset 16
	pushq	%rbx
	.cfi_def_cfa_offset 24
	pushq	%rax
	.cfi_def_cfa_offset 32
	.cfi_offset %rbx, -24
	.cfi_offset %r14, -16
	movq	%rsi, %rbx
	vmovq	%xmm0, %rsi
	movb	$52, %al
	movq	%rdi, %r14
	bzhiq	%rax, %rsi, %rdi
	shrq	$52, %rsi
	andl	$2047, %esi                     # imm = 0x7FF
                                        # kill: def $esi killed $esi killed $rsi
	callq	_ZL3d2dmj
	movq	%rax, (%r14)
	movl	%edx, (%rbx)
	addq	$8, %rsp
	.cfi_def_cfa_offset 24
	popq	%rbx
	.cfi_def_cfa_offset 16
	popq	%r14
	.cfi_def_cfa_offset 8
	retq
.Lfunc_end20:
	.size	_Z14ryu_f64_to_decdPyPi, .Lfunc_end20-_Z14ryu_f64_to_decdPyPi
	.cfi_endproc
                                        # -- End function
	.globl	_Z14ryu_f32_to_decfPjPi         # -- Begin function _Z14ryu_f32_to_decfPjPi
	.p2align	4, 0x90
	.type	_Z14ryu_f32_to_decfPjPi,@function
_Z14ryu_f32_to_decfPjPi:                # @_Z14ryu_f32_to_decfPjPi
	.cfi_startproc
# %bb.0:
	pushq	%r14
	.cfi_def_cfa_offset 16
	pushq	%rbx
	.cfi_def_cfa_offset 24
	pushq	%rax
	.cfi_def_cfa_offset 32
	.cfi_offset %rbx, -24
	.cfi_offset %r14, -16
	movq	%rsi, %rbx
	vmovd	%xmm0, %esi
	movq	%rdi, %r14
	movl	%esi, %edi
	andl	$2139095040, %esi               # imm = 0x7F800000
	andl	$8388607, %edi                  # imm = 0x7FFFFF
	shrl	$23, %esi
	callq	_ZL3f2djj
	movl	%eax, (%r14)
	shrq	$32, %rax
	movl	%eax, (%rbx)
	addq	$8, %rsp
	.cfi_def_cfa_offset 24
	popq	%rbx
	.cfi_def_cfa_offset 16
	popq	%r14
	.cfi_def_cfa_offset 8
	retq
.Lfunc_end21:
	.size	_Z14ryu_f32_to_decfPjPi, .Lfunc_end21-_Z14ryu_f32_to_decfPjPi
	.cfi_endproc
                                        # -- End function
	.globl	teju_ieee64_with_uint128        # -- Begin function teju_ieee64_with_uint128
	.p2align	4, 0x90
	.type	teju_ieee64_with_uint128,@function
teju_ieee64_with_uint128:               # @teju_ieee64_with_uint128
	.cfi_startproc
# %bb.0:
	pushq	%rbp
	.cfi_def_cfa_offset 16
	pushq	%r15
	.cfi_def_cfa_offset 24
	pushq	%r14
	.cfi_def_cfa_offset 32
	pushq	%r13
	.cfi_def_cfa_offset 40
	pushq	%r12
	.cfi_def_cfa_offset 48
	pushq	%rbx
	.cfi_def_cfa_offset 56
	subq	$24, %rsp
	.cfi_def_cfa_offset 80
	.cfi_offset %rbx, -56
	.cfi_offset %r12, -48
	.cfi_offset %r13, -40
	.cfi_offset %r14, -32
	.cfi_offset %r15, -24
	.cfi_offset %rbp, -16
	movl	%edi, %r15d
	testl	%edi, %edi
	jg	.LBB22_5
# %bb.1:
	movl	%r15d, %eax
	negl	%eax
	cmpl	$52, %eax
	ja	.LBB22_5
# %bb.2:
	bzhiq	%rax, %rsi, %rcx
	jne	.LBB22_5
# %bb.3:
	movl	%eax, %edx
	movabsq	$-3689348814741910323, %rax     # imm = 0xCCCCCCCCCCCCCCCD
	movabsq	$1844674407370955162, %rcx      # imm = 0x199999999999999A
	shrxq	%rdx, %rsi, %rsi
	movl	$-1, %ebx
	.p2align	4, 0x90
.LBB22_4:                               # =>This Inner Loop Header: Depth=1
	movq	%rsi, %rdx
	imulq	%rax, %rsi
	incl	%ebx
	rorxq	$1, %rsi, %rsi
	cmpq	%rcx, %rsi
	jb	.LBB22_4
	jmp	.LBB22_56
.LBB22_5:
	leal	112815(%r15), %eax
	cmpl	$225631, %eax                   # imm = 0x3715F
	jae	.LBB22_57
# %bb.6:
	movslq	%r15d, %rax
	movl	$3566893131, %r13d              # imm = 0xD49A784B
	leaq	_ZL11multipliers(%rip), %rcx
	imulq	$1292913987, %rax, %rbx         # imm = 0x4D104D43
	imull	$1292913987, %r15d, %eax        # imm = 0x4D104D43
	shrq	$32, %rbx
	imulq	%rax, %r13
	leal	324(%rbx), %eax
	shlq	$4, %rax
	movq	(%rax,%rcx), %r14
	movq	8(%rax,%rcx), %rax
	shrq	$62, %r13
	cmpl	$-1074, %r15d                   # imm = 0xFBCE
	je	.LBB22_12
# %bb.7:
	movabsq	$4503599627370496, %rcx         # imm = 0x10000000000000
	cmpq	%rcx, %rsi
	jne	.LBB22_12
# %bb.8:
	movabsq	$18014398509481983, %rcx        # imm = 0x3FFFFFFFFFFFFF
	movq	%rax, %rdx
	shlxq	%r13, %rcx, %r8
	mulxq	%r8, %rcx, %rcx
	movq	%r14, %rdx
	mulxq	%r8, %rdx, %rbp
	addq	%rcx, %rdx
	movabsq	$9007199254740993, %rdx         # imm = 0x20000000000001
	shlxq	%r13, %rdx, %rcx
	movq	%rax, %rdx
	adcq	$0, %rbp
	mulxq	%rcx, %rsi, %rsi
	movq	%r14, %rdx
	mulxq	%rcx, %rcx, %rdx
	shrq	%rbp
	addq	%rsi, %rcx
	adcq	$0, %rdx
	cmpq	%rdx, %rbp
	jae	.LBB22_26
# %bb.9:
	movq	%r14, 16(%rsp)                  # 8-byte Spill
	movabsq	$1844674407370955162, %r14      # imm = 0x199999999999999A
	mulxq	%r14, %r12, %r12
	leaq	(%r12,%r12), %rax
	leaq	(%rax,%rax,4), %rax
	cmpq	%rbp, %rax
	jbe	.LBB22_37
# %bb.10:
	movabsq	$-3689348814741910323, %rax     # imm = 0xCCCCCCCCCCCCCCCD
	.p2align	4, 0x90
.LBB22_11:                              # =>This Inner Loop Header: Depth=1
	movq	%r12, %rcx
	imulq	%rax, %rcx
	movq	%r12, %rdx
	incl	%ebx
	rorxq	$1, %rcx, %r12
	cmpq	%r14, %r12
	jb	.LBB22_11
	jmp	.LBB22_56
.LBB22_12:
	leaq	-1(%rsi,%rsi), %rcx
	movq	%rax, %rdx
	shlxq	%r13, %rcx, %r9
	mulxq	%r9, %rcx, %rcx
	movq	%r14, %rdx
	mulxq	%r9, %rdx, %r11
	addq	%rcx, %rdx
	leaq	1(%rsi,%rsi), %rcx
	movq	%rax, %rdx
	adcq	$0, %r11
	shlxq	%r13, %rcx, %r10
	mulxq	%r10, %rdi, %rdi
	movq	%r14, %rdx
	mulxq	%r10, %rdx, %rcx
	addq	%rdi, %rdx
	movabsq	$1844674407370955162, %rdi      # imm = 0x199999999999999A
	adcq	$0, %rcx
	movq	%rcx, %rdx
	mulxq	%rdi, %r8, %r8
	movq	%r11, %rdx
	leaq	(%r8,%r8), %r11
	leaq	(%r11,%r11,4), %r11
	cmpq	%rdx, %r11
	jbe	.LBB22_19
# %bb.13:
	cmpl	$26, %ebx
	ja	.LBB22_17
# %bb.14:
	cmpq	%rcx, %r11
	jb	.LBB22_17
# %bb.15:
	movl	%esi, %r9d
	andl	$1, %r9d
	je	.LBB22_17
# %bb.16:
	movq	%rbx, %r9
	shlq	$4, %r9
	leaq	_ZL8minverse(%rip), %r11
	imulq	(%r9,%r11), %r10
	cmpq	8(%r9,%r11), %r10
	jbe	.LBB22_23
.LBB22_17:
	movabsq	$-3689348814741910323, %rax     # imm = 0xCCCCCCCCCCCCCCCD
	.p2align	4, 0x90
.LBB22_18:                              # =>This Inner Loop Header: Depth=1
	movq	%r8, %rcx
	imulq	%rax, %rcx
	movq	%r8, %rdx
	incl	%ebx
	rorxq	$1, %rcx, %r8
	cmpq	%rdi, %r8
	jb	.LBB22_18
	jmp	.LBB22_56
.LBB22_19:
	cmpl	$26, %ebx
	ja	.LBB22_23
# %bb.20:
	cmpq	%rdx, %r11
	jne	.LBB22_23
# %bb.21:
	movl	%esi, %r10d
	andl	$1, %r10d
	jne	.LBB22_23
# %bb.22:
	movq	%rbx, %r10
	shlq	$4, %r10
	leaq	_ZL8minverse(%rip), %r11
	imulq	(%r10,%r11), %r9
	cmpq	8(%r10,%r11), %r9
	jbe	.LBB22_47
.LBB22_23:
	addq	%rcx, %rdx
	testb	$1, %dl
	jne	.LBB22_36
# %bb.24:
	shlq	$2, %rsi
	movl	%r13d, %ecx
	movq	%rax, %rdx
	shlxq	%rcx, %rsi, %rcx
	mulxq	%rcx, %rsi, %rsi
	movq	%r14, %rdx
	mulxq	%rcx, %rcx, %rax
	addq	%rsi, %rcx
	adcq	$0, %rax
	movq	%rax, %rdx
	shrq	%rdx
	testb	$1, %al
	jne	.LBB22_52
	jmp	.LBB22_56
.LBB22_26:
	movabsq	$3689348814741910324, %rcx      # imm = 0x3333333333333334
	movq	%r8, %rdx
	mulxq	%rcx, %rcx, %rcx
	testl	%r15d, %r15d
	js	.LBB22_30
# %bb.27:
	leaq	(%rcx,%rcx,4), %rcx
	movq	%r8, %rdx
	subq	%rcx, %rdx
	jne	.LBB22_30
# %bb.28:
	cmpl	$27, %ebx
	jae	.LBB22_58
# %bb.29:
	movq	%rbx, %rcx
	shlq	$4, %rcx
	leaq	_ZL8minverse(%rip), %rdx
	imulq	(%rcx,%rdx), %r8
	cmpq	8(%rcx,%rdx), %r8
	jbe	.LBB22_49
.LBB22_30:
	movabsq	$180143985094819840, %rdx       # imm = 0x280000000000000
	movl	%r13d, %ecx
	shlxq	%rcx, %rdx, %rcx
	movq	%rax, %rdx
	mulxq	%rcx, %rsi, %rsi
	movq	%r14, %rdx
	mulxq	%rcx, %rcx, %rax
	addq	%rsi, %rcx
	adcq	$0, %rax
	movq	%rax, %rdx
	shrq	%rdx
	testb	$1, %al
	je	.LBB22_35
# %bb.31:
	testb	$2, %al
	jne	.LBB22_34
# %bb.32:
	movl	%ebx, %ecx
	negl	%ecx
	cmpl	$26, %ecx
	ja	.LBB22_34
# %bb.33:
	movl	%ecx, %ecx
	shlq	$4, %rcx
	leaq	_ZL8minverse(%rip), %rsi
	imulq	(%rcx,%rsi), %rax
	cmpq	8(%rcx,%rsi), %rax
	jbe	.LBB22_35
.LBB22_34:
	incq	%rdx
.LBB22_35:
	decl	%ebx
	jmp	.LBB22_56
.LBB22_36:
	shrq	%rdx
	jmp	.LBB22_55
.LBB22_37:
	jne	.LBB22_41
# %bb.38:
	movl	%ebx, %edi
	movq	%r8, %rsi
	movq	%r8, 8(%rsp)                    # 8-byte Spill
	callq	_ZL16is_tie_uncentredim
	movq	8(%rsp), %r8                    # 8-byte Reload
	testb	%al, %al
	je	.LBB22_41
# %bb.39:
	movabsq	$-3689348814741910323, %rax     # imm = 0xCCCCCCCCCCCCCCCD
	.p2align	4, 0x90
.LBB22_40:                              # =>This Inner Loop Header: Depth=1
	movq	%r12, %rcx
	imulq	%rax, %rcx
	movq	%r12, %rdx
	incl	%ebx
	rorxq	$1, %rcx, %r12
	cmpq	%r14, %r12
	jb	.LBB22_40
	jmp	.LBB22_56
.LBB22_41:
	movb	$10, %al
	subb	%r13b, %al
	shrxq	%rax, 16(%rsp), %rax            # 8-byte Folded Reload
	movq	%rax, %rdx
	shrq	%rdx
	cmpq	%rbp, %rdx
	jne	.LBB22_51
# %bb.42:
	movabsq	$3689348814741910324, %rcx      # imm = 0x3333333333333334
	movq	%rdx, %rsi
	movq	%r8, %rdx
	mulxq	%rcx, %rcx, %rcx
	testl	%r15d, %r15d
	js	.LBB22_46
# %bb.43:
	leaq	(%rcx,%rcx,4), %rcx
	movq	%rsi, %rdx
	movq	%r8, %rsi
	subq	%rcx, %rsi
	jne	.LBB22_46
# %bb.44:
	cmpl	$27, %ebx
	jae	.LBB22_58
# %bb.45:
	movq	%rbx, %rcx
	shlq	$4, %rcx
	leaq	_ZL8minverse(%rip), %rsi
	imulq	(%rcx,%rsi), %r8
	cmpq	8(%rcx,%rsi), %r8
	jbe	.LBB22_51
.LBB22_46:
	incq	%rbp
	movq	%rbp, %rdx
	jmp	.LBB22_56
.LBB22_47:
	movabsq	$-3689348814741910323, %rax     # imm = 0xCCCCCCCCCCCCCCCD
	.p2align	4, 0x90
.LBB22_48:                              # =>This Inner Loop Header: Depth=1
	movq	%r8, %rcx
	imulq	%rax, %rcx
	movq	%r8, %rdx
	incl	%ebx
	rorxq	$1, %rcx, %r8
	cmpq	%rdi, %r8
	jb	.LBB22_48
	jmp	.LBB22_56
.LBB22_49:
	movabsq	$-3689348814741910323, %rax     # imm = 0xCCCCCCCCCCCCCCCD
	movabsq	$1844674407370955162, %rcx      # imm = 0x199999999999999A
	decl	%ebx
	.p2align	4, 0x90
.LBB22_50:                              # =>This Inner Loop Header: Depth=1
	movq	%rbp, %rsi
	imulq	%rax, %rsi
	movq	%rbp, %rdx
	incl	%ebx
	rorxq	$1, %rsi, %rbp
	cmpq	%rcx, %rbp
	jb	.LBB22_50
	jmp	.LBB22_56
.LBB22_51:
	testb	$1, %al
	je	.LBB22_56
.LBB22_52:
	testb	$2, %al
	jne	.LBB22_55
# %bb.53:
	movl	%ebx, %ecx
	negl	%ecx
	cmpl	$26, %ecx
	ja	.LBB22_55
# %bb.54:
	movl	%ecx, %ecx
	shlq	$4, %rcx
	leaq	_ZL8minverse(%rip), %rsi
	imulq	(%rcx,%rsi), %rax
	cmpq	8(%rcx,%rsi), %rax
	jbe	.LBB22_56
.LBB22_55:
	incq	%rdx
.LBB22_56:
	movl	%ebx, %eax
	addq	$24, %rsp
	.cfi_def_cfa_offset 56
	popq	%rbx
	.cfi_def_cfa_offset 48
	popq	%r12
	.cfi_def_cfa_offset 40
	popq	%r13
	.cfi_def_cfa_offset 32
	popq	%r14
	.cfi_def_cfa_offset 24
	popq	%r15
	.cfi_def_cfa_offset 16
	popq	%rbp
	.cfi_def_cfa_offset 8
	retq
.LBB22_57:
	.cfi_def_cfa_offset 80
	leaq	.L.str.93(%rip), %rdi
	leaq	.L.str.94(%rip), %rsi
	leaq	.L__PRETTY_FUNCTION__._ZL15teju_log10_pow2i(%rip), %rcx
	movl	$62, %edx
	callq	__assert_fail@PLT
.LBB22_58:
	leaq	.L.str.95(%rip), %rdi
	leaq	.L.str.92(%rip), %rsi
	leaq	.L__PRETTY_FUNCTION__._ZL19is_multiple_of_pow5im(%rip), %rcx
	movl	$64, %edx
	callq	__assert_fail@PLT
.Lfunc_end22:
	.size	teju_ieee64_with_uint128, .Lfunc_end22-teju_ieee64_with_uint128
	.cfi_endproc
                                        # -- End function
	.p2align	4, 0x90                         # -- Begin function _ZL16is_tie_uncentredim
	.type	_ZL16is_tie_uncentredim,@function
_ZL16is_tie_uncentredim:                # @_ZL16is_tie_uncentredim
	.cfi_startproc
# %bb.0:
	movabsq	$-3689348814741910323, %rax     # imm = 0xCCCCCCCCCCCCCCCD
	movq	%rsi, %rdx
	mulxq	%rax, %rcx, %rcx
	xorl	%eax, %eax
	testl	%edi, %edi
	js	.LBB23_4
# %bb.1:
	shrq	$2, %rcx
	movq	%rdx, %rsi
	leaq	(%rcx,%rcx,4), %rcx
	subq	%rcx, %rsi
	jne	.LBB23_4
# %bb.2:
	cmpl	$27, %edi
	jae	.LBB23_5
# %bb.3:
	movl	%edi, %eax
	shlq	$4, %rax
	leaq	_ZL8minverse(%rip), %rcx
	imulq	(%rax,%rcx), %rdx
	cmpq	8(%rax,%rcx), %rdx
	setbe	%al
.LBB23_4:
                                        # kill: def $al killed $al killed $eax
	retq
.LBB23_5:
	pushq	%rax
	.cfi_def_cfa_offset 16
	leaq	.L.str.95(%rip), %rdi
	leaq	.L.str.92(%rip), %rsi
	leaq	.L__PRETTY_FUNCTION__._ZL19is_multiple_of_pow5im(%rip), %rcx
	movl	$64, %edx
	callq	__assert_fail@PLT
.Lfunc_end23:
	.size	_ZL16is_tie_uncentredim, .Lfunc_end23-_ZL16is_tie_uncentredim
	.cfi_endproc
                                        # -- End function
	.globl	_Z15teju_f64_to_decdPyPi        # -- Begin function _Z15teju_f64_to_decdPyPi
	.p2align	4, 0x90
	.type	_Z15teju_f64_to_decdPyPi,@function
_Z15teju_f64_to_decdPyPi:               # @_Z15teju_f64_to_decdPyPi
	.cfi_startproc
# %bb.0:
	pushq	%r14
	.cfi_def_cfa_offset 16
	pushq	%rbx
	.cfi_def_cfa_offset 24
	pushq	%rax
	.cfi_def_cfa_offset 32
	.cfi_offset %rbx, -24
	.cfi_offset %r14, -16
	vmovq	%xmm0, %rax
	movb	$52, %cl
	movq	%rsi, %rbx
	movq	%rdi, %r14
	bzhiq	%rcx, %rax, %rsi
	movl	$2868, %ecx                     # imm = 0xB34
	bextrq	%rcx, %rax, %rdi
	je	.LBB24_1
# %bb.2:
	movabsq	$4503599627370495, %rax         # imm = 0xFFFFFFFFFFFFF
	addl	$-1075, %edi                    # imm = 0xFBCD
	leaq	1(%rsi,%rax), %rsi
.LBB24_3:
                                        # kill: def $edi killed $edi killed $rdi
	callq	teju_ieee64_with_uint128
	movq	%rdx, (%r14)
	movl	%eax, (%rbx)
	addq	$8, %rsp
	.cfi_def_cfa_offset 24
	popq	%rbx
	.cfi_def_cfa_offset 16
	popq	%r14
	.cfi_def_cfa_offset 8
	retq
.LBB24_1:
	.cfi_def_cfa_offset 32
	movl	$-1074, %edi                    # imm = 0xFBCE
	jmp	.LBB24_3
.Lfunc_end24:
	.size	_Z15teju_f64_to_decdPyPi, .Lfunc_end24-_Z15teju_f64_to_decdPyPi
	.cfi_endproc
                                        # -- End function
	.globl	_Z42generalized_granlund_montgomery_branchlessm # -- Begin function _Z42generalized_granlund_montgomery_branchlessm
	.p2align	4, 0x90
	.type	_Z42generalized_granlund_montgomery_branchlessm,@function
_Z42generalized_granlund_montgomery_branchlessm: # @_Z42generalized_granlund_montgomery_branchlessm
	.cfi_startproc
# %bb.0:
	movabsq	$28999941890838049, %rcx        # imm = 0x67074B22E90E21
	movabsq	$184467440969, %rsi             # imm = 0x2AF31DC549
	xorl	%eax, %eax
	movabsq	$1844674407370971, %r8          # imm = 0x68DB8BAC710DB
	movabsq	$-3504881374004814807, %r10     # imm = 0xCF5C28F5C28F5C29
	imulq	%rdi, %rcx
	movq	%rcx, %rdx
	shrq	$8, %rdx
	cmpq	%rsi, %rcx
	movabsq	$182622766329724561, %rsi       # imm = 0x288CE703AFB7E91
	cmovaeq	%rdi, %rdx
	setb	%al
	xorl	%ecx, %ecx
	imulq	%rdx, %rsi
	movq	%rsi, %rdi
	shrq	$4, %rdi
	cmpq	%r8, %rsi
	movabsq	$184467440737095517, %r8        # imm = 0x28F5C28F5C28F5D
	cmovaeq	%rdx, %rdi
	setb	%cl
	xorl	%r9d, %r9d
	movabsq	$5534023222112865485, %rdx      # imm = 0x4CCCCCCCCCCCCCCD
	imulq	%rdi, %r10
	movq	%r10, %rsi
	shrq	$2, %rsi
	cmpq	%r8, %r10
	cmovaeq	%rdi, %rsi
	setb	%r9b
	xorl	%edi, %edi
	imulq	%rsi, %rdx
	movabsq	$1844674407370955163, %rsi      # imm = 0x199999999999999B
	cmpq	%rsi, %rdx
	setb	%dil
	shll	$2, %ecx
	leal	(%rcx,%rax,8), %eax
	leal	(%rax,%r9,2), %eax
	orq	%rdi, %rax
	retq
.Lfunc_end25:
	.size	_Z42generalized_granlund_montgomery_branchlessm, .Lfunc_end25-_Z42generalized_granlund_montgomery_branchlessm
	.cfi_endproc
                                        # -- End function
	.section	.rodata,"a",@progbits
	.p2align	6, 0x0                          # -- Begin function _Z21f64_bin_to_dec_xjb_v2miPmPi
.LCPI26_0:
	.long	4224909312                      # 0xfbd30000
	.long	4225564672                      # 0xfbdd0000
	.long	4228841472                      # 0xfc0f0000
	.long	4239720448                      # 0xfcb50000
	.long	4239917056                      # 0xfcb80000
	.long	4240572416                      # 0xfcc20000
	.long	4246011904                      # 0xfd150000
	.long	4259512320                      # 0xfde30000
	.long	4267573248                      # 0xfe5e0000
	.long	4272160768                      # 0xfea40000
	.long	4282384384                      # 0xff400000
	.long	4285202432                      # 0xff6b0000
	.long	4286513152                      # 0xff7f0000
	.long	2424832                         # 0x250000
	.long	8519680                         # 0x820000
	.long	14614528                        # 0xdf0000
	.section	.rodata.cst32,"aM",@progbits,32
	.p2align	5, 0x0
.LCPI26_1:
	.long	16580608                        # 0xfd0000
	.long	19202048                        # 0x1250000
	.long	21364736                        # 0x1460000
	.long	22675456                        # 0x15a0000
	.long	23134208                        # 0x1610000
	.long	28114944                        # 0x1ad0000
	.long	34209792                        # 0x20a0000
	.long	35520512                        # 0x21e0000
	.text
	.globl	_Z21f64_bin_to_dec_xjb_v2miPmPi
	.p2align	4, 0x90
	.type	_Z21f64_bin_to_dec_xjb_v2miPmPi,@function
_Z21f64_bin_to_dec_xjb_v2miPmPi:        # @_Z21f64_bin_to_dec_xjb_v2miPmPi
	.cfi_startproc
# %bb.0:
	movq	%rdx, %rax
	imull	$315653, %esi, %edx             # imm = 0x4D105
	movabsq	$4503599627370496, %r8          # imm = 0x10000000000000
	cmpq	%r8, %rdi
	je	.LBB26_1
.LBB26_2:
	pushq	%r15
	.cfi_def_cfa_offset 16
	pushq	%r14
	.cfi_def_cfa_offset 24
	pushq	%rbx
	.cfi_def_cfa_offset 32
	.cfi_offset %rbx, -32
	.cfi_offset %r14, -24
	.cfi_offset %r15, -16
	sarl	$20, %edx
	leaq	_ZL15pow10_sig_table(%rip), %r10
	movl	%edx, (%rcx)
	notl	%edx
	imull	$217707, %edx, %r9d             # imm = 0x3526B
	addl	%edx, %edx
	movslq	%edx, %rcx
	movq	5488(%r10,%rcx,8), %r11
	shrl	$16, %r9d
	addl	%esi, %r9d
	leal	11(%r9), %edx
	shlxq	%rdx, %rdi, %rdx
	mulxq	5496(%r10,%rcx,8), %r10, %r10
	mulxq	%r11, %rbx, %rcx
	addq	%r10, %rbx
	adcq	$0, %rcx
	movq	%rbx, %rdx
	andl	$1023, %ebx                     # imm = 0x3FF
	shrq	$10, %rdx
	negb	%r9b
	movq	%rcx, %r10
	shlq	$54, %r10
	addl	%ebx, %ebx
	orq	%r10, %rdx
	movl	$10, %r10d
	leal	(%rbx,%rbx,4), %r14d
	mulxq	%r10, %r15, %rbx
	shrl	$10, %r14d
	addq	%r14, %r15
	movabsq	$-9223372036854775808, %r14     # imm = 0x8000000000000000
	movq	%r15, %r10
	shrq	$63, %r10
	addq	%rbx, %r10
	cmpq	%r14, %r15
	je	.LBB26_3
# %bb.4:
	shrxq	%r9, %r11, %r9
	cmpq	%r8, %rdi
	je	.LBB26_5
.LBB26_6:
	movq	%rdx, %rsi
	notq	%rsi
	cmpq	%rsi, %r9
	popq	%rbx
	.cfi_def_cfa_offset 24
	popq	%r14
	.cfi_def_cfa_offset 16
	popq	%r15
	.cfi_def_cfa_offset 8
	.cfi_restore %rbx
	.cfi_restore %r14
	.cfi_restore %r15
	je	.LBB26_7
.LBB26_8:
	cmpq	%rsi, %r9
	movl	$10, %esi
	cmovbeq	%r10, %rsi
	cmpq	%r8, %rdi
	je	.LBB26_12
# %bb.9:
	cmpq	%rdx, %r9
	je	.LBB26_10
.LBB26_11:
	xorl	%edi, %edi
	cmpq	%rdx, %r9
	cmovbeq	%rsi, %rdi
.LBB26_13:
	shrq	$10, %rcx
	leaq	(%rcx,%rcx,4), %rcx
	leaq	(%rdi,%rcx,2), %rcx
	movq	%rcx, (%rax)
	vzeroupper
	retq
.LBB26_1:
	addl	$-131237, %edx                  # imm = 0xFFFDFF5B
	jmp	.LBB26_2
.LBB26_3:
	.cfi_def_cfa_offset 32
	.cfi_offset %rbx, -32
	.cfi_offset %r14, -24
	.cfi_offset %r15, -16
	andl	$1, %ebx
	leaq	-1(%rbx,%r10), %r10
	shrxq	%r9, %r11, %r9
	cmpq	%r8, %rdi
	jne	.LBB26_6
.LBB26_5:
	vpbroadcastd	%esi, %zmm0
	shll	$16, %esi
	xorl	%r11d, %r11d
	vpslld	$16, %zmm0, %zmm1
	vpslld	$16, %ymm0, %ymm0
	vpcmpeqd	.LCPI26_1(%rip), %ymm0, %k1
	vpcmpeqd	.LCPI26_0(%rip), %zmm1, %k0
	cmpl	$53149696, %esi                 # imm = 0x32B0000
	sete	%r11b
	xorl	%ebx, %ebx
	cmpl	$60555264, %esi                 # imm = 0x39C0000
	sete	%bl
	addq	%rbx, %r10
	kmovw	%k0, %esi
	kmovb	%k1, %r14d
	popcntq	%rsi, %rsi
	popcntq	%r14, %r14
	addq	%rsi, %r14
	addq	%r11, %r14
	addq	%r14, %r10
	jmp	.LBB26_6
.LBB26_7:
	.cfi_def_cfa_offset 8
	.cfi_restore %rbx
	.cfi_restore %r14
	.cfi_restore %r15
	testb	$1, %dil
	movl	$10, %r11d
	cmoveq	%r11, %r10
	jmp	.LBB26_8
.LBB26_12:
	shrq	%r9
	xorl	%edi, %edi
	cmpq	%rdx, %r9
	cmovbq	%rsi, %rdi
	jmp	.LBB26_13
.LBB26_10:
	xorl	%r8d, %r8d
	testb	$1, %dil
	cmoveq	%r8, %rsi
	jmp	.LBB26_11
.Lfunc_end26:
	.size	_Z21f64_bin_to_dec_xjb_v2miPmPi, .Lfunc_end26-_Z21f64_bin_to_dec_xjb_v2miPmPi
	.cfi_endproc
                                        # -- End function
	.section	.rodata.cst8,"aM",@progbits,8
	.p2align	3, 0x0                          # -- Begin function yy_double_to_string
.LCPI27_0:
	.quad	0x7fffffffffffffff              # double NaN
	.section	.rodata.cst16,"aM",@progbits,16
	.p2align	4, 0x0
.LCPI27_1:
	.zero	16,48
	.section	.rodata.cst4,"aM",@progbits,4
	.p2align	2, 0x0
.LCPI27_2:
	.zero	4,48
	.text
	.globl	yy_double_to_string
	.p2align	4, 0x90
	.type	yy_double_to_string,@function
yy_double_to_string:                    # @yy_double_to_string
	.cfi_startproc
# %bb.0:
	pushq	%rbp
	.cfi_def_cfa_offset 16
	pushq	%r15
	.cfi_def_cfa_offset 24
	pushq	%r14
	.cfi_def_cfa_offset 32
	pushq	%r13
	.cfi_def_cfa_offset 40
	pushq	%r12
	.cfi_def_cfa_offset 48
	pushq	%rbx
	.cfi_def_cfa_offset 56
	.cfi_offset %rbx, -56
	.cfi_offset %r12, -48
	.cfi_offset %r13, -40
	.cfi_offset %r14, -32
	.cfi_offset %r15, -24
	.cfi_offset %rbp, -16
	vmovq	%xmm0, %r10
	vpandq	.LCPI27_0(%rip){1to2}, %xmm0, %xmm0
	movabsq	$9999999999999999, %rbp         # imm = 0x2386F26FC0FFFF
	movb	$45, (%rdi)
	movq	%r10, %rax
	shrq	$63, %rax
	leaq	1(%rbp), %rsi
	addq	%rdi, %rax
	vmovq	%xmm0, %rcx
	vcvttsd2usi	%xmm0, %rdx
	cmpq	%rsi, %rdx
	jae	.LBB27_4
# %bb.1:
	vcvtusi2sd	%rdx, %xmm1, %xmm0
	vmovq	%xmm0, %rsi
	cmpq	%rsi, %rcx
	jne	.LBB27_4
# %bb.2:
	movabsq	$-67818912035696881, %rsi       # imm = 0xFF0F0F0F0F0F0F0F
	cmpq	$99999999, %rdx                 # imm = 0x5F5E0FF
	ja	.LBB27_13
# %bb.3:
	movabsq	$18446744073710, %rcx           # imm = 0x10C6F7A0B5EE
	movl	$1000, %edi                     # imm = 0x3E8
	mulxq	%rcx, %rdx, %rcx
	mulxq	%rdi, %rdx, %r8
	movzbl	%cl, %ecx
	mulxq	%rdi, %rdx, %rdx
	leaq	_ZL11digit_table(%rip), %rdi
	movzwl	(%rdi,%rcx,2), %ecx
	leaq	_ZL9digit1000(%rip), %rdi
	movl	(%rdi,%r8,4), %r8d
	movl	(%rdi,%rdx,4), %edx
	shlq	$16, %r8
	orq	%rcx, %r8
	shlq	$40, %rdx
	orq	%r8, %rdx
	andq	%rdx, %rsi
	lzcntq	%rsi, %rcx
	movl	%ecx, %esi
	andb	$56, %cl
	shrl	$3, %esi
	shrxq	%rcx, %rdx, %rcx
	movq	%rcx, (%rax)
	subq	%rsi, %rax
	addq	$8, %rax
	jmp	.LBB27_14
.LBB27_4:
	movb	$52, %dl
	shrq	$52, %rcx
	bzhiq	%rdx, %r10, %rsi
	cmpq	$2047, %rcx                     # imm = 0x7FF
	je	.LBB27_17
# %bb.5:
	vbroadcastss	.LCPI27_2(%rip), %xmm0  # xmm0 = [48,48,48,48,48,48,48,48,48,48,48,48,48,48,48,48]
	vmovupd	%xmm0, (%rax)
	testl	%ecx, %ecx
	je	.LBB27_19
# %bb.6:
	addl	$-1075, %ecx                    # imm = 0xFBCD
	movabsq	$4503599627370495, %rdx         # imm = 0xFFFFFFFFFFFFF
	movabsq	$-9223372036854775808, %r9      # imm = 0x8000000000000000
	movabsq	$1844674407370955162, %r14      # imm = 0x199999999999999A
	imull	$315653, %ecx, %r11d            # imm = 0x4D105
	leaq	1(%rdx,%rsi), %rdx
	testq	%rsi, %rsi
	je	.LBB27_24
# %bb.7:
	sarl	$20, %r11d
	movl	$686, %r15d                     # imm = 0x2AE
	leaq	_ZL15pow10_sig_table(%rip), %rbx
	xorl	%r13d, %r13d
	imull	$-217707, %r11d, %ebp           # imm = 0xFFFCAD95
	subl	%r11d, %r15d
	subl	%r11d, %r15d
	movl	$4, %r12d
	movq	(%rbx,%r15,8), %r8
	sarl	$16, %ebp
	addl	%ecx, %ebp
	leal	1(%rbp), %edi
	shlxq	%rdi, %rdx, %rdi
	movq	%rdi, %rdx
	mulxq	8(%rbx,%r15,8), %rcx, %rcx
	movq	%r8, %rdx
	mulxq	%rdi, %rbx, %rdx
	addq	%rcx, %rbx
	adcq	$0, %rdx
	subl	%ebp, %r12d
	mulxq	%r14, %rcx, %rcx
	cmpq	%r9, %rbx
	je	.LBB27_27
# %bb.8:
	addq	%rcx, %rcx
	movl	%edx, %r9d
	shrxq	%r12, %r8, %r8
	leaq	(%rcx,%rcx,4), %rbp
	movq	%rbx, %rcx
	shrq	$4, %rcx
	subl	%ebp, %r9d
	shlq	$60, %r9
	orq	%r9, %rcx
	cmpq	%rcx, %r8
	je	.LBB27_27
# %bb.9:
	movq	%r14, %r13
	leaq	(%rcx,%r8), %r9
	movabsq	$6917529027641081855, %r14      # imm = 0x5FFFFFFFFFFFFFFF
	leaq	2(%r14,%r9), %r14
	cmpq	$2, %r14
	jb	.LBB27_16
# %bb.10:
	movabsq	$-6917529027641081856, %rsi     # imm = 0xA000000000000000
	shrq	$63, %rbx
	orq	$1, %rsi
	addq	%rdx, %rbx
	leaq	10(%rbp), %rdx
	cmpq	%rsi, %r9
	cmovbq	%rbp, %rdx
	movabsq	$9999999999999999, %rbp         # imm = 0x2386F26FC0FFFF
	cmovaeq	%rdx, %rbx
	cmpq	%rcx, %r8
	cmovaq	%rdx, %rbx
.LBB27_11:
	cmpq	%rbx, %rbp
	movabsq	$1085102592571150095, %r12      # imm = 0xF0F0F0F0F0F0F0F
	movabsq	$70368744177662, %r13           # imm = 0x3FFFFFFFFFFE
	adcl	$0, %r11d
	leal	16(%r11), %r15d
	addl	$22, %r11d
	cmpl	$14, %r11d
	ja	.LBB27_25
# %bb.12:
	movabsq	$-6067343680855748867, %rsi     # imm = 0xABCC77118461CEFD
	movq	%rbx, %rdx
	movl	%r15d, %ecx
	subl	$2, %ecx
	movl	$1, %r9d
	movabsq	$18446744073710, %rbp           # imm = 0x10C6F7A0B5EE
	leaq	_ZL9digit1000(%rip), %r12
	mulxq	%rsi, %rdx, %rdx
	cmovgel	%r15d, %r9d
	negl	%ecx
	xorl	%r14d, %r14d
	xorl	%r11d, %r11d
	testl	%r15d, %r15d
	movq	%r15, -8(%rsp)                  # 8-byte Spill
	cmovgl	%r14d, %ecx
	setg	%r11b
	cmovgl	%r15d, %r14d
	movslq	%ecx, %rcx
	shrq	$26, %rdx
	mulxq	%rbp, %rsi, %r15
	imulq	$-100000000, %rdx, %rdi         # imm = 0xFA0A1F00
	addq	%rbx, %rdi
	movl	(%r12,%r15,4), %r10d
	movl	%r10d, %r13d
	shrl	$8, %r13d
	cmpq	$100, %r15
	leaq	(%rax,%rcx), %r15
	movl	%r13d, %edx
	cmovael	%r10d, %edx
	movl	$1000, %r10d                    # imm = 0x3E8
	movl	%edx, (%rax,%rcx)
	movq	%rsi, %rdx
	mulxq	%r10, %rdx, %rbx
	movq	%r15, %rsi
	sbbq	$-1, %rsi
	mulxq	%r10, %r8, %r8
	movq	%rdi, %rdx
	mulxq	%rbp, %rcx, %rdi
	movq	%rcx, %rdx
	shrq	$63, %rcx
	leaq	(%rcx,%rdi,2), %rcx
	mulxq	%r10, %rdx, %rdi
	mulxq	%r10, %r10, %r10
	movabsq	$70368744177662, %rdx           # imm = 0x3FFFFFFFFFFE
	movl	(%r12,%rbx,4), %ebx
	movl	(%r12,%rdi,4), %edi
	andq	%rdx, %rcx
	leaq	_ZL11digit_table(%rip), %rdx
	movzwl	(%rcx,%rdx), %ebp
	movl	(%r12,%r8,4), %edx
	movl	(%r12,%r10,4), %ecx
	shlq	$16, %rbx
	shlq	$16, %rdi
	orq	%r13, %rbx
	shlq	$40, %rdx
	orq	%rbp, %rdi
	shlq	$40, %rcx
	orq	%rbx, %rdx
	orq	%rdi, %rcx
	movq	%rdx, (%rsi)
	movabsq	$1085102592571150095, %rdi      # imm = 0xF0F0F0F0F0F0F0F
	movq	%rcx, 8(%rsi)
	andq	%rdi, %rdx
	andq	%rdi, %rcx
	vmovupd	(%r14,%r15), %xmm0
	lzcntq	%rdx, %rdi
	lzcntq	%rcx, %r8
	shrl	$3, %edi
	shrl	$3, %r8d
	orq	$8, %rdi
	testq	%rdx, %rdx
	movl	$16, %edx
	cmovneq	%rdi, %rdx
	testq	%rcx, %rcx
	leaq	(%r15,%r14), %rcx
	cmovneq	%r8, %rdx
	subq	%rdx, %rsi
	leaq	16(%r11,%rsi), %rdx
	vmovupd	%xmm0, (%r11,%rcx)
	movslq	-8(%rsp), %rcx                  # 4-byte Folded Reload
	movb	$46, (%rax,%r9)
	leaq	2(%rax,%rcx), %rax
	cmpq	%rdx, %rax
	cmovaq	%rax, %rdx
	movq	%rdx, %rax
	jmp	.LBB27_15
.LBB27_13:
	movabsq	$-6067343680855748867, %rdi     # imm = 0xABCC77118461CEFD
	movq	%rdx, %rcx
	movabsq	$18446744073710, %r8            # imm = 0x10C6F7A0B5EE
	leaq	_ZL11digit_table(%rip), %r10
	mulxq	%rdi, %rdx, %rdx
	movl	$4194967296, %edi               # imm = 0xFA0A1F00
	shrq	$26, %rdx
	imull	%edx, %edi
	mulxq	%r8, %rdx, %r9
	addl	%edi, %ecx
	movl	$1000, %edi                     # imm = 0x3E8
	mulxq	%rdi, %rdx, %r11
	andl	$8191, %r9d                     # imm = 0x1FFF
	mulxq	%rdi, %rdx, %rdx
	movzwl	(%r10,%r9,2), %ebx
	leaq	_ZL9digit1000(%rip), %r9
	movl	(%r9,%r11,4), %r11d
	movl	(%r9,%rdx,4), %edx
	shlq	$16, %r11
	orq	%rbx, %r11
	shlq	$40, %rdx
	orq	%r11, %rdx
	andq	%rdx, %rsi
	lzcntq	%rsi, %rsi
	movl	%esi, %r11d
	andb	$56, %sil
	shrl	$3, %r11d
	shrxq	%rsi, %rdx, %rdx
	movq	%rdx, (%rax)
	movq	%rcx, %rdx
	mulxq	%r8, %rdx, %rcx
	subq	%r11, %rax
	mulxq	%rdi, %rdx, %rsi
	mulxq	%rdi, %rdx, %rdx
	movzwl	(%r10,%rcx,2), %ecx
	movl	(%r9,%rsi,4), %esi
	movl	(%r9,%rdx,4), %edx
	shlq	$16, %rsi
	orq	%rcx, %rsi
	shlq	$40, %rdx
	orq	%rsi, %rdx
	movq	%rdx, 8(%rax)
	addq	$16, %rax
.LBB27_14:
	movw	$12334, (%rax)                  # imm = 0x302E
	addq	$2, %rax
.LBB27_15:
	popq	%rbx
	.cfi_def_cfa_offset 48
	popq	%r12
	.cfi_def_cfa_offset 40
	popq	%r13
	.cfi_def_cfa_offset 32
	popq	%r14
	.cfi_def_cfa_offset 24
	popq	%r15
	.cfi_def_cfa_offset 16
	popq	%rbp
	.cfi_def_cfa_offset 8
	retq
.LBB27_16:
	.cfi_def_cfa_offset 56
	movq	%r13, %r14
	movabsq	$9999999999999999, %rbp         # imm = 0x2386F26FC0FFFF
	xorl	%r13d, %r13d
	jmp	.LBB27_28
.LBB27_27:
	movabsq	$9999999999999999, %rbp         # imm = 0x2386F26FC0FFFF
	jmp	.LBB27_28
.LBB27_17:
	testq	%rsi, %rsi
	je	.LBB27_33
# %bb.18:
	movl	$5136718, (%rax)                # imm = 0x4E614E
	addq	$3, %rax
	jmp	.LBB27_15
.LBB27_19:
	shlq	$3, %rsi
	movabsq	$7784369436827535057, %rcx      # imm = 0x6C07A2C26A8346D1
	movabsq	$-7054365918152680535, %r9      # imm = 0x9E19DB92B4E31BA9
	movabsq	$-8681120507179251991, %r8      # imm = 0x878676E4AD38C6E9
	movabsq	$-9223372036854775808, %rbx     # imm = 0x8000000000000000
	movabsq	$2848094538889217770, %rdi      # imm = 0x278676E4AD38C6EA
	movq	%rsi, %rdx
	mulxq	%rcx, %rcx, %rcx
	mulxq	%r9, %rsi, %rdx
	addq	%rcx, %rsi
	movabsq	$1844674407370955162, %rcx      # imm = 0x199999999999999A
	adcq	$0, %rdx
	movq	%rsi, %r11
	shrq	$4, %r11
	mulxq	%rcx, %rcx, %rcx
	movl	%edx, %r9d
	addq	%rcx, %rcx
	leaq	(%rcx,%rcx,4), %rcx
	subl	%ecx, %r9d
	shlq	$60, %r9
	orq	%r9, %r11
	leaq	2(%r8,%r11), %r14
	cmpq	%rbx, %rsi
	je	.LBB27_39
# %bb.20:
	cmpq	%rdi, %r11
	je	.LBB27_39
# %bb.21:
	cmpq	$2, %r14
	jb	.LBB27_39
# %bb.22:
	movabsq	$-6917529027641081856, %r9      # imm = 0xA000000000000000
	shrq	$63, %rsi
	leaq	(%r11,%rdi), %r8
	decq	%rdi
	orq	$1, %r9
	addq	%rdx, %rsi
	leaq	10(%rcx), %rdx
	cmpq	%r9, %r8
	cmovbq	%rcx, %rdx
	cmovaeq	%rdx, %rsi
	cmpq	%rdi, %r11
	cmovbeq	%rdx, %rsi
	movq	%rsi, %rcx
	movabsq	$1000000000000000, %rdx         # imm = 0x38D7EA4C68000
	cmpq	%rdx, %rcx
	jb	.LBB27_43
.LBB27_23:
	movabsq	$-6067343680855748867, %rsi     # imm = 0xABCC77118461CEFD
	movq	%rcx, %rdx
	movl	$4194967296, %edi               # imm = 0xFA0A1F00
	movabsq	$4153837486827862103, %r10      # imm = 0x39A5652FB1137857
	leaq	1(%rax), %r8
	leaq	_ZL9digit1000(%rip), %rbx
	leaq	_ZL11digit_table(%rip), %r11
	mulxq	%rsi, %r9, %r9
	shrq	$26, %r9
	movl	%r9d, %edx
	imull	%edi, %edx
	leal	(%rcx,%rdx), %esi
	movq	%rcx, %rdx
	mulxq	%r10, %rdx, %rdx
	shrq	$51, %rdx
	imull	%edx, %edi
	addb	$48, %dl
	movb	%dl, (%r8)
	addl	%r9d, %edi
	cmpq	%rcx, %rbp
	movabsq	$18446744073710, %rcx           # imm = 0x10C6F7A0B5EE
	movl	$1000, %r9d                     # imm = 0x3E8
	movq	%rdi, %rdx
	mulxq	%rcx, %rdx, %rdi
	adcq	$0, %r8
	mulxq	%r9, %rdx, %r10
	mulxq	%r9, %rdx, %rdx
	movzwl	(%r11,%rdi,2), %edi
	movl	(%rbx,%r10,4), %r10d
	movl	(%rbx,%rdx,4), %edx
	shlq	$16, %r10
	orq	%rdi, %r10
	shlq	$40, %rdx
	orq	%r10, %rdx
	movq	%rdx, (%r8)
	movq	%rsi, %rdx
	mulxq	%rcx, %rdx, %rcx
	mulxq	%r9, %rdx, %rsi
	mulxq	%r9, %rdx, %rdx
	movzwl	(%r11,%rcx,2), %ecx
	movl	(%rbx,%rsi,4), %esi
	movl	(%rbx,%rdx,4), %edx
	shlq	$16, %rsi
	orq	%rcx, %rsi
	shlq	$40, %rdx
	orq	%rsi, %rdx
	movq	%rdx, 8(%r8)
	addq	$16, %r8
	jmp	.LBB27_46
.LBB27_24:
	addl	$-131237, %r11d                 # imm = 0xFFFDFF5B
	movl	$686, %r15d                     # imm = 0x2AE
	movl	$4, %r12d
	xorl	%r13d, %r13d
	sarl	$20, %r11d
	imull	$-217707, %r11d, %r8d           # imm = 0xFFFCAD95
	subl	%r11d, %r15d
	subl	%r11d, %r15d
	sarl	$16, %r8d
	addl	%ecx, %r8d
	leal	1(%r8), %ecx
	subl	%r8d, %r12d
	shlxq	%rcx, %rdx, %rdi
.LBB27_28:
	leaq	_ZL15pow10_sig_table(%rip), %rcx
	movq	%r13, %r9
	movq	%rdi, %rdx
	movq	(%rcx,%r15,8), %r8
	movq	8(%rcx,%r15,8), %rcx
	imulq	%rcx, %r9
	mulxq	%rcx, %rcx, %rcx
	mulxq	%r8, %rdi, %rdx
	imulq	%r8, %r13
	shrxq	%r12, %r8, %r15
	addq	%r9, %rcx
	addq	%rcx, %rdi
	adcq	%r13, %rdx
	mulxq	%r14, %rcx, %rcx
	movl	%edx, %r14d
	addq	%rcx, %rcx
	leaq	(%rcx,%rcx,4), %rbx
	movq	%rdi, %rcx
	shrq	$4, %rcx
	subl	%ebx, %r14d
	shlq	$60, %r14
	orq	%rcx, %r14
	leaq	(%r14,%r15), %r8
	testq	%rsi, %rsi
	je	.LBB27_34
# %bb.29:
	movabsq	$-9223372036854775808, %rcx     # imm = 0x8000000000000000
	cmpq	%rcx, %rdi
	je	.LBB27_37
# %bb.30:
	shrq	$63, %rdi
	cmpq	%r14, %r15
	seta	%sil
	je	.LBB27_38
.LBB27_31:
	movabsq	$-6917529027641081856, %r9      # imm = 0xA000000000000000
	subq	%r8, %r9
	setb	%cl
	cmpq	$1, %r9
	jbe	.LBB27_35
.LBB27_32:
	movzbl	%dil, %edi
	addq	%rdx, %rdi
	testb	%sil, %sil
	cmovneq	%rbx, %rdi
	addq	$10, %rbx
	testb	%cl, %cl
	cmoveq	%rdi, %rbx
	jmp	.LBB27_11
.LBB27_25:
	movabsq	$-6067343680855748867, %rcx     # imm = 0xABCC77118461CEFD
	movq	%rbx, %rdx
	leaq	_ZL9digit1000(%rip), %r14
	xorl	%r9d, %r9d
	mulxq	%rcx, %rdx, %rdx
	movabsq	$18446744073710, %rcx           # imm = 0x10C6F7A0B5EE
	shrq	$26, %rdx
	mulxq	%rcx, %rsi, %rdi
	movl	(%r14,%rdi,4), %r8d
	movl	%r8d, %r11d
	shrl	$8, %r11d
	cmpq	$100, %rdi
	movl	%r11d, %r10d
	cmovael	%r8d, %r10d
	setae	%r9b
	imulq	$-100000000, %rdx, %rdi         # imm = 0xFA0A1F00
	movl	$1000, %r8d                     # imm = 0x3E8
	movq	%rsi, %rdx
	mulxq	%r8, %rdx, %rsi
	movl	%r10d, 1(%rax)
	addq	%rbx, %rdi
	mulxq	%r8, %r10, %r10
	movq	%rdi, %rdx
	mulxq	%rcx, %rcx, %rdi
	movq	%rcx, %rdx
	mulxq	%r8, %rdx, %rbx
	shrq	$63, %rcx
	leaq	(%rcx,%rdi,2), %rdi
	mulxq	%r8, %rdx, %rdx
	movl	(%r14,%rsi,4), %esi
	andq	%r13, %rdi
	leaq	_ZL11digit_table(%rip), %r8
	movl	(%r14,%r10,4), %ecx
	movzwl	(%rdi,%r8), %edi
	movl	(%r14,%rbx,4), %r8d
	movl	(%r14,%rdx,4), %edx
	shlq	$16, %rsi
	shlq	$40, %rcx
	shlq	$16, %r8
	orq	%r11, %rsi
	orq	%rsi, %rcx
	orq	%rdi, %r8
	shlq	$40, %rdx
	movq	%rcx, 1(%rax,%r9)
	andq	%r12, %rcx
	orq	%r8, %rdx
	lzcntq	%rcx, %rsi
	movq	%rdx, 9(%rax,%r9)
	andq	%r12, %rdx
	shrl	$3, %esi
	lzcntq	%rdx, %rdi
	orq	$8, %rsi
	shrl	$3, %edi
	testq	%rcx, %rcx
	movl	$16, %ecx
	cmovneq	%rsi, %rcx
	testq	%rdx, %rdx
	cmovneq	%rdi, %rcx
	xorl	%esi, %esi
	movq	%rcx, %rdx
	negq	%rdx
	leaq	17(%r9,%rdx), %rdx
	subq	%rcx, %r9
	leaq	17(%rax,%r9), %rcx
	cmpq	$2, %rdx
	sete	%sil
	addl	$323, %r15d                     # imm = 0x143
	subq	%rsi, %rcx
	movzbl	1(%rax), %esi
	movb	%sil, (%rax)
	movb	$46, 1(%rax)
	leaq	_ZL10exp_result(%rip), %rax
	movq	(%rax,%r15,8), %rax
	movq	%rax, (%rcx)
	shrq	$40, %rax
	jmp	.LBB27_49
.LBB27_33:
	movabsq	$8751735898823355977, %rcx      # imm = 0x7974696E69666E49
	movq	%rcx, (%rax)
	addq	$8, %rax
	jmp	.LBB27_15
.LBB27_34:
	movabsq	$-9223372036854775808, %rsi     # imm = 0x8000000000000000
	cmpq	%rsi, %rdi
	seta	%sil
	shrq	%r15
	cmpq	%rcx, %r15
	setb	%dil
	orb	%sil, %dil
	cmpq	%r14, %r15
	setae	%sil
	jmp	.LBB27_31
.LBB27_35:
	movl	%r11d, %r8d
	cmpq	%r8, %r9
	ja	.LBB27_32
# %bb.36:
	testb	$1, %r10b
	sete	%cl
	jmp	.LBB27_32
.LBB27_37:
	movl	%edx, %edi
	andb	$1, %dil
	cmpq	%r14, %r15
	seta	%sil
	jne	.LBB27_31
.LBB27_38:
	testb	$1, %r10b
	sete	%sil
	jmp	.LBB27_31
.LBB27_39:
	cmpq	%rbx, %rsi
	je	.LBB27_50
# %bb.40:
	shrq	$63, %rsi
	cmpq	%rdi, %r11
	setb	%dil
	je	.LBB27_51
.LBB27_41:
	addq	%r8, %r11
	movabsq	$6917529027641081855, %r8       # imm = 0x5FFFFFFFFFFFFFFF
	cmpq	%r8, %r11
	setb	%r8b
	cmpq	$1, %r14
	jbe	.LBB27_52
.LBB27_42:
	addq	%rdx, %rsi
	testb	%dil, %dil
	cmovneq	%rcx, %rsi
	addq	$10, %rcx
	testb	%r8b, %r8b
	cmoveq	%rsi, %rcx
	movabsq	$1000000000000000, %rdx         # imm = 0x38D7EA4C68000
	cmpq	%rdx, %rcx
	jae	.LBB27_23
.LBB27_43:
	cmpq	$100000000, %rcx                # imm = 0x5F5E100
	jb	.LBB27_45
# %bb.44:
	movabsq	$-6067343680855748867, %rsi     # imm = 0xABCC77118461CEFD
	movq	%rcx, %rdx
	movl	$4194967296, %r8d               # imm = 0xFA0A1F00
	movabsq	$18446744073710, %rdi           # imm = 0x10C6F7A0B5EE
	leaq	_ZL11digit_table(%rip), %r10
	mulxq	%rsi, %rdx, %rdx
	movl	$1000, %esi                     # imm = 0x3E8
	shrq	$26, %rdx
	imull	%edx, %r8d
	mulxq	%rdi, %rdx, %r9
	mulxq	%rsi, %rdx, %r11
	addl	%r8d, %ecx
	andl	$8191, %r9d                     # imm = 0x1FFF
	mulxq	%rsi, %rdx, %rdx
	movzwl	(%r10,%r9,2), %r8d
	leaq	_ZL9digit1000(%rip), %r9
	movl	(%r9,%r11,4), %r11d
	movl	(%r9,%rdx,4), %edx
	shlq	$16, %r11
	orq	%r8, %r11
	movabsq	$-67818912035696881, %r8        # imm = 0xFF0F0F0F0F0F0F0F
	shlq	$40, %rdx
	orq	%r11, %rdx
	andq	%rdx, %r8
	lzcntq	%r8, %r8
	movl	%r8d, %r11d
	andb	$56, %r8b
	shrl	$3, %r11d
	shrxq	%r8, %rdx, %rdx
	movq	%rax, %r8
	subq	%r11, %r8
	movq	%rdx, 1(%rax)
	movq	%rcx, %rdx
	mulxq	%rdi, %rdx, %rcx
	mulxq	%rsi, %rdx, %rdi
	mulxq	%rsi, %rdx, %rdx
	movzwl	(%r10,%rcx,2), %ecx
	movl	(%r9,%rdi,4), %esi
	movl	(%r9,%rdx,4), %edx
	shlq	$16, %rsi
	orq	%rcx, %rsi
	shlq	$40, %rdx
	orq	%rsi, %rdx
	movq	%rdx, 9(%r8)
	addq	$17, %r8
	jmp	.LBB27_46
.LBB27_45:
	movabsq	$18446744073710, %rsi           # imm = 0x10C6F7A0B5EE
	movq	%rcx, %rdx
	movq	%rax, %r8
	mulxq	%rsi, %rdx, %rcx
	movl	$1000, %esi                     # imm = 0x3E8
	mulxq	%rsi, %rdx, %rdi
	movzbl	%cl, %ecx
	mulxq	%rsi, %rdx, %rdx
	leaq	_ZL11digit_table(%rip), %rsi
	movzwl	(%rsi,%rcx,2), %ecx
	leaq	_ZL9digit1000(%rip), %rsi
	movl	(%rsi,%rdi,4), %edi
	movl	(%rsi,%rdx,4), %edx
	shlq	$16, %rdi
	orq	%rcx, %rdi
	shlq	$40, %rdx
	movabsq	$-67818912035696881, %rcx       # imm = 0xFF0F0F0F0F0F0F0F
	orq	%rdi, %rdx
	andq	%rdx, %rcx
	lzcntq	%rcx, %rcx
	movl	%ecx, %esi
	shrl	$3, %esi
	andb	$56, %cl
	subq	%rsi, %r8
	shrxq	%rcx, %rdx, %rcx
	addq	$9, %r8
	movq	%rcx, 1(%rax)
.LBB27_46:
	movzbl	1(%rax), %ecx
	movb	%cl, (%rax)
	movb	$46, 1(%rax)
	xorl	%ecx, %ecx
	cmpb	$48, -1(%r8)
	sete	%cl
	xorl	%esi, %esi
	movq	%rcx, %rdx
	notq	%rdx
	cmpb	$48, (%rdx,%r8)
	sete	%sil
	addq	%rcx, %rsi
	negq	%rsi
	leaq	1(%r8,%rsi), %rcx
.LBB27_47:                              # =>This Inner Loop Header: Depth=1
	movzbl	-2(%rcx), %edx
	decq	%rcx
	cmpb	$48, %dl
	je	.LBB27_47
# %bb.48:
	subl	%eax, %r8d
	xorl	%esi, %esi
	cmpb	$46, %dl
	movabsq	$-8589934592, %rax              # imm = 0xFFFFFFFE00000000
	leaq	_ZL10exp_result(%rip), %rdi
	movq	%rcx, %rdx
	sete	%sil
	shlq	$32, %r8
	addq	%r8, %rax
	subq	%rsi, %rdx
	sarq	$29, %rax
	movq	(%rax,%rdi), %rax
	movq	%rax, (%rdx)
	shrq	$40, %rax
	subq	%rsi, %rax
.LBB27_49:
	addq	%rcx, %rax
	jmp	.LBB27_15
.LBB27_50:
	movl	%edx, %esi
	andl	$1, %esi
	cmpq	%rdi, %r11
	setb	%dil
	jne	.LBB27_41
.LBB27_51:
	testb	$1, %r10b
	sete	%dil
	xorl	%r8d, %r8d
	jmp	.LBB27_42
.LBB27_52:
	testb	$1, %r10b
	sete	%r8b
	jmp	.LBB27_42
.Lfunc_end27:
	.size	yy_double_to_string, .Lfunc_end27-yy_double_to_string
	.cfi_endproc
                                        # -- End function
	.globl	_Z18yy_fast_f64_to_decdPyPi     # -- Begin function _Z18yy_fast_f64_to_decdPyPi
	.p2align	4, 0x90
	.type	_Z18yy_fast_f64_to_decdPyPi,@function
_Z18yy_fast_f64_to_decdPyPi:            # @_Z18yy_fast_f64_to_decdPyPi
	.cfi_startproc
# %bb.0:
	movabsq	$4503599627370496, %r10         # imm = 0x10000000000000
	vmovq	%xmm0, %rax
	movl	$2868, %ecx                     # imm = 0xB34
	leaq	-1(%r10), %r9
	andq	%rax, %r9
	bextrq	%rcx, %rax, %rax
	je	.LBB28_9
# %bb.1:
	orq	%r10, %r9
	addl	$-1075, %eax                    # imm = 0xFBCD
.LBB28_2:
	pushq	%rbp
	.cfi_def_cfa_offset 16
	pushq	%r15
	.cfi_def_cfa_offset 24
	pushq	%r14
	.cfi_def_cfa_offset 32
	pushq	%r13
	.cfi_def_cfa_offset 40
	pushq	%r12
	.cfi_def_cfa_offset 48
	pushq	%rbx
	.cfi_def_cfa_offset 56
	.cfi_offset %rbx, -56
	.cfi_offset %r12, -48
	.cfi_offset %r13, -40
	.cfi_offset %r14, -32
	.cfi_offset %r15, -24
	.cfi_offset %rbp, -16
	imull	$315653, %eax, %r8d             # imm = 0x4D105
	movabsq	$-9223372036854775808, %r12     # imm = 0x8000000000000000
	movabsq	$1844674407370955162, %rbx      # imm = 0x199999999999999A
	cmpq	%r10, %r9
	je	.LBB28_10
# %bb.3:
	sarl	$20, %r8d
	movl	$686, %r14d                     # imm = 0x2AE
	leaq	_ZL15pow10_sig_table(%rip), %r11
	movl	$4, %r15d
	imull	$-217707, %r8d, %ebp            # imm = 0xFFFCAD95
	subl	%r8d, %r14d
	subl	%r8d, %r14d
	movq	(%r11,%r14,8), %rcx
	sarl	$16, %ebp
	addl	%eax, %ebp
	leal	1(%rbp), %eax
	shlxq	%rax, %r9, %rax
	movq	%rax, %rdx
	mulxq	8(%r11,%r14,8), %r11, %r11
	movq	%rcx, %rdx
	mulxq	%rax, %r13, %rdx
	addq	%r11, %r13
	adcq	$0, %rdx
	subl	%ebp, %r15d
	mulxq	%rbx, %r11, %r11
	cmpq	%r12, %r13
	je	.LBB28_12
# %bb.4:
	addq	%r11, %r11
	movl	%edx, %ebx
	shrxq	%r15, %rcx, %rcx
	leaq	(%r11,%r11,4), %rbp
	movq	%r13, %r11
	shrq	$4, %r11
	subl	%ebp, %ebx
	shlq	$60, %rbx
	orq	%rbx, %r11
	cmpq	%r11, %rcx
	je	.LBB28_12
# %bb.5:
	movq	%r12, %r10
	leaq	(%r11,%rcx), %rbx
	movabsq	$6917529027641081857, %r12      # imm = 0x6000000000000001
	addq	%rbx, %r12
	cmpq	$2, %r12
	jb	.LBB28_8
# %bb.6:
	movabsq	$-6917529027641081856, %rax     # imm = 0xA000000000000000
	shrq	$63, %r13
	orq	$1, %rax
	addq	%rdx, %r13
	leaq	10(%rbp), %rdx
	cmpq	%rax, %rbx
	cmovbq	%rbp, %rdx
	cmovaeq	%rdx, %r13
	cmpq	%r11, %rcx
	cmovaq	%rdx, %r13
	movq	%r13, (%rdi)
	movl	%r8d, (%rsi)
.LBB28_7:
	popq	%rbx
	.cfi_def_cfa_offset 48
	popq	%r12
	.cfi_def_cfa_offset 40
	popq	%r13
	.cfi_def_cfa_offset 32
	popq	%r14
	.cfi_def_cfa_offset 24
	popq	%r15
	.cfi_def_cfa_offset 16
	popq	%rbp
	.cfi_def_cfa_offset 8
	retq
.LBB28_8:
	.cfi_def_cfa_offset 56
	movq	%r10, %r12
	movabsq	$4503599627370496, %r10         # imm = 0x10000000000000
.LBB28_12:
	xorl	%ebp, %ebp
	jmp	.LBB28_13
.LBB28_9:
	.cfi_def_cfa_offset 8
	.cfi_restore %rbx
	.cfi_restore %rbp
	.cfi_restore %r12
	.cfi_restore %r13
	.cfi_restore %r14
	.cfi_restore %r15
	movl	$-1074, %eax                    # imm = 0xFBCE
	jmp	.LBB28_2
.LBB28_10:
	.cfi_def_cfa_offset 56
	.cfi_offset %rbx, -56
	.cfi_offset %rbp, -16
	.cfi_offset %r12, -48
	.cfi_offset %r13, -40
	.cfi_offset %r14, -32
	.cfi_offset %r15, -24
	addl	$-131237, %r8d                  # imm = 0xFFFDFF5B
	movl	$686, %r14d                     # imm = 0x2AE
	movl	$4, %r15d
	xorl	%ebp, %ebp
	sarl	$20, %r8d
	imull	$-217707, %r8d, %ecx            # imm = 0xFFFCAD95
	subl	%r8d, %r14d
	subl	%r8d, %r14d
	sarl	$16, %ecx
	addl	%eax, %ecx
	leal	1(%rcx), %eax
	subl	%ecx, %r15d
	shlxq	%rax, %r10, %rax
.LBB28_13:
	leaq	_ZL15pow10_sig_table(%rip), %rcx
	movq	%rax, %rdx
	movq	%rbp, %r11
	movabsq	$1844674407370955162, %rax      # imm = 0x199999999999999A
	movq	(%rcx,%r14,8), %r13
	movq	8(%rcx,%r14,8), %rcx
	imulq	%rcx, %r11
	mulxq	%rcx, %rbx, %rbx
	mulxq	%r13, %rcx, %rdx
	imulq	%r13, %rbp
	shrxq	%r15, %r13, %r15
	addq	%r11, %rbx
	addq	%rbx, %rcx
	adcq	%rbp, %rdx
	movq	%rcx, %r11
	shrq	$4, %r11
	mulxq	%rax, %rax, %rax
	movl	%edx, %r14d
	addq	%rax, %rax
	leaq	(%rax,%rax,4), %rax
	subl	%eax, %r14d
	shlq	$60, %r14
	orq	%r11, %r14
	leaq	(%r14,%r15), %rbx
	cmpq	%r10, %r9
	je	.LBB28_18
# %bb.14:
	cmpq	%r12, %rcx
	je	.LBB28_21
# %bb.15:
	shrq	$63, %rcx
	cmpq	%r14, %r15
	seta	%r10b
	je	.LBB28_22
.LBB28_16:
	movabsq	$-6917529027641081856, %r14     # imm = 0xA000000000000000
	subq	%rbx, %r14
	setb	%r11b
	cmpq	$1, %r14
	jbe	.LBB28_19
.LBB28_17:
	movzbl	%cl, %ecx
	movl	%r8d, (%rsi)
	addq	%rdx, %rcx
	testb	%r10b, %r10b
	cmovneq	%rax, %rcx
	addq	$10, %rax
	testb	%r11b, %r11b
	cmoveq	%rcx, %rax
	movq	%rax, (%rdi)
	jmp	.LBB28_7
.LBB28_18:
	cmpq	%r12, %rcx
	seta	%r10b
	shrq	%r15
	cmpq	%r11, %r15
	setb	%cl
	orb	%r10b, %cl
	cmpq	%r14, %r15
	setae	%r10b
	jmp	.LBB28_16
.LBB28_19:
	movl	%r8d, %ebx
	cmpq	%rbx, %r14
	ja	.LBB28_17
# %bb.20:
	testb	$1, %r9b
	sete	%r11b
	jmp	.LBB28_17
.LBB28_21:
	movl	%edx, %ecx
	andb	$1, %cl
	cmpq	%r14, %r15
	seta	%r10b
	jne	.LBB28_16
.LBB28_22:
	testb	$1, %r9b
	sete	%r10b
	jmp	.LBB28_16
.Lfunc_end28:
	.size	_Z18yy_fast_f64_to_decdPyPi, .Lfunc_end28-_Z18yy_fast_f64_to_decdPyPi
	.cfi_endproc
                                        # -- End function
	.globl	_Z18yy_full_f64_to_decdPyPi     # -- Begin function _Z18yy_full_f64_to_decdPyPi
	.p2align	4, 0x90
	.type	_Z18yy_full_f64_to_decdPyPi,@function
_Z18yy_full_f64_to_decdPyPi:            # @_Z18yy_full_f64_to_decdPyPi
	.cfi_startproc
# %bb.0:
	movabsq	$4503599627370496, %r10         # imm = 0x10000000000000
	vmovq	%xmm0, %rcx
	movl	$2868, %edx                     # imm = 0xB34
	leaq	-1(%r10), %rax
	andq	%rcx, %rax
	bextrq	%rdx, %rcx, %rdx
	je	.LBB29_1
# %bb.2:
	orq	%r10, %rax
	addl	$-1075, %edx                    # imm = 0xFBCD
	imull	$315653, %edx, %ecx             # imm = 0x4D105
	cmpq	%r10, %rax
	je	.LBB29_4
.LBB29_5:
	pushq	%r15
	.cfi_def_cfa_offset 16
	pushq	%r14
	.cfi_def_cfa_offset 24
	pushq	%r12
	.cfi_def_cfa_offset 32
	pushq	%rbx
	.cfi_def_cfa_offset 40
	.cfi_offset %rbx, -40
	.cfi_offset %r12, -32
	.cfi_offset %r14, -24
	.cfi_offset %r15, -16
	sarl	$20, %ecx
	movl	$686, %r8d                      # imm = 0x2AE
	leaq	_ZL15pow10_sig_table(%rip), %r9
	movb	$4, %r12b
	imull	$-217707, %ecx, %r11d           # imm = 0xFFFCAD95
	shrl	$16, %r11d
	addl	%edx, %r11d
	subl	%ecx, %r8d
	subl	%ecx, %r8d
	leal	1(%r11), %edx
	movq	(%r9,%r8,8), %r14
	shlxq	%rdx, %rax, %rdx
	mulxq	8(%r9,%r8,8), %r8, %r8
	mulxq	%r14, %r9, %rdx
	addq	%r8, %r9
	movabsq	$1844674407370955162, %r8       # imm = 0x199999999999999A
	adcq	$0, %rdx
	movq	%r9, %r15
	subb	%r11b, %r12b
	shrq	$4, %r15
	mulxq	%r8, %r8, %r8
	movl	%edx, %ebx
	shrxq	%r12, %r14, %r14
	movabsq	$-9223372036854775808, %r12     # imm = 0x8000000000000000
	addq	%r8, %r8
	leaq	(%r8,%r8,4), %r8
	subl	%r8d, %ebx
	shlq	$60, %rbx
	orq	%r15, %rbx
	leaq	(%rbx,%r14), %r11
	cmpq	%r10, %rax
	je	.LBB29_11
# %bb.6:
	cmpq	%r12, %r9
	je	.LBB29_8
# %bb.7:
	shrq	$63, %r9
	cmpq	%rbx, %r14
	seta	%r10b
	je	.LBB29_10
.LBB29_12:
	movabsq	$-6917529027641081856, %rbx     # imm = 0xA000000000000000
	subq	%r11, %rbx
	setb	%r11b
	cmpq	$1, %rbx
	jbe	.LBB29_13
.LBB29_15:
	movzbl	%r9b, %eax
	movl	%ecx, (%rsi)
	addq	%rdx, %rax
	testb	%r10b, %r10b
	cmovneq	%r8, %rax
	addq	$10, %r8
	testb	%r11b, %r11b
	cmoveq	%rax, %r8
	movq	%r8, (%rdi)
	popq	%rbx
	.cfi_def_cfa_offset 32
	popq	%r12
	.cfi_def_cfa_offset 24
	popq	%r14
	.cfi_def_cfa_offset 16
	popq	%r15
	.cfi_def_cfa_offset 8
	retq
.LBB29_1:
	.cfi_restore %rbx
	.cfi_restore %r12
	.cfi_restore %r14
	.cfi_restore %r15
	movl	$-1074, %edx                    # imm = 0xFBCE
	imull	$315653, %edx, %ecx             # imm = 0x4D105
	cmpq	%r10, %rax
	jne	.LBB29_5
.LBB29_4:
	addl	$-131237, %ecx                  # imm = 0xFFFDFF5B
	jmp	.LBB29_5
.LBB29_11:
	.cfi_def_cfa_offset 40
	.cfi_offset %rbx, -40
	.cfi_offset %r12, -32
	.cfi_offset %r14, -24
	.cfi_offset %r15, -16
	cmpq	%r12, %r9
	seta	%r10b
	shrq	%r14
	cmpq	%r15, %r14
	setb	%r9b
	orb	%r10b, %r9b
	cmpq	%rbx, %r14
	setae	%r10b
	jmp	.LBB29_12
.LBB29_13:
	movl	%ecx, %r14d
	cmpq	%r14, %rbx
	ja	.LBB29_15
# %bb.14:
	testb	$1, %al
	sete	%r11b
	jmp	.LBB29_15
.LBB29_8:
	movl	%edx, %r9d
	andb	$1, %r9b
	cmpq	%rbx, %r14
	seta	%r10b
	jne	.LBB29_12
.LBB29_10:
	testb	$1, %al
	sete	%r10b
	jmp	.LBB29_12
.Lfunc_end29:
	.size	_Z18yy_full_f64_to_decdPyPi, .Lfunc_end29-_Z18yy_full_f64_to_decdPyPi
	.cfi_endproc
                                        # -- End function
	.globl	_Z15ldouble_convertRyRi         # -- Begin function _Z15ldouble_convertRyRi
	.p2align	4, 0x90
	.type	_Z15ldouble_convertRyRi,@function
_Z15ldouble_convertRyRi:                # @_Z15ldouble_convertRyRi
	.cfi_startproc
# %bb.0:
	pushq	%rbp
	.cfi_def_cfa_offset 16
	pushq	%r15
	.cfi_def_cfa_offset 24
	pushq	%r14
	.cfi_def_cfa_offset 32
	pushq	%r12
	.cfi_def_cfa_offset 40
	pushq	%rbx
	.cfi_def_cfa_offset 48
	.cfi_offset %rbx, -48
	.cfi_offset %r12, -40
	.cfi_offset %r14, -32
	.cfi_offset %r15, -24
	.cfi_offset %rbp, -16
	movl	(%rsi), %r15d
	movq	%rsi, %rbx
	movq	%rdi, %r14
	leaq	_ZZL15negative_diy_fpiE18negative_index_lut(%rip), %rsi
	leaq	_ZZL15negative_diy_fpiE17negative_base_lut(%rip), %r8
	movl	$17, %r12d
	movl	%r15d, %eax
	sarl	$2, %r15d
	andb	$3, %al
	movl	%r15d, %ecx
	negl	%ecx
	shlxq	%rax, (%rdi), %rdx
	leaq	_ZZL15positive_diy_fpiE17positive_base_lut(%rip), %rdi
	leaq	_ZZL15positive_diy_fpiE18positive_index_lut(%rip), %rax
	addq	%rcx, %rsi
	leaq	(%r8,%rcx,8), %rcx
	movabsq	$-8446744073709551616, %r8      # imm = 0x8AC7230489E80000
	leaq	(%rdi,%r15,8), %rdi
	addq	%r15, %rax
	testl	%r15d, %r15d
	cmovnsq	%rax, %rsi
	cmovnsq	%rdi, %rcx
	movsbl	(%rsi), %ebp
	movabsq	$54210108624275, %rdi           # imm = 0x314DC6448D93
	mulxq	(%rcx), %rax, %rsi
	movabsq	$542101086242752, %rcx          # imm = 0x1ED09BEAD87C0
	movabsq	$5000000000000000000, %rdx      # imm = 0x4563918244F40000
	cmpq	%rcx, %rsi
	movabsq	$500000000000000000, %rcx       # imm = 0x6F05B59D3B20000
	cmovbq	%rcx, %rdx
	movabsq	$1000000000000000000, %rcx      # imm = 0xDE0B6B3A7640000
	cmovbq	%rcx, %r8
	movl	$19, %ecx
	sbbl	$0, %ecx
	cmpq	%rdi, %rsi
	movabsq	$50000000000000000, %rdi        # imm = 0xB1A2BC2EC50000
	cmovaeq	%rdx, %rdi
	movabsq	$100000000000000000, %rdx       # imm = 0x16345785D8A0000
	cmovael	%ecx, %r12d
	cmovaeq	%r8, %rdx
	addq	%rax, %rdi
	adcq	$0, %rsi
	xorl	%ecx, %ecx
	callq	__udivti3@PLT
	addl	%r15d, %r12d
	movq	%rax, (%r14)
	subl	%ebp, %r12d
	movl	%r12d, (%rbx)
	popq	%rbx
	.cfi_def_cfa_offset 40
	popq	%r12
	.cfi_def_cfa_offset 32
	popq	%r14
	.cfi_def_cfa_offset 24
	popq	%r15
	.cfi_def_cfa_offset 16
	popq	%rbp
	.cfi_def_cfa_offset 8
	retq
.Lfunc_end30:
	.size	_Z15ldouble_convertRyRi, .Lfunc_end30-_Z15ldouble_convertRyRi
	.cfi_endproc
                                        # -- End function
	.globl	_Z18ldouble_f64_to_decdPyPi     # -- Begin function _Z18ldouble_f64_to_decdPyPi
	.p2align	4, 0x90
	.type	_Z18ldouble_f64_to_decdPyPi,@function
_Z18ldouble_f64_to_decdPyPi:            # @_Z18ldouble_f64_to_decdPyPi
	.cfi_startproc
# %bb.0:
	pushq	%rbp
	.cfi_def_cfa_offset 16
	pushq	%r15
	.cfi_def_cfa_offset 24
	pushq	%r14
	.cfi_def_cfa_offset 32
	pushq	%r12
	.cfi_def_cfa_offset 40
	pushq	%rbx
	.cfi_def_cfa_offset 48
	subq	$16, %rsp
	.cfi_def_cfa_offset 64
	.cfi_offset %rbx, -48
	.cfi_offset %r12, -40
	.cfi_offset %r14, -32
	.cfi_offset %r15, -24
	.cfi_offset %rbp, -16
	vmovq	%xmm0, %r15
	movb	$52, %al
	movq	%rsi, %rbx
	movq	%rdi, %r14
	bzhiq	%rax, %r15, %rax
	shrq	$52, %r15
	andq	$2047, %r15                     # imm = 0x7FF
	je	.LBB31_2
# %bb.1:
	movabsq	$4503599627370495, %rcx         # imm = 0xFFFFFFFFFFFFF
	addl	$-1075, %r15d                   # imm = 0xFBCD
	leaq	_ZZL15negative_diy_fpiE18negative_index_lut(%rip), %rsi
	leaq	_ZZL15positive_diy_fpiE17positive_base_lut(%rip), %rdi
	leaq	_ZZL15negative_diy_fpiE17negative_base_lut(%rip), %r8
	movl	$17, %r12d
	leaq	1(%rcx,%rax), %rax
	movl	%r15d, %ecx
	sarl	$2, %r15d
	andb	$3, %cl
	leaq	(%rdi,%r15,8), %rdi
	shlxq	%rcx, %rax, %rdx
	movl	%r15d, %ecx
	negl	%ecx
	leaq	_ZZL15positive_diy_fpiE18positive_index_lut(%rip), %rax
	addq	%rcx, %rsi
	leaq	(%r8,%rcx,8), %rcx
	addq	%r15, %rax
	testl	%r15d, %r15d
	movabsq	$-8446744073709551616, %r8      # imm = 0x8AC7230489E80000
	cmovnsq	%rax, %rsi
	cmovnsq	%rdi, %rcx
	movsbl	(%rsi), %ebp
	movabsq	$54210108624275, %rdi           # imm = 0x314DC6448D93
	mulxq	(%rcx), %rax, %rsi
	movabsq	$542101086242752, %rcx          # imm = 0x1ED09BEAD87C0
	movabsq	$5000000000000000000, %rdx      # imm = 0x4563918244F40000
	cmpq	%rcx, %rsi
	movabsq	$500000000000000000, %rcx       # imm = 0x6F05B59D3B20000
	cmovbq	%rcx, %rdx
	movabsq	$1000000000000000000, %rcx      # imm = 0xDE0B6B3A7640000
	cmovbq	%rcx, %r8
	movl	$19, %ecx
	sbbl	$0, %ecx
	cmpq	%rdi, %rsi
	movabsq	$50000000000000000, %rdi        # imm = 0xB1A2BC2EC50000
	cmovaeq	%rdx, %rdi
	movabsq	$100000000000000000, %rdx       # imm = 0x16345785D8A0000
	cmovael	%ecx, %r12d
	cmovaeq	%r8, %rdx
	addq	%rax, %rdi
	adcq	$0, %rsi
	xorl	%ecx, %ecx
	callq	__udivti3@PLT
	subl	%ebp, %r15d
	addl	%r12d, %r15d
.LBB31_3:
	movq	%rax, (%r14)
	movl	%r15d, (%rbx)
	addq	$16, %rsp
	.cfi_def_cfa_offset 48
	popq	%rbx
	.cfi_def_cfa_offset 40
	popq	%r12
	.cfi_def_cfa_offset 32
	popq	%r14
	.cfi_def_cfa_offset 24
	popq	%r15
	.cfi_def_cfa_offset 16
	popq	%rbp
	.cfi_def_cfa_offset 8
	retq
.LBB31_2:
	.cfi_def_cfa_offset 64
	lzcntq	%rax, %rcx
	movl	$-1063, %esi                    # imm = 0xFBD9
	leaq	8(%rsp), %rdi
	leal	-11(%rcx), %edx
	subl	%ecx, %esi
	shlxq	%rdx, %rax, %rax
	movl	%esi, 4(%rsp)
	leaq	4(%rsp), %rsi
                                        # kill: def $edx killed $edx killed $rdx
	movq	%rax, 8(%rsp)
	callq	_ZL29ldouble_convert_no_normalizedRyRii
	movq	8(%rsp), %rax
	movl	4(%rsp), %r15d
	jmp	.LBB31_3
.Lfunc_end31:
	.size	_Z18ldouble_f64_to_decdPyPi, .Lfunc_end31-_Z18ldouble_f64_to_decdPyPi
	.cfi_endproc
                                        # -- End function
	.section	.rodata.cst8,"aM",@progbits,8
	.p2align	3, 0x0                          # -- Begin function _ZL29ldouble_convert_no_normalizedRyRii
.LCPI32_0:
	.quad	0x46c8a6e32246c99c              # double 9.9999999999999995E+32
.LCPI32_1:
	.quad	0x46fed09bead87c03              # double 9.9999999999999995E+33
	.text
	.p2align	4, 0x90
	.type	_ZL29ldouble_convert_no_normalizedRyRii,@function
_ZL29ldouble_convert_no_normalizedRyRii: # @_ZL29ldouble_convert_no_normalizedRyRii
	.cfi_startproc
# %bb.0:
	pushq	%rbx
	.cfi_def_cfa_offset 16
	.cfi_offset %rbx, -16
	movl	(%rsi), %eax
	leaq	_ZZL15negative_diy_fpiE18negative_index_lut(%rip), %r10
	leaq	_ZZL15positive_diy_fpiE17positive_base_lut(%rip), %r11
	leaq	_ZZL15negative_diy_fpiE17negative_base_lut(%rip), %rbx
	movslq	%edx, %rdx
	vmovsd	.LCPI32_0(%rip), %xmm2          # xmm2 = [9.9999999999999995E+32,0.0E+0]
	movl	%eax, %ecx
	sarl	$2, %eax
	andb	$3, %cl
	movl	%eax, %r9d
	negl	%r9d
	leaq	(%r11,%rax,8), %r11
	shlxq	%rcx, (%rdi), %r8
	leaq	_ZZL15positive_diy_fpiE18positive_index_lut(%rip), %rcx
	addq	%r9, %r10
	leaq	(%rbx,%r9,8), %r9
	addq	%rax, %rcx
	testl	%eax, %eax
	cmovnsq	%r11, %r9
	cmovnsq	%rcx, %r10
	movsbl	(%r10), %ecx
	vcvtusi2sd	%r8, %xmm0, %xmm0
	vcvtusi2sdq	(%r9), %xmm1, %xmm1
	leaq	_ZL10digits_lut(%rip), %r8
	movzbl	(%rdx,%r8), %edx
	leaq	_ZZL29ldouble_convert_no_normalizedRyRiiE8add_luts(%rip), %r8
	vmulsd	%xmm0, %xmm1, %xmm0
	vaddsd	(%r8,%rdx,8), %xmm0, %xmm1
	vucomisd	%xmm1, %xmm2
	jbe	.LBB32_2
# %bb.1:
	leaq	_ZZL29ldouble_convert_no_normalizedRyRiiE8mul_luts(%rip), %r8
	vmulsd	(%r8,%rdx,8), %xmm1, %xmm0
	vcvttsd2usi	%xmm0, %r8
	movq	%r8, (%rdi)
	movl	$17, %edi
	jmp	.LBB32_5
.LBB32_2:
	vaddsd	8(%r8,%rdx,8), %xmm0, %xmm1
	vmovsd	.LCPI32_1(%rip), %xmm2          # xmm2 = [9.9999999999999995E+33,0.0E+0]
	vucomisd	%xmm1, %xmm2
	jbe	.LBB32_4
# %bb.3:
	leaq	_ZZL29ldouble_convert_no_normalizedRyRiiE8mul_luts(%rip), %r8
	vmulsd	8(%r8,%rdx,8), %xmm1, %xmm0
	vcvttsd2usi	%xmm0, %r8
	movq	%r8, (%rdi)
	movl	$18, %edi
	jmp	.LBB32_5
.LBB32_4:
	vaddsd	16(%r8,%rdx,8), %xmm0, %xmm0
	leaq	_ZZL29ldouble_convert_no_normalizedRyRiiE8mul_luts(%rip), %r8
	vmulsd	16(%r8,%rdx,8), %xmm0, %xmm0
	vcvttsd2usi	%xmm0, %r8
	movq	%r8, (%rdi)
	movl	$19, %edi
.LBB32_5:
	addl	%edi, %eax
	subl	%ecx, %eax
	addl	%edx, %eax
	movl	%eax, (%rsi)
	popq	%rbx
	.cfi_def_cfa_offset 8
	retq
.Lfunc_end32:
	.size	_ZL29ldouble_convert_no_normalizedRyRii, .Lfunc_end32-_ZL29ldouble_convert_no_normalizedRyRii
	.cfi_endproc
                                        # -- End function
	.section	.text._ZNSt6vectorISt4pairINSt7__cxx1112basic_stringIcSt11char_traitsIcESaIcEEEPFvdPyPiEESaISB_EED2Ev,"axG",@progbits,_ZNSt6vectorISt4pairINSt7__cxx1112basic_stringIcSt11char_traitsIcESaIcEEEPFvdPyPiEESaISB_EED2Ev,comdat
	.weak	_ZNSt6vectorISt4pairINSt7__cxx1112basic_stringIcSt11char_traitsIcESaIcEEEPFvdPyPiEESaISB_EED2Ev # -- Begin function _ZNSt6vectorISt4pairINSt7__cxx1112basic_stringIcSt11char_traitsIcESaIcEEEPFvdPyPiEESaISB_EED2Ev
	.p2align	4, 0x90
	.type	_ZNSt6vectorISt4pairINSt7__cxx1112basic_stringIcSt11char_traitsIcESaIcEEEPFvdPyPiEESaISB_EED2Ev,@function
_ZNSt6vectorISt4pairINSt7__cxx1112basic_stringIcSt11char_traitsIcESaIcEEEPFvdPyPiEESaISB_EED2Ev: # @_ZNSt6vectorISt4pairINSt7__cxx1112basic_stringIcSt11char_traitsIcESaIcEEEPFvdPyPiEESaISB_EED2Ev
	.cfi_startproc
# %bb.0:
	pushq	%r15
	.cfi_def_cfa_offset 16
	pushq	%r14
	.cfi_def_cfa_offset 24
	pushq	%rbx
	.cfi_def_cfa_offset 32
	.cfi_offset %rbx, -32
	.cfi_offset %r14, -24
	.cfi_offset %r15, -16
	movq	(%rdi), %rbx
	movq	8(%rdi), %r15
	cmpq	%r15, %rbx
	je	.LBB33_6
# %bb.1:
	movq	%rdi, %r14
	jmp	.LBB33_2
	.p2align	4, 0x90
.LBB33_4:                               #   in Loop: Header=BB33_2 Depth=1
	addq	$24, %rbx
	cmpq	%r15, %rbx
	je	.LBB33_5
.LBB33_2:                               # =>This Inner Loop Header: Depth=1
	movq	(%rbx), %rdi
	addq	$16, %rbx
	cmpq	%rbx, %rdi
	je	.LBB33_4
# %bb.3:                                #   in Loop: Header=BB33_2 Depth=1
	callq	_ZdlPv@PLT
	jmp	.LBB33_4
.LBB33_5:
	movq	(%r14), %rbx
.LBB33_6:
	testq	%rbx, %rbx
	je	.LBB33_7
# %bb.8:
	movq	%rbx, %rdi
	popq	%rbx
	.cfi_def_cfa_offset 24
	popq	%r14
	.cfi_def_cfa_offset 16
	popq	%r15
	.cfi_def_cfa_offset 8
	jmp	_ZdlPv@PLT                      # TAILCALL
.LBB33_7:
	.cfi_def_cfa_offset 32
	popq	%rbx
	.cfi_def_cfa_offset 24
	popq	%r14
	.cfi_def_cfa_offset 16
	popq	%r15
	.cfi_def_cfa_offset 8
	retq
.Lfunc_end33:
	.size	_ZNSt6vectorISt4pairINSt7__cxx1112basic_stringIcSt11char_traitsIcESaIcEEEPFvdPyPiEESaISB_EED2Ev, .Lfunc_end33-_ZNSt6vectorISt4pairINSt7__cxx1112basic_stringIcSt11char_traitsIcESaIcEEEPFvdPyPiEESaISB_EED2Ev
	.cfi_endproc
                                        # -- End function
	.section	.text._ZNSt6vectorISt4pairINSt7__cxx1112basic_stringIcSt11char_traitsIcESaIcEEEPFvfPjPiEESaISB_EED2Ev,"axG",@progbits,_ZNSt6vectorISt4pairINSt7__cxx1112basic_stringIcSt11char_traitsIcESaIcEEEPFvfPjPiEESaISB_EED2Ev,comdat
	.weak	_ZNSt6vectorISt4pairINSt7__cxx1112basic_stringIcSt11char_traitsIcESaIcEEEPFvfPjPiEESaISB_EED2Ev # -- Begin function _ZNSt6vectorISt4pairINSt7__cxx1112basic_stringIcSt11char_traitsIcESaIcEEEPFvfPjPiEESaISB_EED2Ev
	.p2align	4, 0x90
	.type	_ZNSt6vectorISt4pairINSt7__cxx1112basic_stringIcSt11char_traitsIcESaIcEEEPFvfPjPiEESaISB_EED2Ev,@function
_ZNSt6vectorISt4pairINSt7__cxx1112basic_stringIcSt11char_traitsIcESaIcEEEPFvfPjPiEESaISB_EED2Ev: # @_ZNSt6vectorISt4pairINSt7__cxx1112basic_stringIcSt11char_traitsIcESaIcEEEPFvfPjPiEESaISB_EED2Ev
	.cfi_startproc
# %bb.0:
	pushq	%r15
	.cfi_def_cfa_offset 16
	pushq	%r14
	.cfi_def_cfa_offset 24
	pushq	%rbx
	.cfi_def_cfa_offset 32
	.cfi_offset %rbx, -32
	.cfi_offset %r14, -24
	.cfi_offset %r15, -16
	movq	(%rdi), %rbx
	movq	8(%rdi), %r15
	cmpq	%r15, %rbx
	je	.LBB34_6
# %bb.1:
	movq	%rdi, %r14
	jmp	.LBB34_2
	.p2align	4, 0x90
.LBB34_4:                               #   in Loop: Header=BB34_2 Depth=1
	addq	$24, %rbx
	cmpq	%r15, %rbx
	je	.LBB34_5
.LBB34_2:                               # =>This Inner Loop Header: Depth=1
	movq	(%rbx), %rdi
	addq	$16, %rbx
	cmpq	%rbx, %rdi
	je	.LBB34_4
# %bb.3:                                #   in Loop: Header=BB34_2 Depth=1
	callq	_ZdlPv@PLT
	jmp	.LBB34_4
.LBB34_5:
	movq	(%r14), %rbx
.LBB34_6:
	testq	%rbx, %rbx
	je	.LBB34_7
# %bb.8:
	movq	%rbx, %rdi
	popq	%rbx
	.cfi_def_cfa_offset 24
	popq	%r14
	.cfi_def_cfa_offset 16
	popq	%r15
	.cfi_def_cfa_offset 8
	jmp	_ZdlPv@PLT                      # TAILCALL
.LBB34_7:
	.cfi_def_cfa_offset 32
	popq	%rbx
	.cfi_def_cfa_offset 24
	popq	%r14
	.cfi_def_cfa_offset 16
	popq	%r15
	.cfi_def_cfa_offset 8
	retq
.Lfunc_end34:
	.size	_ZNSt6vectorISt4pairINSt7__cxx1112basic_stringIcSt11char_traitsIcESaIcEEEPFvfPjPiEESaISB_EED2Ev, .Lfunc_end34-_ZNSt6vectorISt4pairINSt7__cxx1112basic_stringIcSt11char_traitsIcESaIcEEEPFvfPjPiEESaISB_EED2Ev
	.cfi_endproc
                                        # -- End function
	.section	.text._ZNSt13random_deviceD2Ev,"axG",@progbits,_ZNSt13random_deviceD2Ev,comdat
	.weak	_ZNSt13random_deviceD2Ev        # -- Begin function _ZNSt13random_deviceD2Ev
	.p2align	4, 0x90
	.type	_ZNSt13random_deviceD2Ev,@function
_ZNSt13random_deviceD2Ev:               # @_ZNSt13random_deviceD2Ev
.Lfunc_begin0:
	.cfi_startproc
	.cfi_personality 155, DW.ref.__gxx_personality_v0
	.cfi_lsda 27, .Lexception0
# %bb.0:
	pushq	%rax
	.cfi_def_cfa_offset 16
.Ltmp0:
	callq	_ZNSt13random_device7_M_finiEv@PLT
.Ltmp1:
# %bb.1:
	popq	%rax
	.cfi_def_cfa_offset 8
	retq
.LBB35_2:
	.cfi_def_cfa_offset 16
.Ltmp2:
	movq	%rax, %rdi
	callq	__clang_call_terminate
.Lfunc_end35:
	.size	_ZNSt13random_deviceD2Ev, .Lfunc_end35-_ZNSt13random_deviceD2Ev
	.cfi_endproc
	.section	.gcc_except_table._ZNSt13random_deviceD2Ev,"aG",@progbits,_ZNSt13random_deviceD2Ev,comdat
	.p2align	2, 0x0
GCC_except_table35:
.Lexception0:
	.byte	255                             # @LPStart Encoding = omit
	.byte	155                             # @TType Encoding = indirect pcrel sdata4
	.uleb128 .Lttbase0-.Lttbaseref0
.Lttbaseref0:
	.byte	1                               # Call site Encoding = uleb128
	.uleb128 .Lcst_end0-.Lcst_begin0
.Lcst_begin0:
	.uleb128 .Ltmp0-.Lfunc_begin0           # >> Call Site 1 <<
	.uleb128 .Ltmp1-.Ltmp0                  #   Call between .Ltmp0 and .Ltmp1
	.uleb128 .Ltmp2-.Lfunc_begin0           #     jumps to .Ltmp2
	.byte	1                               #   On action: 1
.Lcst_end0:
	.byte	1                               # >> Action Record 1 <<
                                        #   Catch TypeInfo 1
	.byte	0                               #   No further actions
	.p2align	2, 0x0
                                        # >> Catch TypeInfos <<
	.long	0                               # TypeInfo 1
.Lttbase0:
	.p2align	2, 0x0
                                        # -- End function
	.text
	.globl	_Z5getnsv                       # -- Begin function _Z5getnsv
	.p2align	4, 0x90
	.type	_Z5getnsv,@function
_Z5getnsv:                              # @_Z5getnsv
	.cfi_startproc
# %bb.0:
	jmp	_ZNSt6chrono3_V212system_clock3nowEv@PLT # TAILCALL
.Lfunc_end36:
	.size	_Z5getnsv, .Lfunc_end36-_Z5getnsv
	.cfi_endproc
                                        # -- End function
	.globl	_Z25gen_double_filter_Nan_Infv  # -- Begin function _Z25gen_double_filter_Nan_Infv
	.p2align	4, 0x90
	.type	_Z25gen_double_filter_Nan_Infv,@function
_Z25gen_double_filter_Nan_Infv:         # @_Z25gen_double_filter_Nan_Infv
	.cfi_startproc
# %bb.0:
	pushq	%r14
	.cfi_def_cfa_offset 16
	pushq	%rbx
	.cfi_def_cfa_offset 24
	pushq	%rax
	.cfi_def_cfa_offset 32
	.cfi_offset %rbx, -24
	.cfi_offset %r14, -16
	leaq	gen(%rip), %rbx
	movb	$63, %r14b
	.p2align	4, 0x90
.LBB37_1:                               # =>This Inner Loop Header: Depth=1
	movq	%rbx, %rdi
	callq	_ZNSt23mersenne_twister_engineImLm64ELm312ELm156ELm31ELm13043109905998158313ELm29ELm6148914691236517205ELm17ELm8202884508482404352ELm37ELm18444473444759240704ELm43ELm6364136223846793005EEclEv
	bzhiq	%r14, %rax, %rax
	movq	%rax, %rcx
	shrq	$52, %rcx
	cmpl	$2046, %ecx                     # imm = 0x7FE
	ja	.LBB37_1
# %bb.2:
	vmovq	%rax, %xmm0
	addq	$8, %rsp
	.cfi_def_cfa_offset 24
	popq	%rbx
	.cfi_def_cfa_offset 16
	popq	%r14
	.cfi_def_cfa_offset 8
	retq
.Lfunc_end37:
	.size	_Z25gen_double_filter_Nan_Infv, .Lfunc_end37-_Z25gen_double_filter_Nan_Infv
	.cfi_endproc
                                        # -- End function
	.section	.rodata.cst8,"aM",@progbits,8
	.p2align	3, 0x0                          # -- Begin function _ZNSt23mersenne_twister_engineImLm64ELm312ELm156ELm31ELm13043109905998158313ELm29ELm6148914691236517205ELm17ELm8202884508482404352ELm37ELm18444473444759240704ELm43ELm6364136223846793005EEclEv
.LCPI38_0:
	.quad	-2147483648                     # 0xffffffff80000000
.LCPI38_1:
	.quad	2147483646                      # 0x7ffffffe
.LCPI38_2:
	.quad	1                               # 0x1
.LCPI38_3:
	.quad	-5403634167711393303            # 0xb5026f5aa96619e9
	.section	.text._ZNSt23mersenne_twister_engineImLm64ELm312ELm156ELm31ELm13043109905998158313ELm29ELm6148914691236517205ELm17ELm8202884508482404352ELm37ELm18444473444759240704ELm43ELm6364136223846793005EEclEv,"axG",@progbits,_ZNSt23mersenne_twister_engineImLm64ELm312ELm156ELm31ELm13043109905998158313ELm29ELm6148914691236517205ELm17ELm8202884508482404352ELm37ELm18444473444759240704ELm43ELm6364136223846793005EEclEv,comdat
	.weak	_ZNSt23mersenne_twister_engineImLm64ELm312ELm156ELm31ELm13043109905998158313ELm29ELm6148914691236517205ELm17ELm8202884508482404352ELm37ELm18444473444759240704ELm43ELm6364136223846793005EEclEv
	.p2align	4, 0x90
	.type	_ZNSt23mersenne_twister_engineImLm64ELm312ELm156ELm31ELm13043109905998158313ELm29ELm6148914691236517205ELm17ELm8202884508482404352ELm37ELm18444473444759240704ELm43ELm6364136223846793005EEclEv,@function
_ZNSt23mersenne_twister_engineImLm64ELm312ELm156ELm31ELm13043109905998158313ELm29ELm6148914691236517205ELm17ELm8202884508482404352ELm37ELm18444473444759240704ELm43ELm6364136223846793005EEclEv: # @_ZNSt23mersenne_twister_engineImLm64ELm312ELm156ELm31ELm13043109905998158313ELm29ELm6148914691236517205ELm17ELm8202884508482404352ELm37ELm18444473444759240704ELm43ELm6364136223846793005EEclEv
	.cfi_startproc
# %bb.0:
	movq	2496(%rdi), %rax
	cmpq	$312, %rax                      # imm = 0x138
	jb	.LBB38_2
# %bb.1:
	vmovdqu64	8(%rdi), %zmm2
	vmovdqu64	72(%rdi), %zmm4
	vmovdqu64	136(%rdi), %zmm5
	vmovdqu64	200(%rdi), %zmm6
	vpbroadcastq	.LCPI38_1(%rip), %zmm3  # zmm3 = [2147483646,2147483646,2147483646,2147483646,2147483646,2147483646,2147483646,2147483646]
	vpbroadcastq	.LCPI38_0(%rip), %zmm0  # zmm0 = [18446744071562067968,18446744071562067968,18446744071562067968,18446744071562067968,18446744071562067968,18446744071562067968,18446744071562067968,18446744071562067968]
	vpbroadcastq	.LCPI38_2(%rip), %zmm17 # zmm17 = [1,1,1,1,1,1,1,1]
	vpbroadcastq	.LCPI38_3(%rip), %zmm16 # zmm16 = [13043109905998158313,13043109905998158313,13043109905998158313,13043109905998158313,13043109905998158313,13043109905998158313,13043109905998158313,13043109905998158313]
	movq	$-2147483648, %rax              # imm = 0x80000000
	valignq	$7, (%rdi){1to8}, %zmm2, %zmm1
	valignq	$7, %zmm2, %zmm4, %zmm7         # zmm7 = zmm2[7],zmm4[0,1,2,3,4,5,6]
	valignq	$7, %zmm4, %zmm5, %zmm8         # zmm8 = zmm4[7],zmm5[0,1,2,3,4,5,6]
	valignq	$7, %zmm5, %zmm6, %zmm9         # zmm9 = zmm5[7],zmm6[0,1,2,3,4,5,6]
	vpandq	%zmm3, %zmm2, %zmm10
	vpandq	%zmm3, %zmm4, %zmm11
	vpandq	%zmm3, %zmm5, %zmm12
	vpandq	%zmm3, %zmm6, %zmm13
	vptestmq	%zmm17, %zmm2, %k1
	vptestmq	%zmm17, %zmm4, %k2
	vptestmq	%zmm17, %zmm5, %k3
	vptestmq	%zmm17, %zmm6, %k4
	vpternlogq	$248, %zmm0, %zmm1, %zmm10
	vpternlogq	$248, %zmm0, %zmm7, %zmm11
	vpternlogq	$248, %zmm0, %zmm8, %zmm12
	vpternlogq	$248, %zmm0, %zmm9, %zmm13
	vpsrlq	$1, %zmm10, %zmm7
	vpxorq	1248(%rdi), %zmm7, %zmm7
	vpsrlq	$1, %zmm11, %zmm8
	vpsrlq	$1, %zmm12, %zmm9
	vpsrlq	$1, %zmm13, %zmm10
	vpxorq	1312(%rdi), %zmm8, %zmm8
	vpxorq	1376(%rdi), %zmm9, %zmm9
	vpxorq	1440(%rdi), %zmm10, %zmm10
	vpxorq	%zmm16, %zmm7, %zmm7 {%k1}
	vpxorq	%zmm16, %zmm8, %zmm8 {%k2}
	vpxorq	%zmm16, %zmm9, %zmm9 {%k3}
	vpxorq	%zmm16, %zmm10, %zmm10 {%k4}
	vmovdqu64	%zmm7, (%rdi)
	vmovdqu64	%zmm8, 64(%rdi)
	vmovdqu64	%zmm9, 128(%rdi)
	vmovdqu64	%zmm10, 192(%rdi)
	vmovdqu64	264(%rdi), %zmm4
	vmovdqu64	328(%rdi), %zmm5
	vmovdqu64	392(%rdi), %zmm7
	vmovdqu64	456(%rdi), %zmm8
	valignq	$7, %zmm6, %zmm4, %zmm6         # zmm6 = zmm6[7],zmm4[0,1,2,3,4,5,6]
	valignq	$7, %zmm4, %zmm5, %zmm9         # zmm9 = zmm4[7],zmm5[0,1,2,3,4,5,6]
	valignq	$7, %zmm5, %zmm7, %zmm10        # zmm10 = zmm5[7],zmm7[0,1,2,3,4,5,6]
	valignq	$7, %zmm7, %zmm8, %zmm11        # zmm11 = zmm7[7],zmm8[0,1,2,3,4,5,6]
	vpandq	%zmm3, %zmm4, %zmm12
	vpandq	%zmm3, %zmm5, %zmm13
	vpandq	%zmm3, %zmm7, %zmm14
	vpandq	%zmm3, %zmm8, %zmm15
	vptestmq	%zmm17, %zmm4, %k1
	vptestmq	%zmm17, %zmm5, %k2
	vptestmq	%zmm17, %zmm7, %k3
	vptestmq	%zmm17, %zmm8, %k4
	vpternlogq	$248, %zmm0, %zmm6, %zmm12
	vpternlogq	$248, %zmm0, %zmm9, %zmm13
	vpternlogq	$248, %zmm0, %zmm10, %zmm14
	vpternlogq	$248, %zmm0, %zmm11, %zmm15
	vpsrlq	$1, %zmm12, %zmm6
	vpsrlq	$1, %zmm13, %zmm9
	vpsrlq	$1, %zmm14, %zmm10
	vpsrlq	$1, %zmm15, %zmm11
	vpxorq	1504(%rdi), %zmm6, %zmm6
	vpxorq	1568(%rdi), %zmm9, %zmm9
	vpxorq	1632(%rdi), %zmm10, %zmm10
	vpxorq	1696(%rdi), %zmm11, %zmm11
	vpxorq	%zmm16, %zmm6, %zmm6 {%k1}
	vpxorq	%zmm16, %zmm9, %zmm9 {%k2}
	vpxorq	%zmm16, %zmm10, %zmm10 {%k3}
	vpxorq	%zmm16, %zmm11, %zmm11 {%k4}
	vmovdqu64	%zmm6, 256(%rdi)
	vmovdqu64	%zmm9, 320(%rdi)
	vmovdqu64	%zmm10, 384(%rdi)
	vmovdqu64	%zmm11, 448(%rdi)
	vmovdqu64	520(%rdi), %zmm4
	vmovdqu64	584(%rdi), %zmm5
	vmovdqu64	648(%rdi), %zmm6
	vmovdqu64	712(%rdi), %zmm7
	valignq	$7, %zmm8, %zmm4, %zmm8         # zmm8 = zmm8[7],zmm4[0,1,2,3,4,5,6]
	valignq	$7, %zmm4, %zmm5, %zmm9         # zmm9 = zmm4[7],zmm5[0,1,2,3,4,5,6]
	valignq	$7, %zmm5, %zmm6, %zmm10        # zmm10 = zmm5[7],zmm6[0,1,2,3,4,5,6]
	valignq	$7, %zmm6, %zmm7, %zmm11        # zmm11 = zmm6[7],zmm7[0,1,2,3,4,5,6]
	vpandq	%zmm3, %zmm4, %zmm12
	vpandq	%zmm3, %zmm5, %zmm13
	vpandq	%zmm3, %zmm6, %zmm14
	vpandq	%zmm3, %zmm7, %zmm15
	vptestmq	%zmm17, %zmm4, %k1
	vptestmq	%zmm17, %zmm5, %k2
	vptestmq	%zmm17, %zmm6, %k3
	vptestmq	%zmm17, %zmm7, %k4
	vpternlogq	$248, %zmm0, %zmm8, %zmm12
	vpternlogq	$248, %zmm0, %zmm9, %zmm13
	vpternlogq	$248, %zmm0, %zmm10, %zmm14
	vpternlogq	$248, %zmm0, %zmm11, %zmm15
	vpsrlq	$1, %zmm12, %zmm8
	vpsrlq	$1, %zmm13, %zmm9
	vpsrlq	$1, %zmm14, %zmm10
	vpsrlq	$1, %zmm15, %zmm11
	vpxorq	1760(%rdi), %zmm8, %zmm8
	vpxorq	1824(%rdi), %zmm9, %zmm9
	vpxorq	1888(%rdi), %zmm10, %zmm10
	vpxorq	1952(%rdi), %zmm11, %zmm11
	vpxorq	%zmm16, %zmm8, %zmm8 {%k1}
	vpxorq	%zmm16, %zmm9, %zmm9 {%k2}
	vpxorq	%zmm16, %zmm10, %zmm10 {%k3}
	vpxorq	%zmm16, %zmm11, %zmm11 {%k4}
	vmovdqu64	%zmm8, 512(%rdi)
	vmovdqu64	%zmm9, 576(%rdi)
	vmovdqu64	%zmm10, 640(%rdi)
	vmovdqu64	%zmm11, 704(%rdi)
	vmovdqu64	776(%rdi), %zmm4
	vmovdqu64	840(%rdi), %zmm5
	vmovdqu64	904(%rdi), %zmm6
	vmovdqu64	968(%rdi), %zmm8
	movq	1024(%rdi), %rcx
	andq	%rax, %rcx
	valignq	$7, %zmm7, %zmm4, %zmm7         # zmm7 = zmm7[7],zmm4[0,1,2,3,4,5,6]
	valignq	$7, %zmm4, %zmm5, %zmm9         # zmm9 = zmm4[7],zmm5[0,1,2,3,4,5,6]
	valignq	$7, %zmm5, %zmm6, %zmm10        # zmm10 = zmm5[7],zmm6[0,1,2,3,4,5,6]
	valignq	$7, %zmm6, %zmm8, %zmm11        # zmm11 = zmm6[7],zmm8[0,1,2,3,4,5,6]
	vpandq	%zmm3, %zmm4, %zmm12
	vpandq	%zmm3, %zmm5, %zmm13
	vpandq	%zmm3, %zmm6, %zmm14
	vpandq	%zmm3, %zmm8, %zmm15
	vptestmq	%zmm17, %zmm4, %k1
	vptestmq	%zmm17, %zmm5, %k2
	vptestmq	%zmm17, %zmm6, %k3
	vptestmq	%zmm17, %zmm8, %k4
	vpternlogq	$248, %zmm0, %zmm7, %zmm12
	vpternlogq	$248, %zmm0, %zmm9, %zmm13
	vpternlogq	$248, %zmm0, %zmm10, %zmm14
	vpternlogq	$248, %zmm0, %zmm11, %zmm15
	vpsrlq	$1, %zmm12, %zmm7
	vpsrlq	$1, %zmm13, %zmm9
	vpsrlq	$1, %zmm14, %zmm10
	vpsrlq	$1, %zmm15, %zmm11
	vpxorq	2016(%rdi), %zmm7, %zmm7
	vpxorq	2080(%rdi), %zmm9, %zmm9
	vpxorq	2144(%rdi), %zmm10, %zmm10
	vpxorq	2208(%rdi), %zmm11, %zmm11
	vpxorq	%zmm16, %zmm7, %zmm7 {%k1}
	vpxorq	%zmm16, %zmm9, %zmm9 {%k2}
	vpxorq	%zmm16, %zmm10, %zmm10 {%k3}
	vpxorq	%zmm16, %zmm11, %zmm11 {%k4}
	vmovdqu64	%zmm7, 768(%rdi)
	vmovdqu64	%zmm9, 832(%rdi)
	vmovdqu64	%zmm10, 896(%rdi)
	vmovdqu64	%zmm11, 960(%rdi)
	movq	1032(%rdi), %rdx
	movl	%edx, %esi
	andl	$2147483646, %esi               # imm = 0x7FFFFFFE
	movl	%edx, %r8d
	andl	$1, %r8d
	andq	$-2147483648, %rdx              # imm = 0x80000000
	orq	%rcx, %rsi
	negq	%r8
	movabsq	$-5403634167711393303, %rcx     # imm = 0xB5026F5AA96619E9
	shrq	%rsi
	xorq	2272(%rdi), %rsi
	andq	%rcx, %r8
	xorq	%rsi, %r8
	movq	%r8, 1024(%rdi)
	movq	1040(%rdi), %rsi
	movl	%esi, %r8d
	andl	$2147483646, %r8d               # imm = 0x7FFFFFFE
	orq	%rdx, %r8
	movl	%esi, %edx
	andl	$1, %edx
	andq	$-2147483648, %rsi              # imm = 0x80000000
	shrq	%r8
	xorq	2280(%rdi), %r8
	negq	%rdx
	andq	%rcx, %rdx
	xorq	%r8, %rdx
	movq	%rdx, 1032(%rdi)
	movq	1048(%rdi), %rdx
	movl	%edx, %r8d
	andl	$2147483646, %r8d               # imm = 0x7FFFFFFE
	orq	%rsi, %r8
	movl	%edx, %esi
	andl	$1, %esi
	andq	$-2147483648, %rdx              # imm = 0x80000000
	shrq	%r8
	xorq	2288(%rdi), %r8
	negq	%rsi
	andq	%rcx, %rsi
	xorq	%r8, %rsi
	movq	%rsi, 1040(%rdi)
	movq	1056(%rdi), %rsi
	movl	%esi, %r8d
	andl	$2147483646, %r8d               # imm = 0x7FFFFFFE
	orq	%rdx, %r8
	movl	%esi, %edx
	andl	$1, %edx
	andq	$-2147483648, %rsi              # imm = 0x80000000
	shrq	%r8
	xorq	2296(%rdi), %r8
	negq	%rdx
	andq	%rcx, %rdx
	xorq	%r8, %rdx
	movq	%rdx, 1048(%rdi)
	movq	1064(%rdi), %rdx
	movl	%edx, %r8d
	andl	$2147483646, %r8d               # imm = 0x7FFFFFFE
	orq	%rsi, %r8
	movl	%edx, %esi
	andl	$1, %esi
	andq	$-2147483648, %rdx              # imm = 0x80000000
	shrq	%r8
	xorq	2304(%rdi), %r8
	negq	%rsi
	andq	%rcx, %rsi
	xorq	%r8, %rsi
	movq	%rsi, 1056(%rdi)
	movq	1072(%rdi), %rsi
	movl	%esi, %r8d
	andl	$2147483646, %r8d               # imm = 0x7FFFFFFE
	orq	%rdx, %r8
	movl	%esi, %edx
	andl	$1, %edx
	andq	$-2147483648, %rsi              # imm = 0x80000000
	shrq	%r8
	xorq	2312(%rdi), %r8
	negq	%rdx
	andq	%rcx, %rdx
	xorq	%r8, %rdx
	movq	%rdx, 1064(%rdi)
	movq	1080(%rdi), %rdx
	movl	%edx, %r8d
	andl	$2147483646, %r8d               # imm = 0x7FFFFFFE
	orq	%rsi, %r8
	movl	%edx, %esi
	andl	$1, %esi
	andq	$-2147483648, %rdx              # imm = 0x80000000
	shrq	%r8
	xorq	2320(%rdi), %r8
	negq	%rsi
	andq	%rcx, %rsi
	xorq	%r8, %rsi
	movq	%rsi, 1072(%rdi)
	movq	1088(%rdi), %rsi
	movl	%esi, %r8d
	andl	$2147483646, %r8d               # imm = 0x7FFFFFFE
	orq	%rdx, %r8
	movl	%esi, %edx
	andl	$1, %edx
	andq	$-2147483648, %rsi              # imm = 0x80000000
	shrq	%r8
	xorq	2328(%rdi), %r8
	negq	%rdx
	andq	%rcx, %rdx
	xorq	%r8, %rdx
	movq	%rdx, 1080(%rdi)
	movq	1096(%rdi), %rdx
	movl	%edx, %r8d
	andl	$2147483646, %r8d               # imm = 0x7FFFFFFE
	orq	%rsi, %r8
	movl	%edx, %esi
	andl	$1, %esi
	andq	$-2147483648, %rdx              # imm = 0x80000000
	shrq	%r8
	xorq	2336(%rdi), %r8
	negq	%rsi
	andq	%rcx, %rsi
	xorq	%r8, %rsi
	movq	%rsi, 1088(%rdi)
	movq	1104(%rdi), %rsi
	movl	%esi, %r8d
	andl	$2147483646, %r8d               # imm = 0x7FFFFFFE
	orq	%rdx, %r8
	movl	%esi, %edx
	andl	$1, %edx
	andq	$-2147483648, %rsi              # imm = 0x80000000
	shrq	%r8
	xorq	2344(%rdi), %r8
	negq	%rdx
	andq	%rcx, %rdx
	xorq	%r8, %rdx
	movq	%rdx, 1096(%rdi)
	movq	1112(%rdi), %rdx
	movl	%edx, %r8d
	andl	$2147483646, %r8d               # imm = 0x7FFFFFFE
	orq	%rsi, %r8
	movl	%edx, %esi
	andl	$1, %esi
	andq	$-2147483648, %rdx              # imm = 0x80000000
	shrq	%r8
	xorq	2352(%rdi), %r8
	negq	%rsi
	andq	%rcx, %rsi
	xorq	%r8, %rsi
	movq	%rsi, 1104(%rdi)
	movq	1120(%rdi), %rsi
	movl	%esi, %r8d
	andl	$2147483646, %r8d               # imm = 0x7FFFFFFE
	orq	%rdx, %r8
	movl	%esi, %edx
	andl	$1, %edx
	andq	$-2147483648, %rsi              # imm = 0x80000000
	shrq	%r8
	xorq	2360(%rdi), %r8
	negq	%rdx
	andq	%rcx, %rdx
	xorq	%r8, %rdx
	movq	%rdx, 1112(%rdi)
	movq	1128(%rdi), %rdx
	movl	%edx, %r8d
	andl	$2147483646, %r8d               # imm = 0x7FFFFFFE
	orq	%rsi, %r8
	movl	%edx, %esi
	andl	$1, %esi
	andq	$-2147483648, %rdx              # imm = 0x80000000
	shrq	%r8
	xorq	2368(%rdi), %r8
	negq	%rsi
	andq	%rcx, %rsi
	xorq	%r8, %rsi
	movq	%rsi, 1120(%rdi)
	movq	1136(%rdi), %rsi
	movl	%esi, %r8d
	andl	$2147483646, %r8d               # imm = 0x7FFFFFFE
	orq	%rdx, %r8
	movl	%esi, %edx
	andl	$1, %edx
	andq	$-2147483648, %rsi              # imm = 0x80000000
	shrq	%r8
	xorq	2376(%rdi), %r8
	negq	%rdx
	andq	%rcx, %rdx
	xorq	%r8, %rdx
	movq	%rdx, 1128(%rdi)
	movq	1144(%rdi), %rdx
	movl	%edx, %r8d
	andl	$2147483646, %r8d               # imm = 0x7FFFFFFE
	orq	%rsi, %r8
	movl	%edx, %esi
	andl	$1, %esi
	andq	$-2147483648, %rdx              # imm = 0x80000000
	shrq	%r8
	xorq	2384(%rdi), %r8
	negq	%rsi
	andq	%rcx, %rsi
	xorq	%r8, %rsi
	movq	%rsi, 1136(%rdi)
	movq	1152(%rdi), %rsi
	movl	%esi, %r8d
	andl	$2147483646, %r8d               # imm = 0x7FFFFFFE
	orq	%rdx, %r8
	movl	%esi, %edx
	andl	$1, %edx
	andq	$-2147483648, %rsi              # imm = 0x80000000
	shrq	%r8
	xorq	2392(%rdi), %r8
	negq	%rdx
	andq	%rcx, %rdx
	xorq	%r8, %rdx
	movq	%rdx, 1144(%rdi)
	movq	1160(%rdi), %rdx
	movl	%edx, %r8d
	andl	$2147483646, %r8d               # imm = 0x7FFFFFFE
	orq	%rsi, %r8
	movl	%edx, %esi
	andl	$1, %esi
	andq	$-2147483648, %rdx              # imm = 0x80000000
	shrq	%r8
	xorq	2400(%rdi), %r8
	negq	%rsi
	andq	%rcx, %rsi
	xorq	%r8, %rsi
	movq	%rsi, 1152(%rdi)
	movq	1168(%rdi), %rsi
	movl	%esi, %r8d
	andl	$2147483646, %r8d               # imm = 0x7FFFFFFE
	orq	%rdx, %r8
	movl	%esi, %edx
	andl	$1, %edx
	andq	$-2147483648, %rsi              # imm = 0x80000000
	shrq	%r8
	xorq	2408(%rdi), %r8
	negq	%rdx
	andq	%rcx, %rdx
	xorq	%r8, %rdx
	movq	%rdx, 1160(%rdi)
	movq	1176(%rdi), %rdx
	movl	%edx, %r8d
	andl	$2147483646, %r8d               # imm = 0x7FFFFFFE
	orq	%rsi, %r8
	movl	%edx, %esi
	andl	$1, %esi
	andq	$-2147483648, %rdx              # imm = 0x80000000
	shrq	%r8
	xorq	2416(%rdi), %r8
	negq	%rsi
	andq	%rcx, %rsi
	xorq	%r8, %rsi
	movq	%rsi, 1168(%rdi)
	movq	1184(%rdi), %rsi
	movl	%esi, %r8d
	andl	$2147483646, %r8d               # imm = 0x7FFFFFFE
	orq	%rdx, %r8
	movl	%esi, %edx
	andl	$1, %edx
	andq	$-2147483648, %rsi              # imm = 0x80000000
	shrq	%r8
	xorq	2424(%rdi), %r8
	negq	%rdx
	andq	%rcx, %rdx
	xorq	%r8, %rdx
	movq	%rdx, 1176(%rdi)
	movq	1192(%rdi), %rdx
	movl	%edx, %r8d
	andl	$2147483646, %r8d               # imm = 0x7FFFFFFE
	orq	%rsi, %r8
	movl	%edx, %esi
	andl	$1, %esi
	andq	$-2147483648, %rdx              # imm = 0x80000000
	shrq	%r8
	xorq	2432(%rdi), %r8
	negq	%rsi
	andq	%rcx, %rsi
	xorq	%r8, %rsi
	movq	%rsi, 1184(%rdi)
	movq	1200(%rdi), %rsi
	movl	%esi, %r8d
	andl	$2147483646, %r8d               # imm = 0x7FFFFFFE
	orq	%rdx, %r8
	movl	%esi, %edx
	andl	$1, %edx
	andq	$-2147483648, %rsi              # imm = 0x80000000
	shrq	%r8
	xorq	2440(%rdi), %r8
	negq	%rdx
	andq	%rcx, %rdx
	xorq	%r8, %rdx
	movq	%rdx, 1192(%rdi)
	movq	1208(%rdi), %rdx
	movl	%edx, %r8d
	andl	$2147483646, %r8d               # imm = 0x7FFFFFFE
	orq	%rsi, %r8
	movl	%edx, %esi
	andl	$1, %esi
	andq	$-2147483648, %rdx              # imm = 0x80000000
	shrq	%r8
	xorq	2448(%rdi), %r8
	negq	%rsi
	andq	%rcx, %rsi
	xorq	%r8, %rsi
	movq	%rsi, 1200(%rdi)
	movq	1216(%rdi), %rsi
	movl	%esi, %r8d
	andl	$2147483646, %r8d               # imm = 0x7FFFFFFE
	orq	%rdx, %r8
	movl	%esi, %edx
	andl	$1, %edx
	andq	$-2147483648, %rsi              # imm = 0x80000000
	shrq	%r8
	xorq	2456(%rdi), %r8
	negq	%rdx
	andq	%rcx, %rdx
	xorq	%r8, %rdx
	movq	%rdx, 1208(%rdi)
	movq	1224(%rdi), %rdx
	movl	%edx, %r8d
	andl	$2147483646, %r8d               # imm = 0x7FFFFFFE
	orq	%rsi, %r8
	movl	%edx, %esi
	andl	$1, %esi
	andq	$-2147483648, %rdx              # imm = 0x80000000
	shrq	%r8
	xorq	2464(%rdi), %r8
	negq	%rsi
	andq	%rcx, %rsi
	xorq	%r8, %rsi
	movq	%rsi, 1216(%rdi)
	movq	1232(%rdi), %rsi
	movl	%esi, %r8d
	andl	$2147483646, %r8d               # imm = 0x7FFFFFFE
	orq	%rdx, %r8
	movl	%esi, %edx
	andl	$1, %edx
	andq	$-2147483648, %rsi              # imm = 0x80000000
	shrq	%r8
	xorq	2472(%rdi), %r8
	negq	%rdx
	andq	%rcx, %rdx
	xorq	%r8, %rdx
	movq	%rdx, 1224(%rdi)
	movq	1240(%rdi), %rdx
	movl	%edx, %r8d
	andl	$2147483646, %r8d               # imm = 0x7FFFFFFE
	orq	%rsi, %r8
	movl	%edx, %esi
	andl	$1, %esi
	andq	$-2147483648, %rdx              # imm = 0x80000000
	shrq	%r8
	xorq	2480(%rdi), %r8
	negq	%rsi
	andq	%rcx, %rsi
	xorq	%r8, %rsi
	movq	%rsi, 1232(%rdi)
	movq	1248(%rdi), %rsi
	movl	%esi, %r8d
	andl	$2147483646, %r8d               # imm = 0x7FFFFFFE
	andl	$1, %esi
	orq	%rdx, %r8
	negq	%rsi
	shrq	%r8
	xorq	2488(%rdi), %r8
	andq	%rcx, %rsi
	xorq	%r8, %rsi
	movq	%rsi, 1240(%rdi)
	vmovdqu64	1256(%rdi), %zmm4
	vmovdqu64	1320(%rdi), %zmm5
	vmovdqu64	1384(%rdi), %zmm6
	vmovdqu64	1448(%rdi), %zmm7
	valignq	$7, 1248(%rdi){1to8}, %zmm4, %zmm8
	valignq	$7, %zmm4, %zmm5, %zmm9         # zmm9 = zmm4[7],zmm5[0,1,2,3,4,5,6]
	valignq	$7, %zmm5, %zmm6, %zmm10        # zmm10 = zmm5[7],zmm6[0,1,2,3,4,5,6]
	valignq	$7, %zmm6, %zmm7, %zmm11        # zmm11 = zmm6[7],zmm7[0,1,2,3,4,5,6]
	vpandq	%zmm3, %zmm4, %zmm12
	vpandq	%zmm3, %zmm5, %zmm13
	vpandq	%zmm3, %zmm6, %zmm14
	vpandq	%zmm3, %zmm7, %zmm15
	vptestmq	%zmm17, %zmm4, %k1
	vptestmq	%zmm17, %zmm5, %k2
	vptestmq	%zmm17, %zmm6, %k3
	vptestmq	%zmm17, %zmm7, %k4
	vpternlogq	$248, %zmm0, %zmm8, %zmm12
	vpsrlq	$1, %zmm12, %zmm8
	vpxorq	(%rdi), %zmm8, %zmm8
	vpternlogq	$248, %zmm0, %zmm9, %zmm13
	vpternlogq	$248, %zmm0, %zmm10, %zmm14
	vpternlogq	$248, %zmm0, %zmm11, %zmm15
	vpsrlq	$1, %zmm13, %zmm9
	vpsrlq	$1, %zmm14, %zmm10
	vpsrlq	$1, %zmm15, %zmm11
	vpxorq	64(%rdi), %zmm9, %zmm9
	vpxorq	128(%rdi), %zmm10, %zmm10
	vpxorq	192(%rdi), %zmm11, %zmm11
	vpxorq	%zmm16, %zmm8, %zmm8 {%k1}
	vmovdqu64	%zmm8, 1248(%rdi)
	vpxorq	%zmm16, %zmm9, %zmm9 {%k2}
	vpxorq	%zmm16, %zmm10, %zmm10 {%k3}
	vpxorq	%zmm16, %zmm11, %zmm11 {%k4}
	vmovdqu64	%zmm9, 1312(%rdi)
	vmovdqu64	%zmm10, 1376(%rdi)
	vmovdqu64	%zmm11, 1440(%rdi)
	vmovdqu64	1512(%rdi), %zmm4
	vmovdqu64	1576(%rdi), %zmm5
	vmovdqu64	1640(%rdi), %zmm6
	vmovdqu64	1704(%rdi), %zmm8
	valignq	$7, %zmm7, %zmm4, %zmm7         # zmm7 = zmm7[7],zmm4[0,1,2,3,4,5,6]
	valignq	$7, %zmm4, %zmm5, %zmm9         # zmm9 = zmm4[7],zmm5[0,1,2,3,4,5,6]
	valignq	$7, %zmm5, %zmm6, %zmm10        # zmm10 = zmm5[7],zmm6[0,1,2,3,4,5,6]
	valignq	$7, %zmm6, %zmm8, %zmm11        # zmm11 = zmm6[7],zmm8[0,1,2,3,4,5,6]
	vpandq	%zmm3, %zmm4, %zmm12
	vpandq	%zmm3, %zmm5, %zmm13
	vpandq	%zmm3, %zmm6, %zmm14
	vpandq	%zmm3, %zmm8, %zmm15
	vptestmq	%zmm17, %zmm4, %k1
	vptestmq	%zmm17, %zmm5, %k2
	vptestmq	%zmm17, %zmm6, %k3
	vptestmq	%zmm17, %zmm8, %k4
	vpternlogq	$248, %zmm0, %zmm7, %zmm12
	vpternlogq	$248, %zmm0, %zmm9, %zmm13
	vpternlogq	$248, %zmm0, %zmm10, %zmm14
	vpternlogq	$248, %zmm0, %zmm11, %zmm15
	vpsrlq	$1, %zmm12, %zmm7
	vpsrlq	$1, %zmm13, %zmm9
	vpsrlq	$1, %zmm14, %zmm10
	vpsrlq	$1, %zmm15, %zmm11
	vpxorq	256(%rdi), %zmm7, %zmm7
	vpxorq	320(%rdi), %zmm9, %zmm9
	vpxorq	384(%rdi), %zmm10, %zmm10
	vpxorq	448(%rdi), %zmm11, %zmm11
	vpxorq	%zmm16, %zmm7, %zmm7 {%k1}
	vpxorq	%zmm16, %zmm9, %zmm9 {%k2}
	vpxorq	%zmm16, %zmm10, %zmm10 {%k3}
	vpxorq	%zmm16, %zmm11, %zmm11 {%k4}
	vmovdqu64	%zmm7, 1504(%rdi)
	vmovdqu64	%zmm9, 1568(%rdi)
	vmovdqu64	%zmm10, 1632(%rdi)
	vmovdqu64	%zmm11, 1696(%rdi)
	vmovdqu64	1768(%rdi), %zmm4
	vmovdqu64	1832(%rdi), %zmm5
	vmovdqu64	1896(%rdi), %zmm6
	vmovdqu64	1960(%rdi), %zmm7
	valignq	$7, %zmm8, %zmm4, %zmm8         # zmm8 = zmm8[7],zmm4[0,1,2,3,4,5,6]
	valignq	$7, %zmm4, %zmm5, %zmm9         # zmm9 = zmm4[7],zmm5[0,1,2,3,4,5,6]
	valignq	$7, %zmm5, %zmm6, %zmm10        # zmm10 = zmm5[7],zmm6[0,1,2,3,4,5,6]
	valignq	$7, %zmm6, %zmm7, %zmm11        # zmm11 = zmm6[7],zmm7[0,1,2,3,4,5,6]
	vpandq	%zmm3, %zmm4, %zmm12
	vpandq	%zmm3, %zmm5, %zmm13
	vpandq	%zmm3, %zmm6, %zmm14
	vpandq	%zmm3, %zmm7, %zmm15
	vptestmq	%zmm17, %zmm4, %k1
	vptestmq	%zmm17, %zmm5, %k2
	vptestmq	%zmm17, %zmm6, %k3
	vptestmq	%zmm17, %zmm7, %k4
	vpternlogq	$248, %zmm0, %zmm8, %zmm12
	vpternlogq	$248, %zmm0, %zmm9, %zmm13
	vpternlogq	$248, %zmm0, %zmm10, %zmm14
	vpternlogq	$248, %zmm0, %zmm11, %zmm15
	vpsrlq	$1, %zmm12, %zmm8
	vpsrlq	$1, %zmm13, %zmm9
	vpsrlq	$1, %zmm14, %zmm10
	vpsrlq	$1, %zmm15, %zmm11
	vpxorq	512(%rdi), %zmm8, %zmm8
	vpxorq	576(%rdi), %zmm9, %zmm9
	vpxorq	640(%rdi), %zmm10, %zmm10
	vpxorq	704(%rdi), %zmm11, %zmm11
	vpxorq	%zmm16, %zmm8, %zmm8 {%k1}
	vpxorq	%zmm16, %zmm9, %zmm9 {%k2}
	vpxorq	%zmm16, %zmm10, %zmm10 {%k3}
	vpxorq	%zmm16, %zmm11, %zmm11 {%k4}
	vmovdqu64	%zmm8, 1760(%rdi)
	vmovdqu64	%zmm9, 1824(%rdi)
	vmovdqu64	%zmm10, 1888(%rdi)
	vmovdqu64	%zmm11, 1952(%rdi)
	vmovdqu64	2024(%rdi), %zmm4
	vmovdqu64	2088(%rdi), %zmm5
	vmovdqu64	2152(%rdi), %zmm6
	vmovdqu64	2216(%rdi), %zmm8
	movq	2272(%rdi), %rdx
	andq	%rax, %rdx
	valignq	$7, %zmm7, %zmm4, %zmm7         # zmm7 = zmm7[7],zmm4[0,1,2,3,4,5,6]
	valignq	$7, %zmm4, %zmm5, %zmm9         # zmm9 = zmm4[7],zmm5[0,1,2,3,4,5,6]
	valignq	$7, %zmm5, %zmm6, %zmm10        # zmm10 = zmm5[7],zmm6[0,1,2,3,4,5,6]
	valignq	$7, %zmm6, %zmm8, %zmm11        # zmm11 = zmm6[7],zmm8[0,1,2,3,4,5,6]
	vpandq	%zmm3, %zmm4, %zmm12
	vpandq	%zmm3, %zmm5, %zmm13
	vpandq	%zmm3, %zmm6, %zmm14
	vpandq	%zmm3, %zmm8, %zmm3
	vptestmq	%zmm17, %zmm4, %k1
	vptestmq	%zmm17, %zmm5, %k2
	vptestmq	%zmm17, %zmm6, %k3
	vptestmq	%zmm17, %zmm8, %k4
	vpternlogq	$248, %zmm0, %zmm11, %zmm3
	vpternlogq	$248, %zmm0, %zmm7, %zmm12
	vpternlogq	$248, %zmm0, %zmm9, %zmm13
	vpternlogq	$248, %zmm0, %zmm10, %zmm14
	vpsrlq	$1, %zmm12, %zmm0
	vpsrlq	$1, %zmm13, %zmm7
	vpsrlq	$1, %zmm14, %zmm9
	vpsrlq	$1, %zmm3, %zmm3
	vpxorq	768(%rdi), %zmm0, %zmm0
	vpxorq	832(%rdi), %zmm7, %zmm7
	vpxorq	896(%rdi), %zmm9, %zmm9
	vpxorq	960(%rdi), %zmm3, %zmm3
	vpxorq	%zmm16, %zmm0, %zmm0 {%k1}
	vpxorq	%zmm16, %zmm7, %zmm7 {%k2}
	vpxorq	%zmm16, %zmm9, %zmm9 {%k3}
	vpxorq	%zmm16, %zmm3, %zmm3 {%k4}
	vmovdqu64	%zmm0, 2016(%rdi)
	vmovdqu64	%zmm7, 2080(%rdi)
	vmovdqu64	%zmm9, 2144(%rdi)
	vmovdqu64	%zmm3, 2208(%rdi)
	movq	2280(%rdi), %rsi
	movl	%esi, %r8d
	andl	$2147483646, %r8d               # imm = 0x7FFFFFFE
	orq	%rdx, %r8
	movl	%esi, %edx
	andl	$1, %edx
	andq	$-2147483648, %rsi              # imm = 0x80000000
	shrq	%r8
	xorq	1024(%rdi), %r8
	negq	%rdx
	andq	%rcx, %rdx
	xorq	%r8, %rdx
	movq	%rdx, 2272(%rdi)
	movq	2288(%rdi), %rdx
	movl	%edx, %r8d
	andl	$2147483646, %r8d               # imm = 0x7FFFFFFE
	orq	%rsi, %r8
	movl	%edx, %esi
	andl	$1, %esi
	andq	$-2147483648, %rdx              # imm = 0x80000000
	shrq	%r8
	xorq	1032(%rdi), %r8
	negq	%rsi
	andq	%rcx, %rsi
	xorq	%r8, %rsi
	movq	%rsi, 2280(%rdi)
	movq	2296(%rdi), %rsi
	movl	%esi, %r8d
	andl	$2147483646, %r8d               # imm = 0x7FFFFFFE
	orq	%rdx, %r8
	movl	%esi, %edx
	andl	$1, %edx
	andq	$-2147483648, %rsi              # imm = 0x80000000
	shrq	%r8
	xorq	1040(%rdi), %r8
	negq	%rdx
	andq	%rcx, %rdx
	xorq	%r8, %rdx
	movq	%rdx, 2288(%rdi)
	movq	2304(%rdi), %rdx
	movl	%edx, %r8d
	andl	$2147483646, %r8d               # imm = 0x7FFFFFFE
	orq	%rsi, %r8
	movl	%edx, %esi
	andl	$1, %esi
	andq	$-2147483648, %rdx              # imm = 0x80000000
	shrq	%r8
	xorq	1048(%rdi), %r8
	negq	%rsi
	andq	%rcx, %rsi
	xorq	%r8, %rsi
	movq	%rsi, 2296(%rdi)
	movq	2312(%rdi), %rsi
	movl	%esi, %r8d
	andl	$2147483646, %r8d               # imm = 0x7FFFFFFE
	orq	%rdx, %r8
	movl	%esi, %edx
	andl	$1, %edx
	andq	$-2147483648, %rsi              # imm = 0x80000000
	shrq	%r8
	xorq	1056(%rdi), %r8
	negq	%rdx
	andq	%rcx, %rdx
	xorq	%r8, %rdx
	movq	%rdx, 2304(%rdi)
	movq	2320(%rdi), %rdx
	movl	%edx, %r8d
	andl	$2147483646, %r8d               # imm = 0x7FFFFFFE
	orq	%rsi, %r8
	movl	%edx, %esi
	andl	$1, %esi
	andq	$-2147483648, %rdx              # imm = 0x80000000
	shrq	%r8
	xorq	1064(%rdi), %r8
	negq	%rsi
	andq	%rcx, %rsi
	xorq	%r8, %rsi
	movq	%rsi, 2312(%rdi)
	movq	2328(%rdi), %rsi
	movl	%esi, %r8d
	andl	$2147483646, %r8d               # imm = 0x7FFFFFFE
	orq	%rdx, %r8
	movl	%esi, %edx
	andl	$1, %edx
	andq	$-2147483648, %rsi              # imm = 0x80000000
	shrq	%r8
	xorq	1072(%rdi), %r8
	negq	%rdx
	andq	%rcx, %rdx
	xorq	%r8, %rdx
	movq	%rdx, 2320(%rdi)
	movq	2336(%rdi), %rdx
	movl	%edx, %r8d
	andl	$2147483646, %r8d               # imm = 0x7FFFFFFE
	orq	%rsi, %r8
	movl	%edx, %esi
	andl	$1, %esi
	andq	$-2147483648, %rdx              # imm = 0x80000000
	shrq	%r8
	xorq	1080(%rdi), %r8
	negq	%rsi
	andq	%rcx, %rsi
	xorq	%r8, %rsi
	movq	%rsi, 2328(%rdi)
	movq	2344(%rdi), %rsi
	movl	%esi, %r8d
	andl	$2147483646, %r8d               # imm = 0x7FFFFFFE
	orq	%rdx, %r8
	movl	%esi, %edx
	andl	$1, %edx
	andq	$-2147483648, %rsi              # imm = 0x80000000
	shrq	%r8
	xorq	1088(%rdi), %r8
	negq	%rdx
	andq	%rcx, %rdx
	xorq	%r8, %rdx
	movq	%rdx, 2336(%rdi)
	movq	2352(%rdi), %rdx
	movl	%edx, %r8d
	andl	$2147483646, %r8d               # imm = 0x7FFFFFFE
	orq	%rsi, %r8
	movl	%edx, %esi
	andl	$1, %esi
	andq	$-2147483648, %rdx              # imm = 0x80000000
	shrq	%r8
	xorq	1096(%rdi), %r8
	negq	%rsi
	andq	%rcx, %rsi
	xorq	%r8, %rsi
	movq	%rsi, 2344(%rdi)
	movq	2360(%rdi), %rsi
	movl	%esi, %r8d
	andl	$2147483646, %r8d               # imm = 0x7FFFFFFE
	orq	%rdx, %r8
	movl	%esi, %edx
	andl	$1, %edx
	andq	$-2147483648, %rsi              # imm = 0x80000000
	shrq	%r8
	xorq	1104(%rdi), %r8
	negq	%rdx
	andq	%rcx, %rdx
	xorq	%r8, %rdx
	movq	%rdx, 2352(%rdi)
	movq	2368(%rdi), %rdx
	movl	%edx, %r8d
	andl	$2147483646, %r8d               # imm = 0x7FFFFFFE
	orq	%rsi, %r8
	movl	%edx, %esi
	andl	$1, %esi
	andq	$-2147483648, %rdx              # imm = 0x80000000
	shrq	%r8
	xorq	1112(%rdi), %r8
	negq	%rsi
	andq	%rcx, %rsi
	xorq	%r8, %rsi
	movq	%rsi, 2360(%rdi)
	movq	2376(%rdi), %rsi
	movl	%esi, %r8d
	andl	$2147483646, %r8d               # imm = 0x7FFFFFFE
	orq	%rdx, %r8
	movl	%esi, %edx
	andl	$1, %edx
	andq	$-2147483648, %rsi              # imm = 0x80000000
	shrq	%r8
	xorq	1120(%rdi), %r8
	negq	%rdx
	andq	%rcx, %rdx
	xorq	%r8, %rdx
	movq	%rdx, 2368(%rdi)
	movq	2384(%rdi), %rdx
	movl	%edx, %r8d
	andl	$2147483646, %r8d               # imm = 0x7FFFFFFE
	orq	%rsi, %r8
	movl	%edx, %esi
	andl	$1, %esi
	andq	$-2147483648, %rdx              # imm = 0x80000000
	shrq	%r8
	xorq	1128(%rdi), %r8
	negq	%rsi
	andq	%rcx, %rsi
	xorq	%r8, %rsi
	movq	%rsi, 2376(%rdi)
	movq	2392(%rdi), %rsi
	movl	%esi, %r8d
	andl	$2147483646, %r8d               # imm = 0x7FFFFFFE
	orq	%rdx, %r8
	movl	%esi, %edx
	andl	$1, %edx
	andq	$-2147483648, %rsi              # imm = 0x80000000
	shrq	%r8
	xorq	1136(%rdi), %r8
	negq	%rdx
	andq	%rcx, %rdx
	xorq	%r8, %rdx
	movq	%rdx, 2384(%rdi)
	movq	2400(%rdi), %rdx
	movl	%edx, %r8d
	andl	$2147483646, %r8d               # imm = 0x7FFFFFFE
	orq	%rsi, %r8
	movl	%edx, %esi
	andl	$1, %esi
	andq	$-2147483648, %rdx              # imm = 0x80000000
	shrq	%r8
	xorq	1144(%rdi), %r8
	negq	%rsi
	andq	%rcx, %rsi
	xorq	%r8, %rsi
	movq	%rsi, 2392(%rdi)
	movq	2408(%rdi), %rsi
	movl	%esi, %r8d
	andl	$2147483646, %r8d               # imm = 0x7FFFFFFE
	orq	%rdx, %r8
	movl	%esi, %edx
	andl	$1, %edx
	andq	$-2147483648, %rsi              # imm = 0x80000000
	shrq	%r8
	xorq	1152(%rdi), %r8
	negq	%rdx
	andq	%rcx, %rdx
	xorq	%r8, %rdx
	movq	%rdx, 2400(%rdi)
	movq	2416(%rdi), %rdx
	movl	%edx, %r8d
	andl	$2147483646, %r8d               # imm = 0x7FFFFFFE
	orq	%rsi, %r8
	movl	%edx, %esi
	andl	$1, %esi
	andq	$-2147483648, %rdx              # imm = 0x80000000
	shrq	%r8
	xorq	1160(%rdi), %r8
	negq	%rsi
	andq	%rcx, %rsi
	xorq	%r8, %rsi
	movq	%rsi, 2408(%rdi)
	movq	2424(%rdi), %rsi
	movl	%esi, %r8d
	andl	$2147483646, %r8d               # imm = 0x7FFFFFFE
	orq	%rdx, %r8
	movl	%esi, %edx
	andl	$1, %edx
	andq	$-2147483648, %rsi              # imm = 0x80000000
	shrq	%r8
	xorq	1168(%rdi), %r8
	negq	%rdx
	andq	%rcx, %rdx
	xorq	%r8, %rdx
	movq	%rdx, 2416(%rdi)
	movq	2432(%rdi), %rdx
	movl	%edx, %r8d
	andl	$2147483646, %r8d               # imm = 0x7FFFFFFE
	orq	%rsi, %r8
	movl	%edx, %esi
	andl	$1, %esi
	andq	$-2147483648, %rdx              # imm = 0x80000000
	shrq	%r8
	xorq	1176(%rdi), %r8
	negq	%rsi
	andq	%rcx, %rsi
	xorq	%r8, %rsi
	movq	%rsi, 2424(%rdi)
	movq	2440(%rdi), %rsi
	movl	%esi, %r8d
	andl	$2147483646, %r8d               # imm = 0x7FFFFFFE
	orq	%rdx, %r8
	movl	%esi, %edx
	andl	$1, %edx
	andq	$-2147483648, %rsi              # imm = 0x80000000
	shrq	%r8
	xorq	1184(%rdi), %r8
	negq	%rdx
	andq	%rcx, %rdx
	xorq	%r8, %rdx
	movq	%rdx, 2432(%rdi)
	movq	2448(%rdi), %rdx
	movl	%edx, %r8d
	andl	$2147483646, %r8d               # imm = 0x7FFFFFFE
	orq	%rsi, %r8
	movl	%edx, %esi
	andl	$1, %esi
	andq	$-2147483648, %rdx              # imm = 0x80000000
	shrq	%r8
	xorq	1192(%rdi), %r8
	negq	%rsi
	andq	%rcx, %rsi
	xorq	%r8, %rsi
	movq	%rsi, 2440(%rdi)
	movq	2456(%rdi), %rsi
	movl	%esi, %r8d
	andl	$2147483646, %r8d               # imm = 0x7FFFFFFE
	orq	%rdx, %r8
	movl	%esi, %edx
	andl	$1, %edx
	andq	$-2147483648, %rsi              # imm = 0x80000000
	shrq	%r8
	xorq	1200(%rdi), %r8
	negq	%rdx
	andq	%rcx, %rdx
	xorq	%r8, %rdx
	movq	%rdx, 2448(%rdi)
	movq	2464(%rdi), %rdx
	movl	%edx, %r8d
	andl	$2147483646, %r8d               # imm = 0x7FFFFFFE
	orq	%rsi, %r8
	movl	%edx, %esi
	andl	$1, %esi
	andq	$-2147483648, %rdx              # imm = 0x80000000
	shrq	%r8
	xorq	1208(%rdi), %r8
	negq	%rsi
	andq	%rcx, %rsi
	xorq	%r8, %rsi
	movq	%rsi, 2456(%rdi)
	movq	2472(%rdi), %rsi
	movl	%esi, %r8d
	andl	$2147483646, %r8d               # imm = 0x7FFFFFFE
	orq	%rdx, %r8
	movl	%esi, %edx
	andl	$1, %edx
	andq	$-2147483648, %rsi              # imm = 0x80000000
	shrq	%r8
	xorq	1216(%rdi), %r8
	negq	%rdx
	andq	%rcx, %rdx
	xorq	%r8, %rdx
	movq	%rdx, 2464(%rdi)
	movq	2480(%rdi), %rdx
	movl	%edx, %r8d
	andl	$2147483646, %r8d               # imm = 0x7FFFFFFE
	orq	%rsi, %r8
	movl	%edx, %esi
	andl	$1, %esi
	andq	$-2147483648, %rdx              # imm = 0x80000000
	shrq	%r8
	xorq	1224(%rdi), %r8
	negq	%rsi
	andq	%rcx, %rsi
	xorq	%r8, %rsi
	movq	%rsi, 2472(%rdi)
	movq	2488(%rdi), %rsi
	movl	%esi, %r8d
	andl	$2147483646, %r8d               # imm = 0x7FFFFFFE
	andl	$1, %esi
	orq	%rdx, %r8
	negq	%rsi
	shrq	%r8
	xorq	1232(%rdi), %r8
	andq	%rcx, %rsi
	xorq	%r8, %rsi
	movq	%rsi, 2480(%rdi)
	movq	(%rdi), %rdx
	andq	2488(%rdi), %rax
	movl	%edx, %esi
	andl	$2147483646, %esi               # imm = 0x7FFFFFFE
	andl	$1, %edx
	orq	%rax, %rsi
	negq	%rdx
	xorl	%eax, %eax
	shrq	%rsi
	xorq	1240(%rdi), %rsi
	andq	%rcx, %rdx
	xorq	%rsi, %rdx
	movq	%rdx, 2488(%rdi)
.LBB38_2:
	leaq	1(%rax), %rcx
	movabsq	$22906492245, %rdx              # imm = 0x555555555
	movq	%rcx, 2496(%rdi)
	movq	(%rdi,%rax,8), %rax
	movq	%rax, %rcx
	shrq	$29, %rcx
	andq	%rcx, %rdx
	movabsq	$8202884508482404352, %rcx      # imm = 0x71D67FFFEDA60000
	xorq	%rax, %rdx
	movq	%rdx, %rax
	shlq	$17, %rax
	andq	%rax, %rcx
	xorq	%rdx, %rcx
	movl	%ecx, %edx
	andl	$134201207, %edx                # imm = 0x7FFBF77
	shlq	$37, %rdx
	xorq	%rcx, %rdx
	movq	%rdx, %rax
	shrq	$43, %rax
	xorq	%rdx, %rax
	vzeroupper
	retq
.Lfunc_end38:
	.size	_ZNSt23mersenne_twister_engineImLm64ELm312ELm156ELm31ELm13043109905998158313ELm29ELm6148914691236517205ELm17ELm8202884508482404352ELm37ELm18444473444759240704ELm43ELm6364136223846793005EEclEv, .Lfunc_end38-_ZNSt23mersenne_twister_engineImLm64ELm312ELm156ELm31ELm13043109905998158313ELm29ELm6148914691236517205ELm17ELm8202884508482404352ELm37ELm18444473444759240704ELm43ELm6364136223846793005EEclEv
	.cfi_endproc
                                        # -- End function
	.section	.rodata.cst8,"aM",@progbits,8
	.p2align	3, 0x0                          # -- Begin function _Z11init_doublev
.LCPI39_0:
	.quad	-2147483648                     # 0xffffffff80000000
.LCPI39_1:
	.quad	2147483646                      # 0x7ffffffe
.LCPI39_2:
	.quad	1                               # 0x1
.LCPI39_3:
	.quad	-5403634167711393303            # 0xb5026f5aa96619e9
.LCPI39_4:
	.quad	0x41cdcd6500000000              # double 1.0E+9
	.text
	.globl	_Z11init_doublev
	.p2align	4, 0x90
	.type	_Z11init_doublev,@function
_Z11init_doublev:                       # @_Z11init_doublev
.Lfunc_begin1:
	.cfi_startproc
	.cfi_personality 155, DW.ref.__gxx_personality_v0
	.cfi_lsda 27, .Lexception1
# %bb.0:
	pushq	%r15
	.cfi_def_cfa_offset 16
	pushq	%r14
	.cfi_def_cfa_offset 24
	pushq	%r13
	.cfi_def_cfa_offset 32
	pushq	%r12
	.cfi_def_cfa_offset 40
	pushq	%rbx
	.cfi_def_cfa_offset 48
	subq	$80, %rsp
	.cfi_def_cfa_offset 128
	.cfi_offset %rbx, -48
	.cfi_offset %r12, -40
	.cfi_offset %r13, -32
	.cfi_offset %r14, -24
	.cfi_offset %r15, -16
	movabsq	$-5403634167711393303, %r15     # imm = 0xB5026F5AA96619E9
	callq	_ZNSt6chrono3_V212system_clock3nowEv@PLT
	movl	$800000000, %edi                # imm = 0x2FAF0800
	movq	%rax, %rbx
	callq	malloc@PLT
	movl	$800000000, %edi                # imm = 0x2FAF0800
	movq	%rax, %r14
	movq	%rax, data(%rip)
	callq	malloc@PLT
	movl	$400000000, %edi                # imm = 0x17D78400
	movq	%rax, dec(%rip)
	callq	malloc@PLT
	vpbroadcastq	.LCPI39_0(%rip), %zmm0  # zmm0 = [18446744071562067968,18446744071562067968,18446744071562067968,18446744071562067968,18446744071562067968,18446744071562067968,18446744071562067968,18446744071562067968]
	vpbroadcastq	.LCPI39_1(%rip), %zmm1  # zmm1 = [2147483646,2147483646,2147483646,2147483646,2147483646,2147483646,2147483646,2147483646]
	vpbroadcastq	.LCPI39_2(%rip), %zmm2  # zmm2 = [1,1,1,1,1,1,1,1]
	vpbroadcastq	.LCPI39_3(%rip), %zmm3  # zmm3 = [13043109905998158313,13043109905998158313,13043109905998158313,13043109905998158313,13043109905998158313,13043109905998158313,13043109905998158313,13043109905998158313]
	movq	gen+2496(%rip), %r9
	movq	$-2147483648, %rcx              # imm = 0x80000000
	leaq	gen(%rip), %rdx
	movabsq	$22906492245, %rsi              # imm = 0x555555555
	movabsq	$8202884508482404352, %rdi      # imm = 0x71D67FFFEDA60000
	movb	$63, %r8b
	movq	%rax, e10(%rip)
	xorl	%eax, %eax
	jmp	.LBB39_1
	.p2align	4, 0x90
.LBB39_3:                               #   in Loop: Header=BB39_1 Depth=1
	movq	%r9, %r10
	incq	%r9
	movq	%r9, gen+2496(%rip)
	movq	(%rdx,%r10,8), %r10
	movq	%r10, %r11
	shrq	$29, %r11
	andq	%rsi, %r11
	xorq	%r10, %r11
	movq	%r11, %r12
	shlq	$17, %r12
	andq	%rdi, %r12
	xorq	%r11, %r12
	movl	%r12d, %r10d
	andl	$134201207, %r10d               # imm = 0x7FFBF77
	shlq	$37, %r10
	xorq	%r12, %r10
	bzhiq	%r8, %r10, %r11
	movq	%r11, %r12
	shrq	$52, %r12
	cmpl	$2046, %r12d                    # imm = 0x7FE
	jbe	.LBB39_4
.LBB39_1:                               # =>This Inner Loop Header: Depth=1
	cmpq	$312, %r9                       # imm = 0x138
	jb	.LBB39_3
# %bb.2:                                #   in Loop: Header=BB39_1 Depth=1
	vmovdqu64	gen+8(%rip), %zmm4
	vmovdqu64	gen+72(%rip), %zmm5
	vmovdqu64	gen+136(%rip), %zmm6
	vmovdqu64	gen+200(%rip), %zmm7
	valignq	$7, gen(%rip){1to8}, %zmm4, %zmm8
	valignq	$7, %zmm4, %zmm5, %zmm9         # zmm9 = zmm4[7],zmm5[0,1,2,3,4,5,6]
	valignq	$7, %zmm5, %zmm6, %zmm10        # zmm10 = zmm5[7],zmm6[0,1,2,3,4,5,6]
	valignq	$7, %zmm6, %zmm7, %zmm11        # zmm11 = zmm6[7],zmm7[0,1,2,3,4,5,6]
	vpandq	%zmm1, %zmm4, %zmm12
	vpandq	%zmm1, %zmm5, %zmm13
	vpandq	%zmm1, %zmm6, %zmm14
	vpandq	%zmm1, %zmm7, %zmm15
	vptestmq	%zmm2, %zmm4, %k1
	vptestmq	%zmm2, %zmm5, %k2
	vptestmq	%zmm2, %zmm6, %k3
	vptestmq	%zmm2, %zmm7, %k4
	vpternlogq	$248, %zmm0, %zmm8, %zmm12
	vpsrlq	$1, %zmm12, %zmm8
	vpxorq	gen+1248(%rip), %zmm8, %zmm8
	vpternlogq	$248, %zmm0, %zmm9, %zmm13
	vpternlogq	$248, %zmm0, %zmm10, %zmm14
	vpternlogq	$248, %zmm0, %zmm11, %zmm15
	vpsrlq	$1, %zmm13, %zmm9
	vpsrlq	$1, %zmm14, %zmm10
	vpsrlq	$1, %zmm15, %zmm11
	vpxorq	gen+1312(%rip), %zmm9, %zmm9
	vpxorq	gen+1376(%rip), %zmm10, %zmm10
	vpxorq	gen+1440(%rip), %zmm11, %zmm11
	vpxorq	%zmm3, %zmm8, %zmm8 {%k1}
	vmovdqa64	%zmm8, gen(%rip)
	vpxorq	%zmm3, %zmm9, %zmm9 {%k2}
	vpxorq	%zmm3, %zmm10, %zmm10 {%k3}
	vpxorq	%zmm3, %zmm11, %zmm11 {%k4}
	vmovdqa64	%zmm9, gen+64(%rip)
	vmovdqa64	%zmm10, gen+128(%rip)
	vmovdqa64	%zmm11, gen+192(%rip)
	vmovdqu64	gen+264(%rip), %zmm4
	vmovdqu64	gen+328(%rip), %zmm5
	vmovdqu64	gen+392(%rip), %zmm6
	vmovdqu64	gen+456(%rip), %zmm8
	valignq	$7, %zmm7, %zmm4, %zmm7         # zmm7 = zmm7[7],zmm4[0,1,2,3,4,5,6]
	valignq	$7, %zmm4, %zmm5, %zmm9         # zmm9 = zmm4[7],zmm5[0,1,2,3,4,5,6]
	valignq	$7, %zmm5, %zmm6, %zmm10        # zmm10 = zmm5[7],zmm6[0,1,2,3,4,5,6]
	valignq	$7, %zmm6, %zmm8, %zmm11        # zmm11 = zmm6[7],zmm8[0,1,2,3,4,5,6]
	vpandq	%zmm1, %zmm4, %zmm12
	vpandq	%zmm1, %zmm5, %zmm13
	vpandq	%zmm1, %zmm6, %zmm14
	vpandq	%zmm1, %zmm8, %zmm15
	vptestmq	%zmm2, %zmm4, %k1
	vptestmq	%zmm2, %zmm5, %k2
	vptestmq	%zmm2, %zmm6, %k3
	vptestmq	%zmm2, %zmm8, %k4
	vpternlogq	$248, %zmm0, %zmm7, %zmm12
	vpternlogq	$248, %zmm0, %zmm9, %zmm13
	vpternlogq	$248, %zmm0, %zmm10, %zmm14
	vpternlogq	$248, %zmm0, %zmm11, %zmm15
	vpsrlq	$1, %zmm12, %zmm7
	vpsrlq	$1, %zmm13, %zmm9
	vpsrlq	$1, %zmm14, %zmm10
	vpsrlq	$1, %zmm15, %zmm11
	vpxorq	gen+1504(%rip), %zmm7, %zmm7
	vpxorq	gen+1568(%rip), %zmm9, %zmm9
	vpxorq	gen+1632(%rip), %zmm10, %zmm10
	vpxorq	gen+1696(%rip), %zmm11, %zmm11
	vpxorq	%zmm3, %zmm7, %zmm7 {%k1}
	vpxorq	%zmm3, %zmm9, %zmm9 {%k2}
	vpxorq	%zmm3, %zmm10, %zmm10 {%k3}
	vpxorq	%zmm3, %zmm11, %zmm11 {%k4}
	vmovdqa64	%zmm7, gen+256(%rip)
	vmovdqa64	%zmm9, gen+320(%rip)
	vmovdqa64	%zmm10, gen+384(%rip)
	vmovdqa64	%zmm11, gen+448(%rip)
	vmovdqu64	gen+520(%rip), %zmm4
	vmovdqu64	gen+584(%rip), %zmm5
	vmovdqu64	gen+648(%rip), %zmm6
	vmovdqu64	gen+712(%rip), %zmm7
	valignq	$7, %zmm8, %zmm4, %zmm8         # zmm8 = zmm8[7],zmm4[0,1,2,3,4,5,6]
	valignq	$7, %zmm4, %zmm5, %zmm9         # zmm9 = zmm4[7],zmm5[0,1,2,3,4,5,6]
	valignq	$7, %zmm5, %zmm6, %zmm10        # zmm10 = zmm5[7],zmm6[0,1,2,3,4,5,6]
	valignq	$7, %zmm6, %zmm7, %zmm11        # zmm11 = zmm6[7],zmm7[0,1,2,3,4,5,6]
	vpandq	%zmm1, %zmm4, %zmm12
	vpandq	%zmm1, %zmm5, %zmm13
	vpandq	%zmm1, %zmm6, %zmm14
	vpandq	%zmm1, %zmm7, %zmm15
	vptestmq	%zmm2, %zmm4, %k1
	vptestmq	%zmm2, %zmm5, %k2
	vptestmq	%zmm2, %zmm6, %k3
	vptestmq	%zmm2, %zmm7, %k4
	vpternlogq	$248, %zmm0, %zmm8, %zmm12
	vpternlogq	$248, %zmm0, %zmm9, %zmm13
	vpternlogq	$248, %zmm0, %zmm10, %zmm14
	vpternlogq	$248, %zmm0, %zmm11, %zmm15
	vpsrlq	$1, %zmm12, %zmm8
	vpsrlq	$1, %zmm13, %zmm9
	vpsrlq	$1, %zmm14, %zmm10
	vpsrlq	$1, %zmm15, %zmm11
	vpxorq	gen+1760(%rip), %zmm8, %zmm8
	vpxorq	gen+1824(%rip), %zmm9, %zmm9
	vpxorq	gen+1888(%rip), %zmm10, %zmm10
	vpxorq	gen+1952(%rip), %zmm11, %zmm11
	vpxorq	%zmm3, %zmm8, %zmm8 {%k1}
	vpxorq	%zmm3, %zmm9, %zmm9 {%k2}
	vpxorq	%zmm3, %zmm10, %zmm10 {%k3}
	vpxorq	%zmm3, %zmm11, %zmm11 {%k4}
	vmovdqa64	%zmm8, gen+512(%rip)
	vmovdqa64	%zmm9, gen+576(%rip)
	vmovdqa64	%zmm10, gen+640(%rip)
	vmovdqa64	%zmm11, gen+704(%rip)
	vmovdqu64	gen+776(%rip), %zmm4
	vmovdqu64	gen+840(%rip), %zmm5
	vmovdqu64	gen+904(%rip), %zmm6
	vmovdqu64	gen+968(%rip), %zmm8
	movq	gen+1024(%rip), %r9
	andq	%rcx, %r9
	valignq	$7, %zmm7, %zmm4, %zmm7         # zmm7 = zmm7[7],zmm4[0,1,2,3,4,5,6]
	valignq	$7, %zmm4, %zmm5, %zmm9         # zmm9 = zmm4[7],zmm5[0,1,2,3,4,5,6]
	valignq	$7, %zmm5, %zmm6, %zmm10        # zmm10 = zmm5[7],zmm6[0,1,2,3,4,5,6]
	valignq	$7, %zmm6, %zmm8, %zmm11        # zmm11 = zmm6[7],zmm8[0,1,2,3,4,5,6]
	vpandq	%zmm1, %zmm4, %zmm12
	vpandq	%zmm1, %zmm5, %zmm13
	vpandq	%zmm1, %zmm6, %zmm14
	vpandq	%zmm1, %zmm8, %zmm15
	vptestmq	%zmm2, %zmm4, %k1
	vptestmq	%zmm2, %zmm5, %k2
	vptestmq	%zmm2, %zmm6, %k3
	vptestmq	%zmm2, %zmm8, %k4
	vpternlogq	$248, %zmm0, %zmm7, %zmm12
	vpternlogq	$248, %zmm0, %zmm9, %zmm13
	vpternlogq	$248, %zmm0, %zmm10, %zmm14
	vpternlogq	$248, %zmm0, %zmm11, %zmm15
	vpsrlq	$1, %zmm12, %zmm7
	vpsrlq	$1, %zmm13, %zmm9
	vpsrlq	$1, %zmm14, %zmm10
	vpsrlq	$1, %zmm15, %zmm11
	vpxorq	gen+2016(%rip), %zmm7, %zmm7
	vpxorq	gen+2080(%rip), %zmm9, %zmm9
	vpxorq	gen+2144(%rip), %zmm10, %zmm10
	vpxorq	gen+2208(%rip), %zmm11, %zmm11
	vpxorq	%zmm3, %zmm7, %zmm7 {%k1}
	vpxorq	%zmm3, %zmm9, %zmm9 {%k2}
	vpxorq	%zmm3, %zmm10, %zmm10 {%k3}
	vpxorq	%zmm3, %zmm11, %zmm11 {%k4}
	vmovdqa64	%zmm7, gen+768(%rip)
	vmovdqa64	%zmm9, gen+832(%rip)
	vmovdqa64	%zmm10, gen+896(%rip)
	vmovdqa64	%zmm11, gen+960(%rip)
	movq	gen+1032(%rip), %r10
	movl	%r10d, %r11d
	andl	$2147483646, %r11d              # imm = 0x7FFFFFFE
	orq	%r9, %r11
	movl	%r10d, %r9d
	andl	$1, %r9d
	andq	$-2147483648, %r10              # imm = 0x80000000
	shrq	%r11
	xorq	gen+2272(%rip), %r11
	negq	%r9
	andq	%r15, %r9
	xorq	%r11, %r9
	movq	%r9, gen+1024(%rip)
	movq	gen+1040(%rip), %r9
	movl	%r9d, %r11d
	andl	$2147483646, %r11d              # imm = 0x7FFFFFFE
	orq	%r10, %r11
	movl	%r9d, %r10d
	andl	$1, %r10d
	andq	$-2147483648, %r9               # imm = 0x80000000
	shrq	%r11
	xorq	gen+2280(%rip), %r11
	negq	%r10
	andq	%r15, %r10
	xorq	%r11, %r10
	movq	%r10, gen+1032(%rip)
	movq	gen+1048(%rip), %r10
	movl	%r10d, %r11d
	andl	$2147483646, %r11d              # imm = 0x7FFFFFFE
	orq	%r9, %r11
	movl	%r10d, %r9d
	andl	$1, %r9d
	andq	$-2147483648, %r10              # imm = 0x80000000
	shrq	%r11
	xorq	gen+2288(%rip), %r11
	negq	%r9
	andq	%r15, %r9
	xorq	%r11, %r9
	movq	%r9, gen+1040(%rip)
	movq	gen+1056(%rip), %r9
	movl	%r9d, %r11d
	andl	$2147483646, %r11d              # imm = 0x7FFFFFFE
	orq	%r10, %r11
	movl	%r9d, %r10d
	andl	$1, %r10d
	andq	$-2147483648, %r9               # imm = 0x80000000
	shrq	%r11
	xorq	gen+2296(%rip), %r11
	negq	%r10
	andq	%r15, %r10
	xorq	%r11, %r10
	movq	%r10, gen+1048(%rip)
	movq	gen+1064(%rip), %r10
	movl	%r10d, %r11d
	andl	$2147483646, %r11d              # imm = 0x7FFFFFFE
	orq	%r9, %r11
	movl	%r10d, %r9d
	andl	$1, %r9d
	andq	$-2147483648, %r10              # imm = 0x80000000
	shrq	%r11
	xorq	gen+2304(%rip), %r11
	negq	%r9
	andq	%r15, %r9
	xorq	%r11, %r9
	movq	%r9, gen+1056(%rip)
	movq	gen+1072(%rip), %r9
	movl	%r9d, %r11d
	andl	$2147483646, %r11d              # imm = 0x7FFFFFFE
	orq	%r10, %r11
	movl	%r9d, %r10d
	andl	$1, %r10d
	andq	$-2147483648, %r9               # imm = 0x80000000
	shrq	%r11
	xorq	gen+2312(%rip), %r11
	negq	%r10
	andq	%r15, %r10
	xorq	%r11, %r10
	movq	%r10, gen+1064(%rip)
	movq	gen+1080(%rip), %r10
	movl	%r10d, %r11d
	andl	$2147483646, %r11d              # imm = 0x7FFFFFFE
	orq	%r9, %r11
	movl	%r10d, %r9d
	andl	$1, %r9d
	andq	$-2147483648, %r10              # imm = 0x80000000
	shrq	%r11
	xorq	gen+2320(%rip), %r11
	negq	%r9
	andq	%r15, %r9
	xorq	%r11, %r9
	movq	%r9, gen+1072(%rip)
	movq	gen+1088(%rip), %r9
	movl	%r9d, %r11d
	andl	$2147483646, %r11d              # imm = 0x7FFFFFFE
	orq	%r10, %r11
	movl	%r9d, %r10d
	andl	$1, %r10d
	andq	$-2147483648, %r9               # imm = 0x80000000
	shrq	%r11
	xorq	gen+2328(%rip), %r11
	negq	%r10
	andq	%r15, %r10
	xorq	%r11, %r10
	movq	%r10, gen+1080(%rip)
	movq	gen+1096(%rip), %r10
	movl	%r10d, %r11d
	andl	$2147483646, %r11d              # imm = 0x7FFFFFFE
	orq	%r9, %r11
	movl	%r10d, %r9d
	andl	$1, %r9d
	andq	$-2147483648, %r10              # imm = 0x80000000
	shrq	%r11
	xorq	gen+2336(%rip), %r11
	negq	%r9
	andq	%r15, %r9
	xorq	%r11, %r9
	movq	%r9, gen+1088(%rip)
	movq	gen+1104(%rip), %r9
	movl	%r9d, %r11d
	andl	$2147483646, %r11d              # imm = 0x7FFFFFFE
	orq	%r10, %r11
	movl	%r9d, %r10d
	andl	$1, %r10d
	andq	$-2147483648, %r9               # imm = 0x80000000
	shrq	%r11
	xorq	gen+2344(%rip), %r11
	negq	%r10
	andq	%r15, %r10
	xorq	%r11, %r10
	movq	%r10, gen+1096(%rip)
	movq	gen+1112(%rip), %r10
	movl	%r10d, %r11d
	andl	$2147483646, %r11d              # imm = 0x7FFFFFFE
	orq	%r9, %r11
	movl	%r10d, %r9d
	andl	$1, %r9d
	andq	$-2147483648, %r10              # imm = 0x80000000
	shrq	%r11
	xorq	gen+2352(%rip), %r11
	negq	%r9
	andq	%r15, %r9
	xorq	%r11, %r9
	movq	%r9, gen+1104(%rip)
	movq	gen+1120(%rip), %r9
	movl	%r9d, %r11d
	andl	$2147483646, %r11d              # imm = 0x7FFFFFFE
	orq	%r10, %r11
	movl	%r9d, %r10d
	andl	$1, %r10d
	andq	$-2147483648, %r9               # imm = 0x80000000
	shrq	%r11
	xorq	gen+2360(%rip), %r11
	negq	%r10
	andq	%r15, %r10
	xorq	%r11, %r10
	movq	%r10, gen+1112(%rip)
	movq	gen+1128(%rip), %r10
	movl	%r10d, %r11d
	andl	$2147483646, %r11d              # imm = 0x7FFFFFFE
	orq	%r9, %r11
	movl	%r10d, %r9d
	andl	$1, %r9d
	andq	$-2147483648, %r10              # imm = 0x80000000
	shrq	%r11
	xorq	gen+2368(%rip), %r11
	negq	%r9
	andq	%r15, %r9
	xorq	%r11, %r9
	movq	%r9, gen+1120(%rip)
	movq	gen+1136(%rip), %r9
	movl	%r9d, %r11d
	andl	$2147483646, %r11d              # imm = 0x7FFFFFFE
	orq	%r10, %r11
	movl	%r9d, %r10d
	andl	$1, %r10d
	andq	$-2147483648, %r9               # imm = 0x80000000
	shrq	%r11
	xorq	gen+2376(%rip), %r11
	negq	%r10
	andq	%r15, %r10
	xorq	%r11, %r10
	movq	%r10, gen+1128(%rip)
	movq	gen+1144(%rip), %r10
	movl	%r10d, %r11d
	andl	$2147483646, %r11d              # imm = 0x7FFFFFFE
	orq	%r9, %r11
	movl	%r10d, %r9d
	andl	$1, %r9d
	andq	$-2147483648, %r10              # imm = 0x80000000
	shrq	%r11
	xorq	gen+2384(%rip), %r11
	negq	%r9
	andq	%r15, %r9
	xorq	%r11, %r9
	movq	%r9, gen+1136(%rip)
	movq	gen+1152(%rip), %r9
	movl	%r9d, %r11d
	andl	$2147483646, %r11d              # imm = 0x7FFFFFFE
	orq	%r10, %r11
	movl	%r9d, %r10d
	andl	$1, %r10d
	andq	$-2147483648, %r9               # imm = 0x80000000
	shrq	%r11
	xorq	gen+2392(%rip), %r11
	negq	%r10
	andq	%r15, %r10
	xorq	%r11, %r10
	movq	%r10, gen+1144(%rip)
	movq	gen+1160(%rip), %r10
	movl	%r10d, %r11d
	andl	$2147483646, %r11d              # imm = 0x7FFFFFFE
	orq	%r9, %r11
	movl	%r10d, %r9d
	andl	$1, %r9d
	andq	$-2147483648, %r10              # imm = 0x80000000
	shrq	%r11
	xorq	gen+2400(%rip), %r11
	negq	%r9
	andq	%r15, %r9
	xorq	%r11, %r9
	movq	%r9, gen+1152(%rip)
	movq	gen+1168(%rip), %r9
	movl	%r9d, %r11d
	andl	$2147483646, %r11d              # imm = 0x7FFFFFFE
	orq	%r10, %r11
	movl	%r9d, %r10d
	andl	$1, %r10d
	andq	$-2147483648, %r9               # imm = 0x80000000
	shrq	%r11
	xorq	gen+2408(%rip), %r11
	negq	%r10
	andq	%r15, %r10
	xorq	%r11, %r10
	movq	%r10, gen+1160(%rip)
	movq	gen+1176(%rip), %r10
	movl	%r10d, %r11d
	andl	$2147483646, %r11d              # imm = 0x7FFFFFFE
	orq	%r9, %r11
	movl	%r10d, %r9d
	andl	$1, %r9d
	andq	$-2147483648, %r10              # imm = 0x80000000
	shrq	%r11
	xorq	gen+2416(%rip), %r11
	negq	%r9
	andq	%r15, %r9
	xorq	%r11, %r9
	movq	%r9, gen+1168(%rip)
	movq	gen+1184(%rip), %r9
	movl	%r9d, %r11d
	andl	$2147483646, %r11d              # imm = 0x7FFFFFFE
	orq	%r10, %r11
	movl	%r9d, %r10d
	andl	$1, %r10d
	andq	$-2147483648, %r9               # imm = 0x80000000
	shrq	%r11
	xorq	gen+2424(%rip), %r11
	negq	%r10
	andq	%r15, %r10
	xorq	%r11, %r10
	movq	%r10, gen+1176(%rip)
	movq	gen+1192(%rip), %r10
	movl	%r10d, %r11d
	andl	$2147483646, %r11d              # imm = 0x7FFFFFFE
	orq	%r9, %r11
	movl	%r10d, %r9d
	andl	$1, %r9d
	andq	$-2147483648, %r10              # imm = 0x80000000
	shrq	%r11
	xorq	gen+2432(%rip), %r11
	negq	%r9
	andq	%r15, %r9
	xorq	%r11, %r9
	movq	%r9, gen+1184(%rip)
	movq	gen+1200(%rip), %r9
	movl	%r9d, %r11d
	andl	$2147483646, %r11d              # imm = 0x7FFFFFFE
	orq	%r10, %r11
	movl	%r9d, %r10d
	andl	$1, %r10d
	andq	$-2147483648, %r9               # imm = 0x80000000
	shrq	%r11
	xorq	gen+2440(%rip), %r11
	negq	%r10
	andq	%r15, %r10
	xorq	%r11, %r10
	movq	%r10, gen+1192(%rip)
	movq	gen+1208(%rip), %r10
	movl	%r10d, %r11d
	andl	$2147483646, %r11d              # imm = 0x7FFFFFFE
	orq	%r9, %r11
	movl	%r10d, %r9d
	andl	$1, %r9d
	andq	$-2147483648, %r10              # imm = 0x80000000
	shrq	%r11
	xorq	gen+2448(%rip), %r11
	negq	%r9
	andq	%r15, %r9
	xorq	%r11, %r9
	movq	%r9, gen+1200(%rip)
	movq	gen+1216(%rip), %r9
	movl	%r9d, %r11d
	andl	$2147483646, %r11d              # imm = 0x7FFFFFFE
	orq	%r10, %r11
	movl	%r9d, %r10d
	andl	$1, %r10d
	andq	$-2147483648, %r9               # imm = 0x80000000
	shrq	%r11
	xorq	gen+2456(%rip), %r11
	negq	%r10
	andq	%r15, %r10
	xorq	%r11, %r10
	movq	%r10, gen+1208(%rip)
	movq	gen+1224(%rip), %r10
	movl	%r10d, %r11d
	andl	$2147483646, %r11d              # imm = 0x7FFFFFFE
	orq	%r9, %r11
	movl	%r10d, %r9d
	andl	$1, %r9d
	andq	$-2147483648, %r10              # imm = 0x80000000
	shrq	%r11
	xorq	gen+2464(%rip), %r11
	negq	%r9
	andq	%r15, %r9
	xorq	%r11, %r9
	movq	%r9, gen+1216(%rip)
	movq	gen+1232(%rip), %r9
	movl	%r9d, %r11d
	andl	$2147483646, %r11d              # imm = 0x7FFFFFFE
	orq	%r10, %r11
	movl	%r9d, %r10d
	andl	$1, %r10d
	andq	$-2147483648, %r9               # imm = 0x80000000
	shrq	%r11
	xorq	gen+2472(%rip), %r11
	negq	%r10
	andq	%r15, %r10
	xorq	%r11, %r10
	movq	%r10, gen+1224(%rip)
	movq	gen+1240(%rip), %r10
	movl	%r10d, %r11d
	andl	$2147483646, %r11d              # imm = 0x7FFFFFFE
	orq	%r9, %r11
	movl	%r10d, %r9d
	andl	$1, %r9d
	andq	$-2147483648, %r10              # imm = 0x80000000
	shrq	%r11
	xorq	gen+2480(%rip), %r11
	negq	%r9
	andq	%r15, %r9
	xorq	%r11, %r9
	movq	%r9, gen+1232(%rip)
	movq	gen+1248(%rip), %r9
	movl	%r9d, %r11d
	andl	$2147483646, %r11d              # imm = 0x7FFFFFFE
	andl	$1, %r9d
	orq	%r10, %r11
	negq	%r9
	shrq	%r11
	xorq	gen+2488(%rip), %r11
	andq	%r15, %r9
	xorq	%r11, %r9
	movq	%r9, gen+1240(%rip)
	vmovdqu64	gen+1256(%rip), %zmm4
	vmovdqu64	gen+1320(%rip), %zmm5
	vmovdqu64	gen+1384(%rip), %zmm6
	vmovdqu64	gen+1448(%rip), %zmm7
	valignq	$7, gen+1248(%rip){1to8}, %zmm4, %zmm8
	valignq	$7, %zmm4, %zmm5, %zmm9         # zmm9 = zmm4[7],zmm5[0,1,2,3,4,5,6]
	valignq	$7, %zmm5, %zmm6, %zmm10        # zmm10 = zmm5[7],zmm6[0,1,2,3,4,5,6]
	valignq	$7, %zmm6, %zmm7, %zmm11        # zmm11 = zmm6[7],zmm7[0,1,2,3,4,5,6]
	vpandq	%zmm1, %zmm4, %zmm12
	vpandq	%zmm1, %zmm5, %zmm13
	vpandq	%zmm1, %zmm6, %zmm14
	vpandq	%zmm1, %zmm7, %zmm15
	vptestmq	%zmm2, %zmm4, %k1
	vptestmq	%zmm2, %zmm5, %k2
	vptestmq	%zmm2, %zmm6, %k3
	vptestmq	%zmm2, %zmm7, %k4
	vpternlogq	$248, %zmm0, %zmm8, %zmm12
	vpsrlq	$1, %zmm12, %zmm8
	vpxorq	gen(%rip), %zmm8, %zmm8
	vpternlogq	$248, %zmm0, %zmm9, %zmm13
	vpternlogq	$248, %zmm0, %zmm10, %zmm14
	vpternlogq	$248, %zmm0, %zmm11, %zmm15
	vpsrlq	$1, %zmm13, %zmm9
	vpsrlq	$1, %zmm14, %zmm10
	vpsrlq	$1, %zmm15, %zmm11
	vpxorq	gen+64(%rip), %zmm9, %zmm9
	vpxorq	gen+128(%rip), %zmm10, %zmm10
	vpxorq	gen+192(%rip), %zmm11, %zmm11
	vpxorq	%zmm3, %zmm8, %zmm8 {%k1}
	vmovdqu64	%zmm8, gen+1248(%rip)
	vpxorq	%zmm3, %zmm9, %zmm9 {%k2}
	vpxorq	%zmm3, %zmm10, %zmm10 {%k3}
	vpxorq	%zmm3, %zmm11, %zmm11 {%k4}
	vmovdqu64	%zmm9, gen+1312(%rip)
	vmovdqu64	%zmm10, gen+1376(%rip)
	vmovdqu64	%zmm11, gen+1440(%rip)
	vmovdqu64	gen+1512(%rip), %zmm4
	vmovdqu64	gen+1576(%rip), %zmm5
	vmovdqu64	gen+1640(%rip), %zmm6
	vmovdqu64	gen+1704(%rip), %zmm8
	valignq	$7, %zmm7, %zmm4, %zmm7         # zmm7 = zmm7[7],zmm4[0,1,2,3,4,5,6]
	valignq	$7, %zmm4, %zmm5, %zmm9         # zmm9 = zmm4[7],zmm5[0,1,2,3,4,5,6]
	valignq	$7, %zmm5, %zmm6, %zmm10        # zmm10 = zmm5[7],zmm6[0,1,2,3,4,5,6]
	valignq	$7, %zmm6, %zmm8, %zmm11        # zmm11 = zmm6[7],zmm8[0,1,2,3,4,5,6]
	vpandq	%zmm1, %zmm4, %zmm12
	vpandq	%zmm1, %zmm5, %zmm13
	vpandq	%zmm1, %zmm6, %zmm14
	vpandq	%zmm1, %zmm8, %zmm15
	vptestmq	%zmm2, %zmm4, %k1
	vptestmq	%zmm2, %zmm5, %k2
	vptestmq	%zmm2, %zmm6, %k3
	vptestmq	%zmm2, %zmm8, %k4
	vpternlogq	$248, %zmm0, %zmm7, %zmm12
	vpternlogq	$248, %zmm0, %zmm9, %zmm13
	vpternlogq	$248, %zmm0, %zmm10, %zmm14
	vpternlogq	$248, %zmm0, %zmm11, %zmm15
	vpsrlq	$1, %zmm12, %zmm7
	vpsrlq	$1, %zmm13, %zmm9
	vpsrlq	$1, %zmm14, %zmm10
	vpsrlq	$1, %zmm15, %zmm11
	vpxorq	gen+256(%rip), %zmm7, %zmm7
	vpxorq	gen+320(%rip), %zmm9, %zmm9
	vpxorq	gen+384(%rip), %zmm10, %zmm10
	vpxorq	gen+448(%rip), %zmm11, %zmm11
	vpxorq	%zmm3, %zmm7, %zmm7 {%k1}
	vpxorq	%zmm3, %zmm9, %zmm9 {%k2}
	vpxorq	%zmm3, %zmm10, %zmm10 {%k3}
	vpxorq	%zmm3, %zmm11, %zmm11 {%k4}
	vmovdqu64	%zmm7, gen+1504(%rip)
	vmovdqu64	%zmm9, gen+1568(%rip)
	vmovdqu64	%zmm10, gen+1632(%rip)
	vmovdqu64	%zmm11, gen+1696(%rip)
	vmovdqu64	gen+1768(%rip), %zmm4
	vmovdqu64	gen+1832(%rip), %zmm5
	vmovdqu64	gen+1896(%rip), %zmm6
	vmovdqu64	gen+1960(%rip), %zmm7
	valignq	$7, %zmm8, %zmm4, %zmm8         # zmm8 = zmm8[7],zmm4[0,1,2,3,4,5,6]
	valignq	$7, %zmm4, %zmm5, %zmm9         # zmm9 = zmm4[7],zmm5[0,1,2,3,4,5,6]
	valignq	$7, %zmm5, %zmm6, %zmm10        # zmm10 = zmm5[7],zmm6[0,1,2,3,4,5,6]
	valignq	$7, %zmm6, %zmm7, %zmm11        # zmm11 = zmm6[7],zmm7[0,1,2,3,4,5,6]
	vpandq	%zmm1, %zmm4, %zmm12
	vpandq	%zmm1, %zmm5, %zmm13
	vpandq	%zmm1, %zmm6, %zmm14
	vpandq	%zmm1, %zmm7, %zmm15
	vptestmq	%zmm2, %zmm4, %k1
	vptestmq	%zmm2, %zmm5, %k2
	vptestmq	%zmm2, %zmm6, %k3
	vptestmq	%zmm2, %zmm7, %k4
	vpternlogq	$248, %zmm0, %zmm8, %zmm12
	vpternlogq	$248, %zmm0, %zmm9, %zmm13
	vpternlogq	$248, %zmm0, %zmm10, %zmm14
	vpternlogq	$248, %zmm0, %zmm11, %zmm15
	vpsrlq	$1, %zmm12, %zmm8
	vpsrlq	$1, %zmm13, %zmm9
	vpsrlq	$1, %zmm14, %zmm10
	vpsrlq	$1, %zmm15, %zmm11
	vpxorq	gen+512(%rip), %zmm8, %zmm8
	vpxorq	gen+576(%rip), %zmm9, %zmm9
	vpxorq	gen+640(%rip), %zmm10, %zmm10
	vpxorq	gen+704(%rip), %zmm11, %zmm11
	vpxorq	%zmm3, %zmm8, %zmm8 {%k1}
	vpxorq	%zmm3, %zmm9, %zmm9 {%k2}
	vpxorq	%zmm3, %zmm10, %zmm10 {%k3}
	vpxorq	%zmm3, %zmm11, %zmm11 {%k4}
	vmovdqu64	%zmm8, gen+1760(%rip)
	vmovdqu64	%zmm9, gen+1824(%rip)
	vmovdqu64	%zmm10, gen+1888(%rip)
	vmovdqu64	%zmm11, gen+1952(%rip)
	vmovdqu64	gen+2024(%rip), %zmm4
	vmovdqu64	gen+2088(%rip), %zmm5
	vmovdqu64	gen+2152(%rip), %zmm6
	vmovdqu64	gen+2216(%rip), %zmm8
	movq	gen+2272(%rip), %r9
	andq	%rcx, %r9
	valignq	$7, %zmm7, %zmm4, %zmm7         # zmm7 = zmm7[7],zmm4[0,1,2,3,4,5,6]
	valignq	$7, %zmm4, %zmm5, %zmm9         # zmm9 = zmm4[7],zmm5[0,1,2,3,4,5,6]
	valignq	$7, %zmm5, %zmm6, %zmm10        # zmm10 = zmm5[7],zmm6[0,1,2,3,4,5,6]
	valignq	$7, %zmm6, %zmm8, %zmm11        # zmm11 = zmm6[7],zmm8[0,1,2,3,4,5,6]
	vpandq	%zmm1, %zmm4, %zmm12
	vpandq	%zmm1, %zmm5, %zmm13
	vpandq	%zmm1, %zmm6, %zmm14
	vpandq	%zmm1, %zmm8, %zmm15
	vptestmq	%zmm2, %zmm4, %k1
	vptestmq	%zmm2, %zmm5, %k2
	vptestmq	%zmm2, %zmm6, %k3
	vptestmq	%zmm2, %zmm8, %k4
	vpternlogq	$248, %zmm0, %zmm7, %zmm12
	vpternlogq	$248, %zmm0, %zmm9, %zmm13
	vpternlogq	$248, %zmm0, %zmm10, %zmm14
	vpternlogq	$248, %zmm0, %zmm11, %zmm15
	vpsrlq	$1, %zmm12, %zmm7
	vpsrlq	$1, %zmm13, %zmm9
	vpsrlq	$1, %zmm14, %zmm10
	vpsrlq	$1, %zmm15, %zmm11
	vpxorq	gen+768(%rip), %zmm7, %zmm7
	vpxorq	gen+832(%rip), %zmm9, %zmm9
	vpxorq	gen+896(%rip), %zmm10, %zmm10
	vpxorq	gen+960(%rip), %zmm11, %zmm11
	vpxorq	%zmm3, %zmm7, %zmm7 {%k1}
	vpxorq	%zmm3, %zmm9, %zmm9 {%k2}
	vpxorq	%zmm3, %zmm10, %zmm10 {%k3}
	vpxorq	%zmm3, %zmm11, %zmm11 {%k4}
	vmovdqu64	%zmm7, gen+2016(%rip)
	vmovdqu64	%zmm9, gen+2080(%rip)
	vmovdqu64	%zmm10, gen+2144(%rip)
	vmovdqu64	%zmm11, gen+2208(%rip)
	movq	gen+2280(%rip), %r10
	movl	%r10d, %r11d
	andl	$2147483646, %r11d              # imm = 0x7FFFFFFE
	orq	%r9, %r11
	movl	%r10d, %r9d
	andl	$1, %r9d
	andq	$-2147483648, %r10              # imm = 0x80000000
	shrq	%r11
	xorq	gen+1024(%rip), %r11
	negq	%r9
	andq	%r15, %r9
	xorq	%r11, %r9
	movq	%r9, gen+2272(%rip)
	movq	gen+2288(%rip), %r9
	movl	%r9d, %r11d
	andl	$2147483646, %r11d              # imm = 0x7FFFFFFE
	orq	%r10, %r11
	movl	%r9d, %r10d
	andl	$1, %r10d
	andq	$-2147483648, %r9               # imm = 0x80000000
	shrq	%r11
	xorq	gen+1032(%rip), %r11
	negq	%r10
	andq	%r15, %r10
	xorq	%r11, %r10
	movq	%r10, gen+2280(%rip)
	movq	gen+2296(%rip), %r10
	movl	%r10d, %r11d
	andl	$2147483646, %r11d              # imm = 0x7FFFFFFE
	orq	%r9, %r11
	movl	%r10d, %r9d
	andl	$1, %r9d
	andq	$-2147483648, %r10              # imm = 0x80000000
	shrq	%r11
	xorq	gen+1040(%rip), %r11
	negq	%r9
	andq	%r15, %r9
	xorq	%r11, %r9
	movq	%r9, gen+2288(%rip)
	movq	gen+2304(%rip), %r9
	movl	%r9d, %r11d
	andl	$2147483646, %r11d              # imm = 0x7FFFFFFE
	orq	%r10, %r11
	movl	%r9d, %r10d
	andl	$1, %r10d
	andq	$-2147483648, %r9               # imm = 0x80000000
	shrq	%r11
	xorq	gen+1048(%rip), %r11
	negq	%r10
	andq	%r15, %r10
	xorq	%r11, %r10
	movq	%r10, gen+2296(%rip)
	movq	gen+2312(%rip), %r10
	movl	%r10d, %r11d
	andl	$2147483646, %r11d              # imm = 0x7FFFFFFE
	orq	%r9, %r11
	movl	%r10d, %r9d
	andl	$1, %r9d
	andq	$-2147483648, %r10              # imm = 0x80000000
	shrq	%r11
	xorq	gen+1056(%rip), %r11
	negq	%r9
	andq	%r15, %r9
	xorq	%r11, %r9
	movq	%r9, gen+2304(%rip)
	movq	gen+2320(%rip), %r9
	movl	%r9d, %r11d
	andl	$2147483646, %r11d              # imm = 0x7FFFFFFE
	orq	%r10, %r11
	movl	%r9d, %r10d
	andl	$1, %r10d
	andq	$-2147483648, %r9               # imm = 0x80000000
	shrq	%r11
	xorq	gen+1064(%rip), %r11
	negq	%r10
	andq	%r15, %r10
	xorq	%r11, %r10
	movq	%r10, gen+2312(%rip)
	movq	gen+2328(%rip), %r10
	movl	%r10d, %r11d
	andl	$2147483646, %r11d              # imm = 0x7FFFFFFE
	orq	%r9, %r11
	movl	%r10d, %r9d
	andl	$1, %r9d
	andq	$-2147483648, %r10              # imm = 0x80000000
	shrq	%r11
	xorq	gen+1072(%rip), %r11
	negq	%r9
	andq	%r15, %r9
	xorq	%r11, %r9
	movq	%r9, gen+2320(%rip)
	movq	gen+2336(%rip), %r9
	movl	%r9d, %r11d
	andl	$2147483646, %r11d              # imm = 0x7FFFFFFE
	orq	%r10, %r11
	movl	%r9d, %r10d
	andl	$1, %r10d
	andq	$-2147483648, %r9               # imm = 0x80000000
	shrq	%r11
	xorq	gen+1080(%rip), %r11
	negq	%r10
	andq	%r15, %r10
	xorq	%r11, %r10
	movq	%r10, gen+2328(%rip)
	movq	gen+2344(%rip), %r10
	movl	%r10d, %r11d
	andl	$2147483646, %r11d              # imm = 0x7FFFFFFE
	orq	%r9, %r11
	movl	%r10d, %r9d
	andl	$1, %r9d
	andq	$-2147483648, %r10              # imm = 0x80000000
	shrq	%r11
	xorq	gen+1088(%rip), %r11
	negq	%r9
	andq	%r15, %r9
	xorq	%r11, %r9
	movq	%r9, gen+2336(%rip)
	movq	gen+2352(%rip), %r9
	movl	%r9d, %r11d
	andl	$2147483646, %r11d              # imm = 0x7FFFFFFE
	orq	%r10, %r11
	movl	%r9d, %r10d
	andl	$1, %r10d
	andq	$-2147483648, %r9               # imm = 0x80000000
	shrq	%r11
	xorq	gen+1096(%rip), %r11
	negq	%r10
	andq	%r15, %r10
	xorq	%r11, %r10
	movq	%r10, gen+2344(%rip)
	movq	gen+2360(%rip), %r10
	movl	%r10d, %r11d
	andl	$2147483646, %r11d              # imm = 0x7FFFFFFE
	orq	%r9, %r11
	movl	%r10d, %r9d
	andl	$1, %r9d
	andq	$-2147483648, %r10              # imm = 0x80000000
	shrq	%r11
	xorq	gen+1104(%rip), %r11
	negq	%r9
	andq	%r15, %r9
	xorq	%r11, %r9
	movq	%r9, gen+2352(%rip)
	movq	gen+2368(%rip), %r9
	movl	%r9d, %r11d
	andl	$2147483646, %r11d              # imm = 0x7FFFFFFE
	orq	%r10, %r11
	movl	%r9d, %r10d
	andl	$1, %r10d
	andq	$-2147483648, %r9               # imm = 0x80000000
	shrq	%r11
	xorq	gen+1112(%rip), %r11
	negq	%r10
	andq	%r15, %r10
	xorq	%r11, %r10
	movq	%r10, gen+2360(%rip)
	movq	gen+2376(%rip), %r10
	movl	%r10d, %r11d
	andl	$2147483646, %r11d              # imm = 0x7FFFFFFE
	orq	%r9, %r11
	movl	%r10d, %r9d
	andl	$1, %r9d
	andq	$-2147483648, %r10              # imm = 0x80000000
	shrq	%r11
	xorq	gen+1120(%rip), %r11
	negq	%r9
	andq	%r15, %r9
	xorq	%r11, %r9
	movq	%r9, gen+2368(%rip)
	movq	gen+2384(%rip), %r9
	movl	%r9d, %r11d
	andl	$2147483646, %r11d              # imm = 0x7FFFFFFE
	orq	%r10, %r11
	movl	%r9d, %r10d
	andl	$1, %r10d
	andq	$-2147483648, %r9               # imm = 0x80000000
	shrq	%r11
	xorq	gen+1128(%rip), %r11
	negq	%r10
	andq	%r15, %r10
	xorq	%r11, %r10
	movq	%r10, gen+2376(%rip)
	movq	gen+2392(%rip), %r10
	movl	%r10d, %r11d
	andl	$2147483646, %r11d              # imm = 0x7FFFFFFE
	orq	%r9, %r11
	movl	%r10d, %r9d
	andl	$1, %r9d
	andq	$-2147483648, %r10              # imm = 0x80000000
	shrq	%r11
	xorq	gen+1136(%rip), %r11
	negq	%r9
	andq	%r15, %r9
	xorq	%r11, %r9
	movq	%r9, gen+2384(%rip)
	movq	gen+2400(%rip), %r9
	movl	%r9d, %r11d
	andl	$2147483646, %r11d              # imm = 0x7FFFFFFE
	orq	%r10, %r11
	movl	%r9d, %r10d
	andl	$1, %r10d
	andq	$-2147483648, %r9               # imm = 0x80000000
	shrq	%r11
	xorq	gen+1144(%rip), %r11
	negq	%r10
	andq	%r15, %r10
	xorq	%r11, %r10
	movq	%r10, gen+2392(%rip)
	movq	gen+2408(%rip), %r10
	movl	%r10d, %r11d
	andl	$2147483646, %r11d              # imm = 0x7FFFFFFE
	orq	%r9, %r11
	movl	%r10d, %r9d
	andl	$1, %r9d
	andq	$-2147483648, %r10              # imm = 0x80000000
	shrq	%r11
	xorq	gen+1152(%rip), %r11
	negq	%r9
	andq	%r15, %r9
	xorq	%r11, %r9
	movq	%r9, gen+2400(%rip)
	movq	gen+2416(%rip), %r9
	movl	%r9d, %r11d
	andl	$2147483646, %r11d              # imm = 0x7FFFFFFE
	orq	%r10, %r11
	movl	%r9d, %r10d
	andl	$1, %r10d
	andq	$-2147483648, %r9               # imm = 0x80000000
	shrq	%r11
	xorq	gen+1160(%rip), %r11
	negq	%r10
	andq	%r15, %r10
	xorq	%r11, %r10
	movq	%r10, gen+2408(%rip)
	movq	gen+2424(%rip), %r10
	movl	%r10d, %r11d
	andl	$2147483646, %r11d              # imm = 0x7FFFFFFE
	orq	%r9, %r11
	movl	%r10d, %r9d
	andl	$1, %r9d
	andq	$-2147483648, %r10              # imm = 0x80000000
	shrq	%r11
	xorq	gen+1168(%rip), %r11
	negq	%r9
	andq	%r15, %r9
	xorq	%r11, %r9
	movq	%r9, gen+2416(%rip)
	movq	gen+2432(%rip), %r9
	movl	%r9d, %r11d
	andl	$2147483646, %r11d              # imm = 0x7FFFFFFE
	orq	%r10, %r11
	movl	%r9d, %r10d
	andl	$1, %r10d
	andq	$-2147483648, %r9               # imm = 0x80000000
	shrq	%r11
	xorq	gen+1176(%rip), %r11
	negq	%r10
	andq	%r15, %r10
	xorq	%r11, %r10
	movq	%r10, gen+2424(%rip)
	movq	gen+2440(%rip), %r10
	movl	%r10d, %r11d
	andl	$2147483646, %r11d              # imm = 0x7FFFFFFE
	orq	%r9, %r11
	movl	%r10d, %r9d
	andl	$1, %r9d
	andq	$-2147483648, %r10              # imm = 0x80000000
	shrq	%r11
	xorq	gen+1184(%rip), %r11
	negq	%r9
	andq	%r15, %r9
	xorq	%r11, %r9
	movq	%r9, gen+2432(%rip)
	movq	gen+2448(%rip), %r9
	movl	%r9d, %r11d
	andl	$2147483646, %r11d              # imm = 0x7FFFFFFE
	orq	%r10, %r11
	movl	%r9d, %r10d
	andl	$1, %r10d
	andq	$-2147483648, %r9               # imm = 0x80000000
	shrq	%r11
	xorq	gen+1192(%rip), %r11
	negq	%r10
	andq	%r15, %r10
	xorq	%r11, %r10
	movq	%r10, gen+2440(%rip)
	movq	gen+2456(%rip), %r10
	movl	%r10d, %r11d
	andl	$2147483646, %r11d              # imm = 0x7FFFFFFE
	orq	%r9, %r11
	movl	%r10d, %r9d
	andl	$1, %r9d
	andq	$-2147483648, %r10              # imm = 0x80000000
	shrq	%r11
	xorq	gen+1200(%rip), %r11
	negq	%r9
	andq	%r15, %r9
	xorq	%r11, %r9
	movq	%r9, gen+2448(%rip)
	movq	gen+2464(%rip), %r9
	movl	%r9d, %r11d
	andl	$2147483646, %r11d              # imm = 0x7FFFFFFE
	orq	%r10, %r11
	movl	%r9d, %r10d
	andl	$1, %r10d
	andq	$-2147483648, %r9               # imm = 0x80000000
	shrq	%r11
	xorq	gen+1208(%rip), %r11
	negq	%r10
	andq	%r15, %r10
	xorq	%r11, %r10
	movq	%r10, gen+2456(%rip)
	movq	gen+2472(%rip), %r10
	movl	%r10d, %r11d
	andl	$2147483646, %r11d              # imm = 0x7FFFFFFE
	orq	%r9, %r11
	movl	%r10d, %r9d
	andl	$1, %r9d
	andq	$-2147483648, %r10              # imm = 0x80000000
	shrq	%r11
	xorq	gen+1216(%rip), %r11
	negq	%r9
	andq	%r15, %r9
	xorq	%r11, %r9
	movq	%r9, gen+2464(%rip)
	movq	gen+2480(%rip), %r9
	movl	%r9d, %r11d
	andl	$2147483646, %r11d              # imm = 0x7FFFFFFE
	orq	%r10, %r11
	movl	%r9d, %r10d
	andl	$1, %r10d
	andq	$-2147483648, %r9               # imm = 0x80000000
	shrq	%r11
	xorq	gen+1224(%rip), %r11
	negq	%r10
	andq	%r15, %r10
	xorq	%r11, %r10
	movq	%r10, gen+2472(%rip)
	movq	gen+2488(%rip), %r10
	movl	%r10d, %r11d
	andl	$2147483646, %r11d              # imm = 0x7FFFFFFE
	andl	$1, %r10d
	orq	%r9, %r11
	negq	%r10
	shrq	%r11
	xorq	gen+1232(%rip), %r11
	andq	%r15, %r10
	xorq	%r11, %r10
	movq	%r10, gen+2480(%rip)
	movq	gen+2488(%rip), %r9
	movq	gen(%rip), %r10
	movl	%r10d, %r11d
	andq	%rcx, %r9
	andl	$2147483646, %r11d              # imm = 0x7FFFFFFE
	andl	$1, %r10d
	orq	%r9, %r11
	negq	%r10
	xorl	%r9d, %r9d
	shrq	%r11
	xorq	gen+1240(%rip), %r11
	andq	%r15, %r10
	xorq	%r11, %r10
	movq	%r10, gen+2488(%rip)
	jmp	.LBB39_3
.LBB39_4:                               #   in Loop: Header=BB39_1 Depth=1
	shrq	$43, %r10
	xorq	%r11, %r10
	movq	%r10, (%r14,%rax,8)
	incq	%rax
	cmpq	$100000000, %rax                # imm = 0x5F5E100
	jne	.LBB39_1
# %bb.5:
	leaq	.Lstr(%rip), %rdi
	vzeroupper
	callq	puts@PLT
	movq	dec(%rip), %rdi
	movl	$800000000, %edx                # imm = 0x2FAF0800
	xorl	%esi, %esi
	callq	memset@PLT
	movq	e10(%rip), %rdi
	movl	$400000000, %edx                # imm = 0x17D78400
	xorl	%esi, %esi
	callq	memset@PLT
	movq	_Z13algorithm_setB5cxx11(%rip), %r13
	movq	_Z13algorithm_setB5cxx11+8(%rip), %r14
	cmpq	%r13, %r14
	je	.LBB39_11
# %bb.6:
	movq	%r13, %r15
	jmp	.LBB39_7
	.p2align	4, 0x90
.LBB39_9:                               #   in Loop: Header=BB39_7 Depth=1
	addq	$24, %r15
	cmpq	%r14, %r15
	je	.LBB39_10
.LBB39_7:                               # =>This Inner Loop Header: Depth=1
	movq	(%r15), %rdi
	addq	$16, %r15
	cmpq	%r15, %rdi
	je	.LBB39_9
# %bb.8:                                #   in Loop: Header=BB39_7 Depth=1
	callq	_ZdlPv@PLT
	jmp	.LBB39_9
.LBB39_10:
	movq	%r13, _Z13algorithm_setB5cxx11+8(%rip)
.LBB39_11:
	movabsq	$7161117455558402931, %r12      # imm = 0x6361666275686373
	leaq	24(%rsp), %r15
	leaq	64(%rsp), %r14
	leaq	_Z20schubfach_f64_to_decdPyPi(%rip), %rcx
	movq	%r12, 64(%rsp)
	movl	$875980899, 71(%rsp)            # imm = 0x34366863
	movb	$0, 75(%rsp)
	movq	%r15, 8(%rsp)
	movq	64(%rsp), %rax
	movl	72(%rsp), %edx
	movq	%r14, 48(%rsp)
	movq	$0, 56(%rsp)
	movb	$0, 64(%rsp)
	movq	%rax, 24(%rsp)
	movl	%edx, 32(%rsp)
	movq	$11, 16(%rsp)
	movq	%rcx, 40(%rsp)
	cmpq	_Z13algorithm_setB5cxx11+16(%rip), %r13
	je	.LBB39_16
# %bb.12:
	leaq	16(%r13), %rax
	movq	%rax, (%r13)
	movq	8(%rsp), %rcx
	cmpq	%r15, %rcx
	je	.LBB39_13
# %bb.14:
	movq	%rcx, (%r13)
	movq	24(%rsp), %rax
	movq	%rax, 16(%r13)
	jmp	.LBB39_15
.LBB39_16:
.Ltmp3:
	leaq	_Z13algorithm_setB5cxx11(%rip), %rdi
	leaq	8(%rsp), %rsi
	callq	_ZNSt6vectorISt4pairINSt7__cxx1112basic_stringIcSt11char_traitsIcESaIcEEEPFvdPyPiEESaISB_EE17_M_realloc_appendIJSB_EEEvDpOT_
.Ltmp4:
# %bb.17:
	movq	8(%rsp), %rdi
	cmpq	%r15, %rdi
	je	.LBB39_19
# %bb.18:
	callq	_ZdlPv@PLT
	jmp	.LBB39_19
.LBB39_13:
	movl	8(%r15), %ecx
	movl	%ecx, 8(%rax)
	movq	(%r15), %rcx
	movq	%rcx, (%rax)
.LBB39_15:
	movq	$11, 8(%r13)
	movq	%r15, 8(%rsp)
	movq	$0, 16(%rsp)
	movb	$0, 24(%rsp)
	movq	40(%rsp), %rax
	movq	%rax, 32(%r13)
	addq	$40, %r13
	movq	%r13, _Z13algorithm_setB5cxx11+8(%rip)
.LBB39_19:
	movq	48(%rsp), %rdi
	cmpq	%r14, %rdi
	je	.LBB39_21
# %bb.20:
	callq	_ZdlPv@PLT
.LBB39_21:
	movabsq	$7091612913541474403, %rax      # imm = 0x626A785F34366863
	movq	%r15, 8(%rsp)
	movq	%rax, 71(%rsp)
	movq	%r12, 64(%rsp)
	movb	$0, 79(%rsp)
	movq	64(%rsp), %rax
	movzbl	78(%rsp), %ecx
	movl	72(%rsp), %edi
	movzwl	76(%rsp), %esi
	movzbl	79(%rsp), %edx
	movq	%r14, 48(%rsp)
	movq	$0, 56(%rsp)
	movb	$0, 64(%rsp)
	movq	%rax, 24(%rsp)
	movq	_Z13algorithm_setB5cxx11+8(%rip), %rax
	movb	%cl, 38(%rsp)
	leaq	_Z24schubfach_xjb_f64_to_decdPyPi(%rip), %rcx
	movl	%edi, 32(%rsp)
	movw	%si, 36(%rsp)
	movb	%dl, 39(%rsp)
	movq	$15, 16(%rsp)
	movq	%rcx, 40(%rsp)
	cmpq	_Z13algorithm_setB5cxx11+16(%rip), %rax
	je	.LBB39_26
# %bb.22:
	leaq	16(%rax), %rcx
	movq	%rcx, (%rax)
	movq	8(%rsp), %rdx
	cmpq	%r15, %rdx
	je	.LBB39_23
# %bb.24:
	movq	%rdx, (%rax)
	movq	24(%rsp), %rcx
	movq	%rcx, 16(%rax)
	jmp	.LBB39_25
.LBB39_26:
.Ltmp6:
	leaq	_Z13algorithm_setB5cxx11(%rip), %rdi
	leaq	8(%rsp), %rsi
	callq	_ZNSt6vectorISt4pairINSt7__cxx1112basic_stringIcSt11char_traitsIcESaIcEEEPFvdPyPiEESaISB_EE17_M_realloc_appendIJSB_EEEvDpOT_
.Ltmp7:
# %bb.27:
	movq	8(%rsp), %rdi
	cmpq	%r15, %rdi
	je	.LBB39_29
# %bb.28:
	callq	_ZdlPv@PLT
	jmp	.LBB39_29
.LBB39_23:
	vmovdqu	(%r15), %xmm0
	vmovdqu	%xmm0, (%rcx)
.LBB39_25:
	movq	$15, 8(%rax)
	movq	%r15, 8(%rsp)
	movq	$0, 16(%rsp)
	movb	$0, 24(%rsp)
	movq	40(%rsp), %rcx
	movq	%rcx, 32(%rax)
	addq	$40, %rax
	movq	%rax, _Z13algorithm_setB5cxx11+8(%rip)
.LBB39_29:
	movq	48(%rsp), %rdi
	cmpq	%r14, %rdi
	je	.LBB39_31
# %bb.30:
	callq	_ZdlPv@PLT
.LBB39_31:
	movabsq	$8026098910682509924, %rax      # imm = 0x6F626E6F67617264
	movq	%r15, 8(%rsp)
	leaq	_Z20dragonbox_f64_to_decdPyPi(%rip), %rcx
	movw	$120, 72(%rsp)
	movw	$120, 32(%rsp)
	movq	%rax, 64(%rsp)
	movq	%rax, 24(%rsp)
	movq	_Z13algorithm_setB5cxx11+8(%rip), %rax
	movq	$9, 16(%rsp)
	movq	%r14, 48(%rsp)
	movq	$0, 56(%rsp)
	movb	$0, 64(%rsp)
	movq	%rcx, 40(%rsp)
	cmpq	_Z13algorithm_setB5cxx11+16(%rip), %rax
	je	.LBB39_36
# %bb.32:
	leaq	16(%rax), %rcx
	movq	%rcx, (%rax)
	movq	8(%rsp), %rdx
	cmpq	%r15, %rdx
	je	.LBB39_33
# %bb.34:
	movq	%rdx, (%rax)
	movq	24(%rsp), %rcx
	movq	%rcx, 16(%rax)
	jmp	.LBB39_35
.LBB39_36:
.Ltmp9:
	leaq	_Z13algorithm_setB5cxx11(%rip), %rdi
	leaq	8(%rsp), %rsi
	callq	_ZNSt6vectorISt4pairINSt7__cxx1112basic_stringIcSt11char_traitsIcESaIcEEEPFvdPyPiEESaISB_EE17_M_realloc_appendIJSB_EEEvDpOT_
.Ltmp10:
# %bb.37:
	movq	8(%rsp), %rdi
	cmpq	%r15, %rdi
	je	.LBB39_39
# %bb.38:
	callq	_ZdlPv@PLT
	jmp	.LBB39_39
.LBB39_33:
	movzwl	8(%r15), %edx
	movw	%dx, 8(%rcx)
	movq	(%r15), %rdx
	movq	%rdx, (%rcx)
.LBB39_35:
	movq	$9, 8(%rax)
	movq	%r15, 8(%rsp)
	movq	$0, 16(%rsp)
	movb	$0, 24(%rsp)
	movq	40(%rsp), %rcx
	movq	%rcx, 32(%rax)
	addq	$40, %rax
	movq	%rax, _Z13algorithm_setB5cxx11+8(%rip)
.LBB39_39:
	movq	48(%rsp), %rdi
	cmpq	%r14, %rdi
	je	.LBB39_41
# %bb.40:
	callq	_ZdlPv@PLT
.LBB39_41:
	leaq	_Z14ryu_f64_to_decdPyPi(%rip), %rax
	movq	%r15, 8(%rsp)
	movl	$913668466, 24(%rsp)            # imm = 0x36757972
	movw	$52, 28(%rsp)
	movq	$5, 16(%rsp)
	movl	$913668466, 64(%rsp)            # imm = 0x36757972
	movw	$52, 68(%rsp)
	movq	%r14, 48(%rsp)
	movq	$0, 56(%rsp)
	movb	$0, 64(%rsp)
	movq	%rax, 40(%rsp)
	movq	_Z13algorithm_setB5cxx11+8(%rip), %rax
	cmpq	_Z13algorithm_setB5cxx11+16(%rip), %rax
	je	.LBB39_46
# %bb.42:
	leaq	16(%rax), %rcx
	movq	%rcx, (%rax)
	movq	8(%rsp), %rdx
	cmpq	%r15, %rdx
	je	.LBB39_43
# %bb.44:
	movq	%rdx, (%rax)
	movq	24(%rsp), %rcx
	movq	%rcx, 16(%rax)
	jmp	.LBB39_45
.LBB39_46:
.Ltmp12:
	leaq	_Z13algorithm_setB5cxx11(%rip), %rdi
	leaq	8(%rsp), %rsi
	callq	_ZNSt6vectorISt4pairINSt7__cxx1112basic_stringIcSt11char_traitsIcESaIcEEEPFvdPyPiEESaISB_EE17_M_realloc_appendIJSB_EEEvDpOT_
.Ltmp13:
# %bb.47:
	movq	8(%rsp), %rdi
	cmpq	%r15, %rdi
	je	.LBB39_49
# %bb.48:
	callq	_ZdlPv@PLT
	jmp	.LBB39_49
.LBB39_43:
	movzwl	4(%r15), %edx
	movw	%dx, 4(%rcx)
	movl	(%r15), %edx
	movl	%edx, (%rcx)
.LBB39_45:
	movq	$5, 8(%rax)
	movq	%r15, 8(%rsp)
	movq	$0, 16(%rsp)
	movb	$0, 24(%rsp)
	movq	40(%rsp), %rcx
	movq	%rcx, 32(%rax)
	addq	$40, %rax
	movq	%rax, _Z13algorithm_setB5cxx11+8(%rip)
.LBB39_49:
	movq	48(%rsp), %rdi
	cmpq	%r14, %rdi
	je	.LBB39_51
# %bb.50:
	callq	_ZdlPv@PLT
.LBB39_51:
	leaq	_Z15teju_f64_to_decdPyPi(%rip), %rax
	movq	%r15, 8(%rsp)
	movl	$1969907060, 24(%rsp)           # imm = 0x756A6574
	movb	$0, 28(%rsp)
	movq	$4, 16(%rsp)
	movl	$1969907060, 64(%rsp)           # imm = 0x756A6574
	movb	$0, 68(%rsp)
	movq	%r14, 48(%rsp)
	movq	$0, 56(%rsp)
	movb	$0, 64(%rsp)
	movq	%rax, 40(%rsp)
	movq	_Z13algorithm_setB5cxx11+8(%rip), %rax
	cmpq	_Z13algorithm_setB5cxx11+16(%rip), %rax
	je	.LBB39_56
# %bb.52:
	leaq	16(%rax), %rcx
	movq	%rcx, (%rax)
	movq	8(%rsp), %rdx
	cmpq	%r15, %rdx
	je	.LBB39_53
# %bb.54:
	movq	%rdx, (%rax)
	movq	24(%rsp), %rcx
	movq	%rcx, 16(%rax)
	jmp	.LBB39_55
.LBB39_56:
.Ltmp15:
	leaq	_Z13algorithm_setB5cxx11(%rip), %rdi
	leaq	8(%rsp), %rsi
	callq	_ZNSt6vectorISt4pairINSt7__cxx1112basic_stringIcSt11char_traitsIcESaIcEEEPFvdPyPiEESaISB_EE17_M_realloc_appendIJSB_EEEvDpOT_
.Ltmp16:
# %bb.57:
	movq	8(%rsp), %rdi
	cmpq	%r15, %rdi
	je	.LBB39_59
# %bb.58:
	callq	_ZdlPv@PLT
	jmp	.LBB39_59
.LBB39_53:
	movzbl	4(%r15), %edx
	movb	%dl, 4(%rcx)
	movl	(%r15), %edx
	movl	%edx, (%rcx)
.LBB39_55:
	movq	$4, 8(%rax)
	movq	%r15, 8(%rsp)
	movq	$0, 16(%rsp)
	movb	$0, 24(%rsp)
	movq	40(%rsp), %rcx
	movq	%rcx, 32(%rax)
	addq	$40, %rax
	movq	%rax, _Z13algorithm_setB5cxx11+8(%rip)
.LBB39_59:
	movq	48(%rsp), %rdi
	cmpq	%r14, %rdi
	je	.LBB39_61
# %bb.60:
	callq	_ZdlPv@PLT
.LBB39_61:
	movl	$1953718630, 67(%rsp)           # imm = 0x74736166
	movl	$1717533049, 64(%rsp)           # imm = 0x665F7979
	movb	$0, 71(%rsp)
	movq	%r15, 8(%rsp)
	leaq	_Z18yy_fast_f64_to_decdPyPi(%rip), %rcx
	movq	64(%rsp), %rax
	movq	%r14, 48(%rsp)
	movq	$0, 56(%rsp)
	movb	$0, 64(%rsp)
	movq	%rax, 24(%rsp)
	movq	_Z13algorithm_setB5cxx11+8(%rip), %rax
	movq	$7, 16(%rsp)
	movq	%rcx, 40(%rsp)
	cmpq	_Z13algorithm_setB5cxx11+16(%rip), %rax
	je	.LBB39_63
# %bb.62:
	leaq	16(%rax), %rcx
	movq	%rcx, (%rax)
	movq	8(%rsp), %rdx
	cmpq	%r15, %rdx
	cmoveq	%rcx, %rdx
	movq	%rdx, (%rax)
	movq	24(%rsp), %rcx
	movq	%rcx, 16(%rax)
	movq	$7, 8(%rax)
	movq	%r15, 8(%rsp)
	movq	$0, 16(%rsp)
	movb	$0, 24(%rsp)
	movq	40(%rsp), %rcx
	movq	%rcx, 32(%rax)
	addq	$40, %rax
	movq	%rax, _Z13algorithm_setB5cxx11+8(%rip)
	jmp	.LBB39_66
.LBB39_63:
.Ltmp18:
	leaq	_Z13algorithm_setB5cxx11(%rip), %rdi
	leaq	8(%rsp), %rsi
	callq	_ZNSt6vectorISt4pairINSt7__cxx1112basic_stringIcSt11char_traitsIcESaIcEEEPFvdPyPiEESaISB_EE17_M_realloc_appendIJSB_EEEvDpOT_
.Ltmp19:
# %bb.64:
	movq	8(%rsp), %rdi
	cmpq	%r15, %rdi
	je	.LBB39_66
# %bb.65:
	callq	_ZdlPv@PLT
.LBB39_66:
	movq	48(%rsp), %rdi
	cmpq	%r14, %rdi
	je	.LBB39_68
# %bb.67:
	callq	_ZdlPv@PLT
.LBB39_68:
	movl	$1819047270, 67(%rsp)           # imm = 0x6C6C7566
	movl	$1717533049, 64(%rsp)           # imm = 0x665F7979
	movb	$0, 71(%rsp)
	movq	%r15, 8(%rsp)
	leaq	_Z18yy_full_f64_to_decdPyPi(%rip), %rcx
	movq	64(%rsp), %rax
	movq	%r14, 48(%rsp)
	movq	$0, 56(%rsp)
	movb	$0, 64(%rsp)
	movq	%rax, 24(%rsp)
	movq	_Z13algorithm_setB5cxx11+8(%rip), %rax
	movq	$7, 16(%rsp)
	movq	%rcx, 40(%rsp)
	cmpq	_Z13algorithm_setB5cxx11+16(%rip), %rax
	je	.LBB39_70
# %bb.69:
	leaq	16(%rax), %rcx
	movq	%rcx, (%rax)
	movq	8(%rsp), %rdx
	cmpq	%r15, %rdx
	cmoveq	%rcx, %rdx
	movq	%rdx, (%rax)
	movq	24(%rsp), %rcx
	movq	%rcx, 16(%rax)
	movq	$7, 8(%rax)
	movq	%r15, 8(%rsp)
	movq	$0, 16(%rsp)
	movb	$0, 24(%rsp)
	movq	40(%rsp), %rcx
	movq	%rcx, 32(%rax)
	addq	$40, %rax
	movq	%rax, _Z13algorithm_setB5cxx11+8(%rip)
	jmp	.LBB39_73
.LBB39_70:
.Ltmp21:
	leaq	_Z13algorithm_setB5cxx11(%rip), %rdi
	leaq	8(%rsp), %rsi
	callq	_ZNSt6vectorISt4pairINSt7__cxx1112basic_stringIcSt11char_traitsIcESaIcEEEPFvdPyPiEESaISB_EE17_M_realloc_appendIJSB_EEEvDpOT_
.Ltmp22:
# %bb.71:
	movq	8(%rsp), %rdi
	cmpq	%r15, %rdi
	je	.LBB39_73
# %bb.72:
	callq	_ZdlPv@PLT
.LBB39_73:
	movq	48(%rsp), %rdi
	cmpq	%r14, %rdi
	je	.LBB39_75
# %bb.74:
	callq	_ZdlPv@PLT
.LBB39_75:
	leaq	_ZL16xjb64_f64_to_decdPyPi(%rip), %rax
	movq	%r15, 8(%rsp)
	movl	$912419448, 24(%rsp)            # imm = 0x36626A78
	movw	$52, 28(%rsp)
	movq	$5, 16(%rsp)
	movl	$912419448, 64(%rsp)            # imm = 0x36626A78
	movw	$52, 68(%rsp)
	movq	%r14, 48(%rsp)
	movq	$0, 56(%rsp)
	movb	$0, 64(%rsp)
	movq	%rax, 40(%rsp)
	movq	_Z13algorithm_setB5cxx11+8(%rip), %rax
	cmpq	_Z13algorithm_setB5cxx11+16(%rip), %rax
	je	.LBB39_80
# %bb.76:
	leaq	16(%rax), %rcx
	movq	%rcx, (%rax)
	movq	8(%rsp), %rdx
	cmpq	%r15, %rdx
	je	.LBB39_77
# %bb.78:
	movq	%rdx, (%rax)
	movq	24(%rsp), %rcx
	movq	%rcx, 16(%rax)
	jmp	.LBB39_79
.LBB39_80:
.Ltmp24:
	leaq	_Z13algorithm_setB5cxx11(%rip), %rdi
	leaq	8(%rsp), %rsi
	callq	_ZNSt6vectorISt4pairINSt7__cxx1112basic_stringIcSt11char_traitsIcESaIcEEEPFvdPyPiEESaISB_EE17_M_realloc_appendIJSB_EEEvDpOT_
.Ltmp25:
# %bb.81:
	movq	8(%rsp), %rdi
	cmpq	%r15, %rdi
	je	.LBB39_83
# %bb.82:
	callq	_ZdlPv@PLT
	jmp	.LBB39_83
.LBB39_77:
	movzwl	4(%r15), %edx
	movw	%dx, 4(%rcx)
	movl	(%r15), %edx
	movl	%edx, (%rcx)
.LBB39_79:
	movq	$5, 8(%rax)
	movq	%r15, 8(%rsp)
	movq	$0, 16(%rsp)
	movb	$0, 24(%rsp)
	movq	40(%rsp), %rcx
	movq	%rcx, 32(%rax)
	addq	$40, %rax
	movq	%rax, _Z13algorithm_setB5cxx11+8(%rip)
.LBB39_83:
	movq	48(%rsp), %rdi
	cmpq	%r14, %rdi
	je	.LBB39_85
# %bb.84:
	callq	_ZdlPv@PLT
.LBB39_85:
	callq	_ZNSt6chrono3_V212system_clock3nowEv@PLT
	subq	%rbx, %rax
	leaq	.L.str.12(%rip), %rdi
	vcvtusi2sd	%rax, %xmm0, %xmm0
	vdivsd	.LCPI39_4(%rip), %xmm0, %xmm0
	movb	$1, %al
	callq	printf@PLT
	addq	$80, %rsp
	.cfi_def_cfa_offset 48
	popq	%rbx
	.cfi_def_cfa_offset 40
	popq	%r12
	.cfi_def_cfa_offset 32
	popq	%r13
	.cfi_def_cfa_offset 24
	popq	%r14
	.cfi_def_cfa_offset 16
	popq	%r15
	.cfi_def_cfa_offset 8
	retq
.LBB39_93:
	.cfi_def_cfa_offset 128
.Ltmp26:
	jmp	.LBB39_94
.LBB39_92:
.Ltmp23:
	jmp	.LBB39_94
.LBB39_91:
.Ltmp20:
	jmp	.LBB39_94
.LBB39_90:
.Ltmp17:
	jmp	.LBB39_94
.LBB39_89:
.Ltmp14:
	jmp	.LBB39_94
.LBB39_88:
.Ltmp11:
	jmp	.LBB39_94
.LBB39_87:
.Ltmp8:
	jmp	.LBB39_94
.LBB39_86:
.Ltmp5:
.LBB39_94:
	movq	8(%rsp), %rdi
	movq	%rax, %rbx
	cmpq	%r15, %rdi
	jne	.LBB39_95
# %bb.96:
	movq	48(%rsp), %rdi
	cmpq	%r14, %rdi
	jne	.LBB39_97
.LBB39_98:
	movq	%rbx, %rdi
	callq	_Unwind_Resume@PLT
.LBB39_95:
	callq	_ZdlPv@PLT
	movq	48(%rsp), %rdi
	cmpq	%r14, %rdi
	je	.LBB39_98
.LBB39_97:
	callq	_ZdlPv@PLT
	movq	%rbx, %rdi
	callq	_Unwind_Resume@PLT
.Lfunc_end39:
	.size	_Z11init_doublev, .Lfunc_end39-_Z11init_doublev
	.cfi_endproc
	.section	.gcc_except_table,"a",@progbits
	.p2align	2, 0x0
GCC_except_table39:
.Lexception1:
	.byte	255                             # @LPStart Encoding = omit
	.byte	255                             # @TType Encoding = omit
	.byte	1                               # Call site Encoding = uleb128
	.uleb128 .Lcst_end1-.Lcst_begin1
.Lcst_begin1:
	.uleb128 .Lfunc_begin1-.Lfunc_begin1    # >> Call Site 1 <<
	.uleb128 .Ltmp3-.Lfunc_begin1           #   Call between .Lfunc_begin1 and .Ltmp3
	.byte	0                               #     has no landing pad
	.byte	0                               #   On action: cleanup
	.uleb128 .Ltmp3-.Lfunc_begin1           # >> Call Site 2 <<
	.uleb128 .Ltmp4-.Ltmp3                  #   Call between .Ltmp3 and .Ltmp4
	.uleb128 .Ltmp5-.Lfunc_begin1           #     jumps to .Ltmp5
	.byte	0                               #   On action: cleanup
	.uleb128 .Ltmp6-.Lfunc_begin1           # >> Call Site 3 <<
	.uleb128 .Ltmp7-.Ltmp6                  #   Call between .Ltmp6 and .Ltmp7
	.uleb128 .Ltmp8-.Lfunc_begin1           #     jumps to .Ltmp8
	.byte	0                               #   On action: cleanup
	.uleb128 .Ltmp9-.Lfunc_begin1           # >> Call Site 4 <<
	.uleb128 .Ltmp10-.Ltmp9                 #   Call between .Ltmp9 and .Ltmp10
	.uleb128 .Ltmp11-.Lfunc_begin1          #     jumps to .Ltmp11
	.byte	0                               #   On action: cleanup
	.uleb128 .Ltmp12-.Lfunc_begin1          # >> Call Site 5 <<
	.uleb128 .Ltmp13-.Ltmp12                #   Call between .Ltmp12 and .Ltmp13
	.uleb128 .Ltmp14-.Lfunc_begin1          #     jumps to .Ltmp14
	.byte	0                               #   On action: cleanup
	.uleb128 .Ltmp15-.Lfunc_begin1          # >> Call Site 6 <<
	.uleb128 .Ltmp16-.Ltmp15                #   Call between .Ltmp15 and .Ltmp16
	.uleb128 .Ltmp17-.Lfunc_begin1          #     jumps to .Ltmp17
	.byte	0                               #   On action: cleanup
	.uleb128 .Ltmp18-.Lfunc_begin1          # >> Call Site 7 <<
	.uleb128 .Ltmp19-.Ltmp18                #   Call between .Ltmp18 and .Ltmp19
	.uleb128 .Ltmp20-.Lfunc_begin1          #     jumps to .Ltmp20
	.byte	0                               #   On action: cleanup
	.uleb128 .Ltmp21-.Lfunc_begin1          # >> Call Site 8 <<
	.uleb128 .Ltmp22-.Ltmp21                #   Call between .Ltmp21 and .Ltmp22
	.uleb128 .Ltmp23-.Lfunc_begin1          #     jumps to .Ltmp23
	.byte	0                               #   On action: cleanup
	.uleb128 .Ltmp24-.Lfunc_begin1          # >> Call Site 9 <<
	.uleb128 .Ltmp25-.Ltmp24                #   Call between .Ltmp24 and .Ltmp25
	.uleb128 .Ltmp26-.Lfunc_begin1          #     jumps to .Ltmp26
	.byte	0                               #   On action: cleanup
	.uleb128 .Ltmp25-.Lfunc_begin1          # >> Call Site 10 <<
	.uleb128 .Lfunc_end39-.Ltmp25           #   Call between .Ltmp25 and .Lfunc_end39
	.byte	0                               #     has no landing pad
	.byte	0                               #   On action: cleanup
.Lcst_end1:
	.p2align	2, 0x0
                                        # -- End function
	.text
	.p2align	4, 0x90                         # -- Begin function _ZL16xjb64_f64_to_decdPyPi
	.type	_ZL16xjb64_f64_to_decdPyPi,@function
_ZL16xjb64_f64_to_decdPyPi:             # @_ZL16xjb64_f64_to_decdPyPi
	.cfi_startproc
# %bb.0:
	vmovq	%xmm0, %rax
	movb	$52, %cl
	bzhiq	%rcx, %rax, %r8
	movl	$2868, %ecx                     # imm = 0xB34
	bextrq	%rcx, %rax, %rcx
	je	.LBB40_1
# %bb.2:
	movabsq	$4503599627370495, %rax         # imm = 0xFFFFFFFFFFFFF
	addl	$-1075, %ecx                    # imm = 0xFBCD
	leaq	1(%r8,%rax), %rdx
	imull	$315653, %ecx, %eax             # imm = 0x4D105
	testq	%r8, %r8
	je	.LBB40_4
.LBB40_5:
	pushq	%r15
	.cfi_def_cfa_offset 16
	pushq	%r14
	.cfi_def_cfa_offset 24
	pushq	%rbx
	.cfi_def_cfa_offset 32
	.cfi_offset %rbx, -32
	.cfi_offset %r14, -24
	.cfi_offset %r15, -16
	sarl	$20, %eax
	leaq	_ZZL16xjb64_f64_to_decdPyPiE1g(%rip), %r14
	movl	%eax, %r9d
	notl	%r9d
	imull	$217707, %r9d, %r10d            # imm = 0x3526B
	addl	%r9d, %r9d
	movslq	%r9d, %r9
	movq	4688(%r14,%r9,8), %rbx
	shrl	$16, %r10d
	addl	%ecx, %r10d
	movl	%edx, %ecx
	notl	%ecx
	leal	7(%r10), %r11d
	andl	$1, %ecx
	shlxq	%r11, %rdx, %rdx
	mulxq	%rbx, %r15, %r11
	mulxq	4696(%r14,%r9,8), %rdx, %rdx
	addq	%r15, %rdx
	movl	$10, %r15d
	adcq	$0, %r11
	movq	%rdx, %r9
	mulxq	%r15, %rdx, %rdx
	shrq	$6, %r9
	negb	%r10b
	xorl	%r15d, %r15d
	movq	%r11, %r14
	shlq	$58, %r14
	shrxq	%r10, %rbx, %r10
	orq	%r14, %r9
	leaq	(%r11,%r11,4), %r14
	shrq	$6, %r11
	addq	%r11, %r11
	leaq	(%rdx,%r14,2), %rdx
	movabsq	$4611686018427387904, %r14      # imm = 0x4000000000000000
	leaq	(%r11,%r11,4), %r11
	cmpq	%r14, %r9
	sete	%r15b
	subq	%r15, %rdx
	addq	$32, %rdx
	shrq	$6, %rdx
	testq	%r8, %r8
	je	.LBB40_7
# %bb.6:
	addq	%r10, %rcx
	cmpq	%r9, %rcx
	cmovaq	%r11, %rdx
.LBB40_10:
	addq	$10, %r11
	addq	%rcx, %r9
	cmovaeq	%rdx, %r11
	movq	%r11, (%rdi)
	movl	%eax, (%rsi)
	popq	%rbx
	.cfi_def_cfa_offset 24
	popq	%r14
	.cfi_def_cfa_offset 16
	popq	%r15
	.cfi_def_cfa_offset 8
	retq
.LBB40_1:
	.cfi_restore %rbx
	.cfi_restore %r14
	.cfi_restore %r15
	movl	$-1074, %ecx                    # imm = 0xFBCE
	movq	%r8, %rdx
	imull	$315653, %ecx, %eax             # imm = 0x4D105
	testq	%r8, %r8
	jne	.LBB40_5
.LBB40_4:
	addl	$-131237, %eax                  # imm = 0xFFFDFF5B
	jmp	.LBB40_5
.LBB40_7:
	.cfi_def_cfa_offset 32
	.cfi_offset %rbx, -32
	.cfi_offset %r14, -24
	.cfi_offset %r15, -16
	movq	%r9, %r8
	shrq	$4, %r8
	movq	%r10, %r14
	shrq	$4, %r14
	movq	%r8, %rbx
	shlq	$5, %rbx
	leaq	(%r14,%r14,4), %r14
	leaq	(%rbx,%rbx,4), %rbx
	shrq	$4, %rbx
	cmpq	%r14, %rbx
	jbe	.LBB40_9
# %bb.8:
	addq	%r8, %r8
	leaq	(%r8,%r8,4), %rdx
	shrq	$60, %rdx
	leaq	1(%rdx,%r11), %rdx
.LBB40_9:
	movq	%r10, %r8
	shrq	%r8
	cmpq	%r9, %r8
	cmovaq	%r11, %rdx
	addq	%r10, %rcx
	jmp	.LBB40_10
.Lfunc_end40:
	.size	_ZL16xjb64_f64_to_decdPyPi, .Lfunc_end40-_ZL16xjb64_f64_to_decdPyPi
	.cfi_endproc
                                        # -- End function
	.section	.rodata.cst8,"aM",@progbits,8
	.p2align	3, 0x0                          # -- Begin function _Z10init_floatv
.LCPI41_0:
	.quad	-2147483648                     # 0xffffffff80000000
.LCPI41_1:
	.quad	2147483646                      # 0x7ffffffe
.LCPI41_2:
	.quad	1                               # 0x1
.LCPI41_3:
	.quad	-5403634167711393303            # 0xb5026f5aa96619e9
.LCPI41_4:
	.quad	0x41cdcd6500000000              # double 1.0E+9
	.text
	.globl	_Z10init_floatv
	.p2align	4, 0x90
	.type	_Z10init_floatv,@function
_Z10init_floatv:                        # @_Z10init_floatv
.Lfunc_begin2:
	.cfi_startproc
	.cfi_personality 155, DW.ref.__gxx_personality_v0
	.cfi_lsda 27, .Lexception2
# %bb.0:
	pushq	%r15
	.cfi_def_cfa_offset 16
	pushq	%r14
	.cfi_def_cfa_offset 24
	pushq	%rbx
	.cfi_def_cfa_offset 32
	subq	$80, %rsp
	.cfi_def_cfa_offset 112
	.cfi_offset %rbx, -32
	.cfi_offset %r14, -24
	.cfi_offset %r15, -16
	movabsq	$-5403634167711393303, %r15     # imm = 0xB5026F5AA96619E9
	callq	_ZNSt6chrono3_V212system_clock3nowEv@PLT
	movl	$400000000, %edi                # imm = 0x17D78400
	movq	%rax, %rbx
	callq	malloc@PLT
	movl	$400000000, %edi                # imm = 0x17D78400
	movq	%rax, %r14
	movq	%rax, data_float(%rip)
	callq	malloc@PLT
	movl	$400000000, %edi                # imm = 0x17D78400
	movq	%rax, dec_float(%rip)
	callq	malloc@PLT
	vpbroadcastq	.LCPI41_0(%rip), %zmm0  # zmm0 = [18446744071562067968,18446744071562067968,18446744071562067968,18446744071562067968,18446744071562067968,18446744071562067968,18446744071562067968,18446744071562067968]
	vpbroadcastq	.LCPI41_1(%rip), %zmm1  # zmm1 = [2147483646,2147483646,2147483646,2147483646,2147483646,2147483646,2147483646,2147483646]
	vpbroadcastq	.LCPI41_2(%rip), %zmm2  # zmm2 = [1,1,1,1,1,1,1,1]
	vpbroadcastq	.LCPI41_3(%rip), %zmm3  # zmm3 = [13043109905998158313,13043109905998158313,13043109905998158313,13043109905998158313,13043109905998158313,13043109905998158313,13043109905998158313,13043109905998158313]
	movq	gen+2496(%rip), %r8
	movq	$-2147483648, %rcx              # imm = 0x80000000
	leaq	gen(%rip), %rdx
	movabsq	$22906492245, %rsi              # imm = 0x555555555
	movabsq	$8202884508482404352, %rdi      # imm = 0x71D67FFFEDA60000
	movq	%rax, e10_float(%rip)
	xorl	%eax, %eax
	jmp	.LBB41_1
	.p2align	4, 0x90
.LBB41_3:                               #   in Loop: Header=BB41_1 Depth=1
	movq	%r8, %r9
	incq	%r8
	movq	%r8, gen+2496(%rip)
	movq	(%rdx,%r9,8), %r9
	movq	%r9, %r10
	shrq	$29, %r10
	andq	%rsi, %r10
	xorq	%r9, %r10
	movq	%r10, %r11
	shlq	$17, %r11
	andq	%rdi, %r11
	xorq	%r10, %r11
	movl	%r11d, %r9d
	andl	$134201152, %r9d                # imm = 0x7FFBF40
	shlq	$37, %r9
	xorq	%r11, %r9
	shrq	$43, %r9
	xorl	%r11d, %r9d
	andl	$2147483647, %r9d               # imm = 0x7FFFFFFF
	leal	-2139095040(%r9), %r10d
	cmpl	$-2139095039, %r10d             # imm = 0x80800001
	jae	.LBB41_4
.LBB41_1:                               # =>This Inner Loop Header: Depth=1
	cmpq	$312, %r8                       # imm = 0x138
	jb	.LBB41_3
# %bb.2:                                #   in Loop: Header=BB41_1 Depth=1
	vmovdqu64	gen+8(%rip), %zmm4
	vmovdqu64	gen+72(%rip), %zmm5
	vmovdqu64	gen+136(%rip), %zmm6
	vmovdqu64	gen+200(%rip), %zmm7
	valignq	$7, gen(%rip){1to8}, %zmm4, %zmm8
	valignq	$7, %zmm4, %zmm5, %zmm9         # zmm9 = zmm4[7],zmm5[0,1,2,3,4,5,6]
	valignq	$7, %zmm5, %zmm6, %zmm10        # zmm10 = zmm5[7],zmm6[0,1,2,3,4,5,6]
	valignq	$7, %zmm6, %zmm7, %zmm11        # zmm11 = zmm6[7],zmm7[0,1,2,3,4,5,6]
	vpandq	%zmm1, %zmm4, %zmm12
	vpandq	%zmm1, %zmm5, %zmm13
	vpandq	%zmm1, %zmm6, %zmm14
	vpandq	%zmm1, %zmm7, %zmm15
	vptestmq	%zmm2, %zmm4, %k1
	vptestmq	%zmm2, %zmm5, %k2
	vptestmq	%zmm2, %zmm6, %k3
	vptestmq	%zmm2, %zmm7, %k4
	vpternlogq	$248, %zmm0, %zmm8, %zmm12
	vpsrlq	$1, %zmm12, %zmm8
	vpxorq	gen+1248(%rip), %zmm8, %zmm8
	vpternlogq	$248, %zmm0, %zmm9, %zmm13
	vpternlogq	$248, %zmm0, %zmm10, %zmm14
	vpternlogq	$248, %zmm0, %zmm11, %zmm15
	vpsrlq	$1, %zmm13, %zmm9
	vpsrlq	$1, %zmm14, %zmm10
	vpsrlq	$1, %zmm15, %zmm11
	vpxorq	gen+1312(%rip), %zmm9, %zmm9
	vpxorq	gen+1376(%rip), %zmm10, %zmm10
	vpxorq	gen+1440(%rip), %zmm11, %zmm11
	vpxorq	%zmm3, %zmm8, %zmm8 {%k1}
	vmovdqa64	%zmm8, gen(%rip)
	vpxorq	%zmm3, %zmm9, %zmm9 {%k2}
	vpxorq	%zmm3, %zmm10, %zmm10 {%k3}
	vpxorq	%zmm3, %zmm11, %zmm11 {%k4}
	vmovdqa64	%zmm9, gen+64(%rip)
	vmovdqa64	%zmm10, gen+128(%rip)
	vmovdqa64	%zmm11, gen+192(%rip)
	vmovdqu64	gen+264(%rip), %zmm4
	vmovdqu64	gen+328(%rip), %zmm5
	vmovdqu64	gen+392(%rip), %zmm6
	vmovdqu64	gen+456(%rip), %zmm8
	valignq	$7, %zmm7, %zmm4, %zmm7         # zmm7 = zmm7[7],zmm4[0,1,2,3,4,5,6]
	valignq	$7, %zmm4, %zmm5, %zmm9         # zmm9 = zmm4[7],zmm5[0,1,2,3,4,5,6]
	valignq	$7, %zmm5, %zmm6, %zmm10        # zmm10 = zmm5[7],zmm6[0,1,2,3,4,5,6]
	valignq	$7, %zmm6, %zmm8, %zmm11        # zmm11 = zmm6[7],zmm8[0,1,2,3,4,5,6]
	vpandq	%zmm1, %zmm4, %zmm12
	vpandq	%zmm1, %zmm5, %zmm13
	vpandq	%zmm1, %zmm6, %zmm14
	vpandq	%zmm1, %zmm8, %zmm15
	vptestmq	%zmm2, %zmm4, %k1
	vptestmq	%zmm2, %zmm5, %k2
	vptestmq	%zmm2, %zmm6, %k3
	vptestmq	%zmm2, %zmm8, %k4
	vpternlogq	$248, %zmm0, %zmm7, %zmm12
	vpternlogq	$248, %zmm0, %zmm9, %zmm13
	vpternlogq	$248, %zmm0, %zmm10, %zmm14
	vpternlogq	$248, %zmm0, %zmm11, %zmm15
	vpsrlq	$1, %zmm12, %zmm7
	vpsrlq	$1, %zmm13, %zmm9
	vpsrlq	$1, %zmm14, %zmm10
	vpsrlq	$1, %zmm15, %zmm11
	vpxorq	gen+1504(%rip), %zmm7, %zmm7
	vpxorq	gen+1568(%rip), %zmm9, %zmm9
	vpxorq	gen+1632(%rip), %zmm10, %zmm10
	vpxorq	gen+1696(%rip), %zmm11, %zmm11
	vpxorq	%zmm3, %zmm7, %zmm7 {%k1}
	vpxorq	%zmm3, %zmm9, %zmm9 {%k2}
	vpxorq	%zmm3, %zmm10, %zmm10 {%k3}
	vpxorq	%zmm3, %zmm11, %zmm11 {%k4}
	vmovdqa64	%zmm7, gen+256(%rip)
	vmovdqa64	%zmm9, gen+320(%rip)
	vmovdqa64	%zmm10, gen+384(%rip)
	vmovdqa64	%zmm11, gen+448(%rip)
	vmovdqu64	gen+520(%rip), %zmm4
	vmovdqu64	gen+584(%rip), %zmm5
	vmovdqu64	gen+648(%rip), %zmm6
	vmovdqu64	gen+712(%rip), %zmm7
	valignq	$7, %zmm8, %zmm4, %zmm8         # zmm8 = zmm8[7],zmm4[0,1,2,3,4,5,6]
	valignq	$7, %zmm4, %zmm5, %zmm9         # zmm9 = zmm4[7],zmm5[0,1,2,3,4,5,6]
	valignq	$7, %zmm5, %zmm6, %zmm10        # zmm10 = zmm5[7],zmm6[0,1,2,3,4,5,6]
	valignq	$7, %zmm6, %zmm7, %zmm11        # zmm11 = zmm6[7],zmm7[0,1,2,3,4,5,6]
	vpandq	%zmm1, %zmm4, %zmm12
	vpandq	%zmm1, %zmm5, %zmm13
	vpandq	%zmm1, %zmm6, %zmm14
